 libisssr

 Timestamp is 59a5171b (Tue Aug 29 15:26:19 2017)

 Preferred load address is 10000000

 Start         Length     Name                   Class
 0001:00000000 000ad700H .textbss                DATA
 0002:00000000 0014c41cH .text                   CODE
 0002:0014c420 00017990H .text$x                 CODE
 0002:00163db0 00005d62H .text$yc                CODE
 0002:00169b20 000037a3H .text$yd                CODE
 0003:00000000 00000104H .CRT$XCA                DATA
 0003:00000104 000006c5H .CRT$XCU                DATA
 0003:000007cc 00000104H .CRT$XCZ                DATA
 0003:000008d0 00000104H .CRT$XIA                DATA
 0003:000009d4 00000104H .CRT$XIAA               DATA
 0003:00000ad8 00000104H .CRT$XIC                DATA
 0003:00000bdc 00000104H .CRT$XIU                DATA
 0003:00000ce0 00000104H .CRT$XIZ                DATA
 0003:00000de4 00000004H .CRT$XLA                DATA
 0003:00000de8 00000004H .CRT$XLC                DATA
 0003:00000dec 00000004H .CRT$XLZ                DATA
 0003:00000df0 00000104H .CRT$XTU                DATA
 0003:00000f00 0002568aH .rdata                  DATA
 0003:0002658c 0000011cH .rdata$T                DATA
 0003:000266a8 000001a9H .rdata$debug            DATA
 0003:00026854 00001b73H .rdata$r                DATA
 0003:000283c8 00000104H .rtc$IAA                DATA
 0003:000284cc 00000104H .rtc$IZZ                DATA
 0003:000285d0 00000104H .rtc$TAA                DATA
 0003:000286d4 00000104H .rtc$TZZ                DATA
 0003:000287d8 00016222H .xdata$x                DATA
 0003:0003ea00 000003feH .edata                  DATA
 0004:00000000 00033343H .data                   DATA
 0004:00033348 000015dcH .bss                    DATA
 0005:00000000 00000168H .idata$2                DATA
 0005:00000168 00000014H .idata$3                DATA
 0005:0000017c 000009d8H .idata$4                DATA
 0005:00000b54 000009d8H .idata$5                DATA
 0005:0000152c 000033d9H .idata$6                DATA
 0006:00000000 00000101H .tls                    DATA
 0006:00000101 00000101H .tls$ZZZ                DATA
 0007:00000000 00000169H .rsrc$01                DATA
 0007:00000170 00000529H .rsrc$02                DATA

  Address         Publics by Value              Rva+Base       Lib:Object

 0000:00000000       __except_list              00000000     <absolute>
 0000:00000000       ___safe_se_handler_table   00000000     <absolute>
 0000:00000000       ___safe_se_handler_count   00000000     <absolute>
 0000:00009876       __ldused                   00009876     <absolute>
 0000:00009876       __fltused                  00009876     <absolute>
 0000:00000000       ___ImageBase               10000000     <linker-defined>
 0001:00000000       __enc$textbss$begin        10001000     <linker-defined>
 0001:000ad700       __enc$textbss$end          100ae700     <linker-defined>
 0002:0000e880       ?ClearRecResultAndError@CIssSr@VA@@AAEXXZ 100bd880 f   CIssSr.obj
 0002:0000ead0       ?Reset@CMsgTs@VA@@QAEXXZ   100bdad0 f i CIssSr.obj
 0002:0000eb80       ?Init@CIssSr@VA@@AAEXXZ    100bdb80 f   CIssSr.obj
 0002:0000ee90       ??0SrConfigParser@VA@@QAE@XZ 100bde90 f i CIssSr.obj
 0002:0000eec0       ??_GSrConfigParser@VA@@UAEPAXI@Z 100bdec0 f i CIssSr.obj
 0002:0000eec0       ??_ESrConfigParser@VA@@UAEPAXI@Z 100bdec0 f i CIssSr.obj
 0002:0000ef10       ??1SrConfigParser@VA@@UAE@XZ 100bdf10 f i CIssSr.obj
 0002:0000ef40       ?UnInit@CIssSr@VA@@AAEXXZ  100bdf40 f   CIssSr.obj
 0002:0000f680       ??_GCSTKS@VA@@QAEPAXI@Z    100be680 f i CIssSr.obj
 0002:0000f6d0       ??_GRingBuffer@VA@@QAEPAXI@Z 100be6d0 f i CIssSr.obj
 0002:0000f720       ??_GGrmBuildControl@VA@@QAEPAXI@Z 100be720 f i CIssSr.obj
 0002:0000f770       ??0CIssSr@VA@@QAE@P6AXPBXII0@ZPAXW4tagISS_SR_ACOUS_LANG@@PBDH@Z 100be770 f   CIssSr.obj
 0002:00010fd0       ??0mutex_lock@VA@@QAE@XZ   100bffd0 f i CIssSr.obj
 0002:00011020       ?lock@mutex_lock@VA@@UAEHXZ 100c0020 f i CIssSr.obj
 0002:00011050       ?unlock@mutex_lock@VA@@UAEHXZ 100c0050 f i CIssSr.obj
 0002:00011080       ??1mutex_lock@VA@@QAE@XZ   100c0080 f i CIssSr.obj
 0002:000110c0       ?error@mutex_lock@VA@@UAEHXZ 100c00c0 f i CIssSr.obj
 0002:000110e0       ?get_mutex@mutex_lock@VA@@UAEPAU_RTL_CRITICAL_SECTION@@XZ 100c00e0 f i CIssSr.obj
 0002:00011100       ??0lock_i@VA@@QAE@XZ       100c0100 f i CIssSr.obj
 0002:00011130       ??0CMsgTs@VA@@QAE@XZ       100c0130 f i CIssSr.obj
 0002:000111c0       ??1CMsgTs@VA@@QAE@XZ       100c01c0 f i CIssSr.obj
 0002:00011240       ??1ChybridVr@VA@@QAE@XZ    100c0240 f i CIssSr.obj
 0002:000112f0       ??1?$Log_Cfg_T@VLog_Cfg_Heap_Reg@VA@@ULog_Cfg@2@@VA@@QAE@XZ 100c02f0 f i CIssSr.obj
 0002:000113e0       ??1CIssSr@VA@@QAE@XZ       100c03e0 f   CIssSr.obj
 0002:00011620       ?TriggerWhenHasLocalRlt@CIssSr@VA@@AAEHXZ 100c0620 f   CIssSr.obj
 0002:00011e60       ??1FastWriter@Json@VA@@UAE@XZ 100c0e60 f i CIssSr.obj
 0002:00011ef0       ??_GFastWriter@Json@VA@@UAEPAXI@Z 100c0ef0 f i CIssSr.obj
 0002:00011ef0       ??_EFastWriter@Json@VA@@UAEPAXI@Z 100c0ef0 f i CIssSr.obj
 0002:00011f40       ??1Reader@Json@VA@@QAE@XZ  100c0f40 f i CIssSr.obj
 0002:00011fe0       ??1?$stack@PAVValue@Json@VA@@V?$deque@PAVValue@Json@VA@@V?$allocator@PAVValue@Json@VA@@@std@@@std@@@std@@QAE@XZ 100c0fe0 f i CIssSr.obj
 0002:00012010       ?HandleAndPostLocalMvwResult@CIssSr@VA@@AAEXHH@Z 100c1010 f   CIssSr.obj
 0002:000127f0       ??4?$map@HUtagKeyWordAndThreshold@VA@@U?$less@H@std@@V?$allocator@U?$pair@$$CBHUtagKeyWordAndThreshold@VA@@@std@@@4@@std@@QAEAAV01@ABV01@@Z 100c17f0 f i CIssSr.obj
 0002:00012820       ??1?$map@HUtagKeyWordAndThreshold@VA@@U?$less@H@std@@V?$allocator@U?$pair@$$CBHUtagKeyWordAndThreshold@VA@@@std@@@4@@std@@QAE@XZ 100c1820 f i CIssSr.obj
 0002:00012850       ?LoadBigSrRes@CIssSr@VA@@QAEHXZ 100c1850 f   CIssSr.obj
 0002:00012870       ?SetParam@CIssSr@VA@@QAEHPBD0@Z 100c1870 f   CIssSr.obj
 0002:00013e10       ?TriggerWhenHasCloudRlt@CIssSr@VA@@AAEHXZ 100c2e10 f   CIssSr.obj
 0002:000148c0       ?Set@CMsgTs@VA@@QAEXABV?$basic_string@DU?$char_traits@D@std@@V?$allocator@D@2@@std@@@Z 100c38c0 f i CIssSr.obj
 0002:00014960       ?GetStr@CMsgTs@VA@@QAE?AV?$basic_string@DU?$char_traits@D@std@@V?$allocator@D@2@@std@@XZ 100c3960 f i CIssSr.obj
 0002:00014a10       ?m_pcbProcOnVADDataFetched@CIssSr@VA@@CAXPAX0H@Z 100c3a10 f   CIssSr.obj
 0002:00014e70       ?m_pcbVADProcOnMsgProc@CIssSr@VA@@CAXPBXII0@Z 100c3e70 f   CIssSr.obj
 0002:00014f90       ?m_pcbIATProcOnMsgProc@CIssSr@VA@@CAXPBXII0@Z 100c3f90 f   CIssSr.obj
 0002:00015350       ?Set@CMsgTs@VA@@QAEXIIPBX@Z 100c4350 f i CIssSr.obj
 0002:000154f0       ?m_pcbSRProcOnMsgProc@CIssSr@VA@@CAXPBXII0@Z 100c44f0 f   CIssSr.obj
 0002:00015ad0       ?m_pcbMVWProcOnWakeup@CIssSr@VA@@CAXPAXIIHPBD@Z 100c4ad0 f   CIssSr.obj
 0002:00015c00       ?m_pcbMVWProcOnISSChipCryptError@CIssSr@VA@@CAXPAXH@Z 100c4c00 f   CIssSr.obj
 0002:00015c70       ?Start@CIssSr@VA@@QAEHPBDH0@Z 100c4c70 f   CIssSr.obj
 0002:00017ba0       ?AppendAudioData@CIssSr@VA@@QAEHPAFIPAI@Z 100c6ba0 f   CIssSr.obj
 0002:00017c10       ?EndAudioData@CIssSr@VA@@QAEHXZ 100c6c10 f   CIssSr.obj
 0002:00018120       ?IsSet@CMsgTs@VA@@QBE_NXZ  100c7120 f i CIssSr.obj
 0002:00018140       ?Stop@CIssSr@VA@@QAEHXZ    100c7140 f   CIssSr.obj
 0002:00018450       ?UpLoadDict@CIssSr@VA@@QAEHPBDH@Z 100c7450 f   CIssSr.obj
 0002:000189c0       ?MspSearch@CIssSr@VA@@QAEPBDPBD0PAH@Z 100c79c0 f   CIssSr.obj
 0002:00018b20       ?LocalNli@CIssSr@VA@@QAEPBDPBD0PAH@Z 100c7b20 f   CIssSr.obj
 0002:00018df0       ?thread_ResultManager@CIssSr@VA@@CGKPAX@Z 100c7df0 f   CIssSr.obj
 0002:00018e20       ?ResultManager@CIssSr@VA@@AAEXXZ 100c7e20 f   CIssSr.obj
 0002:0001ad10       ??0CMsgTs@VA@@QAE@IIPBX@Z  100c9d10 f i CIssSr.obj
 0002:0001adf0       ??0CMsgTs@VA@@QAE@PBX@Z    100c9df0 f i CIssSr.obj
 0002:0001aed0       ?GetwParam@CMsgTs@VA@@QBEIXZ 100c9ed0 f i CIssSr.obj
 0002:0001aef0       ?BuildMVWGrm@CIssSr@VA@@QAEHPBDH@Z 100c9ef0 f   CIssSr.obj
 0002:0001b2e0       ?CheckGrmBuilding@CIssSr@VA@@QAEHPBD0PAH@Z 100ca2e0 f   CIssSr.obj
 0002:0001b4d0       ?GetMvwKeyWord@CIssSr@VA@@AAEHHHPAV?$basic_string@DU?$char_traits@D@std@@V?$allocator@D@2@@std@@@Z 100ca4d0 f   CIssSr.obj
 0002:0001b980       ?HandleMvwResultStks@CIssSr@VA@@AAEHHHPAV?$basic_string@DU?$char_traits@D@std@@V?$allocator@D@2@@std@@@Z 100ca980 f   CIssSr.obj
 0002:0001bf20       ?HandleSrResultStks@CIssSr@VA@@AAEHPBDPAV?$basic_string@DU?$char_traits@D@std@@V?$allocator@D@2@@std@@@Z 100caf20 f   CIssSr.obj
 0002:0001c690       ?StartStks@CIssSr@VA@@AAEHHPBD@Z 100cb690 f   CIssSr.obj
 0002:0001d1c0       ?GetMode@CSTKS@VA@@QAEHXZ  100cc1c0 f i CIssSr.obj
 0002:0001d200       ?StartOneShot@CIssSr@VA@@AAEHPBD@Z 100cc200 f   CIssSr.obj
 0002:0001e150       ??1?$deque@PAVValue@Json@VA@@V?$allocator@PAVValue@Json@VA@@@std@@@std@@QAE@XZ 100cd150 f i CIssSr.obj
 0002:0001e1d0       ??1?$deque@VErrorInfo@Reader@Json@VA@@V?$allocator@VErrorInfo@Reader@Json@VA@@@std@@@std@@QAE@XZ 100cd1d0 f i CIssSr.obj
 0002:0001e250       ??1?$vector@V?$basic_string@DU?$char_traits@D@std@@V?$allocator@D@2@@std@@V?$allocator@V?$basic_string@DU?$char_traits@D@std@@V?$allocator@D@2@@std@@@2@@std@@QAE@XZ 100cd250 f i CIssSr.obj
 0002:0001e2d0       ??0?$auto_lock@Vmutex_lock@VA@@@VA@@QAE@PAVmutex_lock@1@@Z 100cd2d0 f i CIssSr.obj
 0002:0001e320       ??1?$auto_lock@Vmutex_lock@VA@@@VA@@QAE@XZ 100cd320 f i CIssSr.obj
 0002:0001e360       ??0?$Log_Perf_Helper@VLog_Timer@VA@@V?$Log_Singleton@V?$Log_Uni_Type@VLog_IO_FILE@VA@@V__LOG_TOK_Log_IO_FILE_isssr_logLog_IO_FILE__@2@@VA@@VLog_Thread_Mutex@2@V?$Log_Cfg_T@VLog_Cfg_Heap_Reg@VA@@ULog_Cfg@2@@2@@2@N@VA@@QAE@PBD@Z 100cd360 f i CIssSr.obj
 0002:0001e420       ?start@Log_Timer@VA@@QAEXXZ 100cd420 f i CIssSr.obj
 0002:0001e450       ??0Log_Timer@VA@@QAE@XZ    100cd450 f i CIssSr.obj
 0002:0001e490       ??1Log_Timer@VA@@QAE@XZ    100cd490 f i CIssSr.obj
 0002:0001e4b0       ??1?$Log_Perf_Helper@VLog_Timer@VA@@V?$Log_Singleton@V?$Log_Uni_Type@VLog_IO_FILE@VA@@V__LOG_TOK_Log_IO_FILE_isssr_logLog_IO_FILE__@2@@VA@@VLog_Thread_Mutex@2@V?$Log_Cfg_T@VLog_Cfg_Heap_Reg@VA@@ULog_Cfg@2@@2@@2@N@VA@@QAE@XZ 100cd4b0 f i CIssSr.obj
 0002:0001e5d0       ??0?$Log_Func_Tracer@V?$Log_Singleton@V?$Log_Uni_Type@VLog_IO_FILE@VA@@V__LOG_TOK_Log_IO_FILE_isssr_logLog_IO_FILE__@2@@VA@@VLog_Thread_Mutex@2@V?$Log_Cfg_T@VLog_Cfg_Heap_Reg@VA@@ULog_Cfg@2@@2@@VA@@@VA@@QAE@PBD@Z 100cd5d0 f i CIssSr.obj
 0002:0001e690       ??1?$Log_Func_Tracer@V?$Log_Singleton@V?$Log_Uni_Type@VLog_IO_FILE@VA@@V__LOG_TOK_Log_IO_FILE_isssr_logLog_IO_FILE__@2@@VA@@VLog_Thread_Mutex@2@V?$Log_Cfg_T@VLog_Cfg_Heap_Reg@VA@@ULog_Cfg@2@@2@@VA@@@VA@@QAE@XZ 100cd690 f i CIssSr.obj
 0002:0001e730       ??A?$map@V?$basic_string@DU?$char_traits@D@std@@V?$allocator@D@2@@std@@VSrScene@VA@@U?$less@V?$basic_string@DU?$char_traits@D@std@@V?$allocator@D@2@@std@@@2@V?$allocator@U?$pair@$$CBV?$basic_string@DU?$char_traits@D@std@@V?$allocator@D@2@@std@@VSrScene@VA@@@std@@@2@@std@@QAEAAVSrScene@VA@@ABV?$basic_string@DU?$char_traits@D@std@@V?$allocator@D@2@@1@@Z 100cd730 f i CIssSr.obj
 0002:0001e8d0       ?begin@?$list@UServicesSearchContactsItem@VA@@V?$allocator@UServicesSearchContactsItem@VA@@@std@@@std@@QAE?AV?$_Iterator@$00@12@XZ 100cd8d0 f i CIssSr.obj
 0002:0001e920       ?end@?$list@UServicesSearchContactsItem@VA@@V?$allocator@UServicesSearchContactsItem@VA@@@std@@@std@@QAE?AV?$_Iterator@$00@12@XZ 100cd920 f i CIssSr.obj
 0002:0001e960       ??0?$map@HUtagKeyWordAndThreshold@VA@@U?$less@H@std@@V?$allocator@U?$pair@$$CBHUtagKeyWordAndThreshold@VA@@@std@@@4@@std@@QAE@XZ 100cd960 f i CIssSr.obj
 0002:0001e9a0       ??A?$map@HUtagKeyWordAndThreshold@VA@@U?$less@H@std@@V?$allocator@U?$pair@$$CBHUtagKeyWordAndThreshold@VA@@@std@@@4@@std@@QAEAAUtagKeyWordAndThreshold@VA@@ABH@Z 100cd9a0 f i CIssSr.obj
 0002:0001eb40       ??0tagKeyWordAndThreshold@VA@@QAE@XZ 100cdb40 f i CIssSr.obj
 0002:0001ebd0       ??1?$_Tree@V?$_Tmap_traits@HUtagKeyWordAndThreshold@VA@@U?$less@H@std@@V?$allocator@U?$pair@$$CBHUtagKeyWordAndThreshold@VA@@@std@@@4@$0A@@std@@@std@@QAE@XZ 100cdbd0 f i CIssSr.obj
 0002:0001ec50       ??4?$_Tree@V?$_Tmap_traits@HUtagKeyWordAndThreshold@VA@@U?$less@H@std@@V?$allocator@U?$pair@$$CBHUtagKeyWordAndThreshold@VA@@@std@@@4@$0A@@std@@@std@@QAEAAV01@ABV01@@Z 100cdc50 f i CIssSr.obj
 0002:0001ecf0       ?end@?$_Tree@V?$_Tmap_traits@HUtagKeyWordAndThreshold@VA@@U?$less@H@std@@V?$allocator@U?$pair@$$CBHUtagKeyWordAndThreshold@VA@@@std@@@4@$0A@@std@@@std@@QAE?AViterator@12@XZ 100cdcf0 f i CIssSr.obj
 0002:0001ed30       ?find@?$_Tree@V?$_Tmap_traits@HUtagKeyWordAndThreshold@VA@@U?$less@H@std@@V?$allocator@U?$pair@$$CBHUtagKeyWordAndThreshold@VA@@@std@@@4@$0A@@std@@@std@@QAE?AViterator@12@ABH@Z 100cdd30 f i CIssSr.obj
 0002:0001edf0       ?begin@?$_Tree@V?$_Tmap_traits@IUtagMvwScene@VA@@U?$less@I@std@@V?$allocator@U?$pair@$$CBIUtagMvwScene@VA@@@std@@@4@$0A@@std@@@std@@QAE?AViterator@12@XZ 100cddf0 f i CIssSr.obj
 0002:0001ee30       ?end@?$_Tree@V?$_Tmap_traits@IUtagMvwScene@VA@@U?$less@I@std@@V?$allocator@U?$pair@$$CBIUtagMvwScene@VA@@@std@@@4@$0A@@std@@@std@@QAE?AViterator@12@XZ 100cde30 f i CIssSr.obj
 0002:0001ee70       ?find@?$_Tree@V?$_Tmap_traits@IUtagMvwScene@VA@@U?$less@I@std@@V?$allocator@U?$pair@$$CBIUtagMvwScene@VA@@@std@@@4@$0A@@std@@@std@@QAE?AViterator@12@ABI@Z 100cde70 f i CIssSr.obj
 0002:0001ef30       ?instance@?$iFly_Singleton_T@V?$Log_Impl_T@V?$Log_Uni_Type@VLog_IO_FILE@VA@@V__LOG_TOK_Log_IO_FILE_isssr_logLog_IO_FILE__@2@@VA@@VLog_Thread_Mutex@2@V?$Log_Cfg_T@VLog_Cfg_Heap_Reg@VA@@ULog_Cfg@2@@2@@VA@@@VA@@SAAAPAV?$Log_Impl_T@V?$Log_Uni_Type@VLog_IO_FILE@VA@@V__LOG_TOK_Log_IO_FILE_isssr_logLog_IO_FILE__@2@@VA@@VLog_Thread_Mutex@2@V?$Log_Cfg_T@VLog_Cfg_Heap_Reg@VA@@ULog_Cfg@2@@2@@2@XZ 100cdf30 f i CIssSr.obj
 0002:0001ef50       ?config@?$Log_Impl_T@V?$Log_Uni_Type@VLog_IO_FILE@VA@@V__LOG_TOK_Log_IO_FILE_isssr_logLog_IO_FILE__@2@@VA@@VLog_Thread_Mutex@2@V?$Log_Cfg_T@VLog_Cfg_Heap_Reg@VA@@ULog_Cfg@2@@2@@VA@@QAEAAV?$Log_Cfg_T@VLog_Cfg_Heap_Reg@VA@@ULog_Cfg@2@@2@XZ 100cdf50 f i CIssSr.obj
 0002:0001ef70       ??0?$Log_Cfg_T@VLog_Cfg_Heap_Reg@VA@@ULog_Cfg@2@@VA@@QAE@PBD0H@Z 100cdf70 f i CIssSr.obj
 0002:0001f1e0       ??0?$vector@V?$basic_string@DU?$char_traits@D@std@@V?$allocator@D@2@@std@@V?$allocator@V?$basic_string@DU?$char_traits@D@std@@V?$allocator@D@2@@std@@@2@@std@@QAE@XZ 100ce1e0 f i CIssSr.obj
 0002:0001f270       ?file_name@?$Log_Cfg_T@VLog_Cfg_Heap_Reg@VA@@ULog_Cfg@2@@VA@@UBEPBDXZ 100ce270 f i CIssSr.obj
 0002:0001f2a0       ?file_name@?$Log_Cfg_T@VLog_Cfg_Heap_Reg@VA@@ULog_Cfg@2@@VA@@QAEXPBD@Z 100ce2a0 f i CIssSr.obj
 0002:0001f2e0       ?title@?$Log_Cfg_T@VLog_Cfg_Heap_Reg@VA@@ULog_Cfg@2@@VA@@UBEPBDXZ 100ce2e0 f i CIssSr.obj
 0002:0001f310       ?max_size@?$Log_Cfg_T@VLog_Cfg_Heap_Reg@VA@@ULog_Cfg@2@@VA@@UBEIXZ 100ce310 f i CIssSr.obj
 0002:0001f330       ?overwrite@?$Log_Cfg_T@VLog_Cfg_Heap_Reg@VA@@ULog_Cfg@2@@VA@@UBE_NXZ 100ce330 f i CIssSr.obj
 0002:0001f350       ?output@?$Log_Cfg_T@VLog_Cfg_Heap_Reg@VA@@ULog_Cfg@2@@VA@@UBEHXZ 100ce350 f i CIssSr.obj
 0002:0001f370       ?level@?$Log_Cfg_T@VLog_Cfg_Heap_Reg@VA@@ULog_Cfg@2@@VA@@UBEHXZ 100ce370 f i CIssSr.obj
 0002:0001f390       ?level@?$Log_Cfg_T@VLog_Cfg_Heap_Reg@VA@@ULog_Cfg@2@@VA@@QAEXH@Z 100ce390 f i CIssSr.obj
 0002:0001f3d0       ?style@?$Log_Cfg_T@VLog_Cfg_Heap_Reg@VA@@ULog_Cfg@2@@VA@@UBEHXZ 100ce3d0 f i CIssSr.obj
 0002:0001f3f0       ?filter@?$Log_Cfg_T@VLog_Cfg_Heap_Reg@VA@@ULog_Cfg@2@@VA@@UBEHXZ 100ce3f0 f i CIssSr.obj
 0002:0001f410       ?flush_always@?$Log_Cfg_T@VLog_Cfg_Heap_Reg@VA@@ULog_Cfg@2@@VA@@UBE_NXZ 100ce410 f i CIssSr.obj
 0002:0001f430       ?module@?$Log_Cfg_T@VLog_Cfg_Heap_Reg@VA@@ULog_Cfg@2@@VA@@UBEPAXXZ 100ce430 f i CIssSr.obj
 0002:0001f450       ?max_count@?$Log_Cfg_T@VLog_Cfg_Heap_Reg@VA@@ULog_Cfg@2@@VA@@UBEHXZ 100ce450 f i CIssSr.obj
 0002:0001f470       ?mode@?$Log_Cfg_T@VLog_Cfg_Heap_Reg@VA@@ULog_Cfg@2@@VA@@UBEHXZ 100ce470 f i CIssSr.obj
 0002:0001f4a0       ?has_head@?$Log_Cfg_T@VLog_Cfg_Heap_Reg@VA@@ULog_Cfg@2@@VA@@UBE_NXZ 100ce4a0 f i CIssSr.obj
 0002:0001f4c0       ?locale@?$Log_Cfg_T@VLog_Cfg_Heap_Reg@VA@@ULog_Cfg@2@@VA@@UBEPBDXZ 100ce4c0 f i CIssSr.obj
 0002:0001f4f0       ?console_level@?$Log_Cfg_T@VLog_Cfg_Heap_Reg@VA@@ULog_Cfg@2@@VA@@UBEHXZ 100ce4f0 f i CIssSr.obj
 0002:0001f520       ?charset@?$Log_Cfg_T@VLog_Cfg_Heap_Reg@VA@@ULog_Cfg@2@@VA@@UBE?AW4LOG_CHARSET@2@XZ 100ce520 f i CIssSr.obj
 0002:0001f550       ?start_time@?$Log_Cfg_T@VLog_Cfg_Heap_Reg@VA@@ULog_Cfg@2@@VA@@UBE_JXZ 100ce550 f i CIssSr.obj
 0002:0001f580       ?start_tick@?$Log_Cfg_T@VLog_Cfg_Heap_Reg@VA@@ULog_Cfg@2@@VA@@UBEIXZ 100ce580 f i CIssSr.obj
 0002:0001f5b0       ?cfg_file@?$Log_Cfg_T@VLog_Cfg_Heap_Reg@VA@@ULog_Cfg@2@@VA@@UBEPBDXZ 100ce5b0 f i CIssSr.obj
 0002:0001f5e0       ?perf_thres@?$Log_Cfg_T@VLog_Cfg_Heap_Reg@VA@@ULog_Cfg@2@@VA@@UBEHXZ 100ce5e0 f i CIssSr.obj
 0002:0001f610       ??Citerator@?$_Tree@V?$_Tmap_traits@IUtagMvwScene@VA@@U?$less@I@std@@V?$allocator@U?$pair@$$CBIUtagMvwScene@VA@@@std@@@4@$0A@@std@@@std@@QBEPAU?$pair@$$CBIUtagMvwScene@VA@@@2@XZ 100ce610 f i CIssSr.obj
 0002:0001f640       ??Eiterator@?$_Tree@V?$_Tmap_traits@IUtagMvwScene@VA@@U?$less@I@std@@V?$allocator@U?$pair@$$CBIUtagMvwScene@VA@@@std@@@4@$0A@@std@@@std@@QAEAAV012@XZ 100ce640 f i CIssSr.obj
 0002:0001f670       ??9const_iterator@?$_Tree@V?$_Tmap_traits@IUtagMvwScene@VA@@U?$less@I@std@@V?$allocator@U?$pair@$$CBIUtagMvwScene@VA@@@std@@@4@$0A@@std@@@std@@QBE_NABV012@@Z 100ce670 f i CIssSr.obj
 0002:0001f6b0       ??9const_iterator@?$_Tree@V?$_Tmap_traits@HUtagKeyWordAndThreshold@VA@@U?$less@H@std@@V?$allocator@U?$pair@$$CBHUtagKeyWordAndThreshold@VA@@@std@@@4@$0A@@std@@@std@@QBE_NABV012@@Z 100ce6b0 f i CIssSr.obj
 0002:0001f6f0       ??C?$_Iterator@$00@?$list@UServicesSearchContactsItem@VA@@V?$allocator@UServicesSearchContactsItem@VA@@@std@@@std@@QBEPAUServicesSearchContactsItem@VA@@XZ 100ce6f0 f i CIssSr.obj
 0002:0001f720       ??E?$_Iterator@$00@?$list@UServicesSearchContactsItem@VA@@V?$allocator@UServicesSearchContactsItem@VA@@@std@@@std@@QAEAAV012@XZ 100ce720 f i CIssSr.obj
 0002:0001f750       ??9?$_Const_iterator@$00@?$list@UServicesSearchContactsItem@VA@@V?$allocator@UServicesSearchContactsItem@VA@@@std@@@std@@QBE_NABV012@@Z 100ce750 f i CIssSr.obj
 0002:0001f790       ??1?$_Deque_val@PAVValue@Json@VA@@V?$allocator@PAVValue@Json@VA@@@std@@@std@@QAE@XZ 100ce790 f i CIssSr.obj
 0002:0001f7c0       ??1?$_Deque_val@VErrorInfo@Reader@Json@VA@@V?$allocator@VErrorInfo@Reader@Json@VA@@@std@@@std@@QAE@XZ 100ce7c0 f i CIssSr.obj
 0002:0001f7f0       ??1?$_Vector_val@V?$basic_string@DU?$char_traits@D@std@@V?$allocator@D@2@@std@@V?$allocator@V?$basic_string@DU?$char_traits@D@std@@V?$allocator@D@2@@std@@@2@@std@@QAE@XZ 100ce7f0 f i CIssSr.obj
 0002:0001f820       ??0SrScene@VA@@QAE@XZ      100ce820 f i CIssSr.obj
 0002:0001f8d0       ??1SrScene@VA@@QAE@XZ      100ce8d0 f i CIssSr.obj
 0002:0001f970       ??1?$pair@$$CBV?$basic_string@DU?$char_traits@D@std@@V?$allocator@D@2@@std@@VSrScene@VA@@@std@@QAE@XZ 100ce970 f i CIssSr.obj
 0002:0001f9f0       ??1tagKeyWordAndThreshold@VA@@QAE@XZ 100ce9f0 f i CIssSr.obj
 0002:0001fa20       ??1?$pair@$$CBHUtagKeyWordAndThreshold@VA@@@std@@QAE@XZ 100cea20 f i CIssSr.obj
 0002:0001fa50       ??1?$_Tree_val@V?$_Tmap_traits@HUtagKeyWordAndThreshold@VA@@U?$less@H@std@@V?$allocator@U?$pair@$$CBHUtagKeyWordAndThreshold@VA@@@std@@@4@$0A@@std@@@std@@QAE@XZ 100cea50 f i CIssSr.obj
 0002:0001fa80       ??0Log_Cfg@VA@@QAE@XZ      100cea80 f i CIssSr.obj
 0002:0001fab0       ??1?$_Deque_map@PAVValue@Json@VA@@V?$allocator@PAVValue@Json@VA@@@std@@@std@@QAE@XZ 100ceab0 f i CIssSr.obj
 0002:0001fae0       ??1?$_Deque_map@VErrorInfo@Reader@Json@VA@@V?$allocator@VErrorInfo@Reader@Json@VA@@@std@@@std@@QAE@XZ 100ceae0 f i CIssSr.obj
 0002:0001fb10       ??1?$_Tree_ptr@V?$_Tmap_traits@HUtagKeyWordAndThreshold@VA@@U?$less@H@std@@V?$allocator@U?$pair@$$CBHUtagKeyWordAndThreshold@VA@@@std@@@4@$0A@@std@@@std@@QAE@XZ 100ceb10 f i CIssSr.obj
 0002:0001fb40       ??1?$_Tree_nod@V?$_Tmap_traits@HUtagKeyWordAndThreshold@VA@@U?$less@H@std@@V?$allocator@U?$pair@$$CBHUtagKeyWordAndThreshold@VA@@@std@@@4@$0A@@std@@@std@@QAE@XZ 100ceb40 f i CIssSr.obj
 0002:0001fb70       ??1?$_Tmap_traits@HUtagKeyWordAndThreshold@VA@@U?$less@H@std@@V?$allocator@U?$pair@$$CBHUtagKeyWordAndThreshold@VA@@@std@@@4@$0A@@std@@QAE@XZ 100ceb70 f i CIssSr.obj
 0002:0001fba0       ?_Tidy@?$deque@PAVValue@Json@VA@@V?$allocator@PAVValue@Json@VA@@@std@@@std@@IAEXXZ 100ceba0 f i CIssSr.obj
 0002:0001fc90       ??1?$_Container_base_aux_alloc_real@V?$allocator@PAVValue@Json@VA@@@std@@@std@@IAE@XZ 100cec90 f i CIssSr.obj
 0002:0001fd10       ??1_Container_base_aux@std@@QAE@XZ 100ced10 f i CIssSr.obj
 0002:0001fd30       ?_Tidy@?$deque@VErrorInfo@Reader@Json@VA@@V?$allocator@VErrorInfo@Reader@Json@VA@@@std@@@std@@IAEXXZ 100ced30 f i CIssSr.obj
 0002:0001fe20       ??1?$_Container_base_aux_alloc_real@V?$allocator@VErrorInfo@Reader@Json@VA@@@std@@@std@@IAE@XZ 100cee20 f i CIssSr.obj
 0002:0001fea0       ?_Buy@?$vector@V?$basic_string@DU?$char_traits@D@std@@V?$allocator@D@2@@std@@V?$allocator@V?$basic_string@DU?$char_traits@D@std@@V?$allocator@D@2@@std@@@2@@std@@IAE_NI@Z 100ceea0 f i CIssSr.obj
 0002:0001ff50       ?_Tidy@?$vector@V?$basic_string@DU?$char_traits@D@std@@V?$allocator@D@2@@std@@V?$allocator@V?$basic_string@DU?$char_traits@D@std@@V?$allocator@D@2@@std@@@2@@std@@IAEXXZ 100cef50 f i CIssSr.obj
 0002:0001fff0       ??0?$_Vector_val@V?$basic_string@DU?$char_traits@D@std@@V?$allocator@D@2@@std@@V?$allocator@V?$basic_string@DU?$char_traits@D@std@@V?$allocator@D@2@@std@@@2@@std@@IAE@V?$allocator@V?$basic_string@DU?$char_traits@D@std@@V?$allocator@D@2@@std@@@1@@Z 100ceff0 f i CIssSr.obj
 0002:00020040       ??1?$_Container_base_aux_alloc_real@V?$allocator@V?$basic_string@DU?$char_traits@D@std@@V?$allocator@D@2@@std@@@std@@@std@@IAE@XZ 100cf040 f i CIssSr.obj
 0002:000200c0       ??0?$allocator@V?$basic_string@DU?$char_traits@D@std@@V?$allocator@D@2@@std@@@std@@QAE@XZ 100cf0c0 f i CIssSr.obj
 0002:000200e0       ?stop@?$Log_Perf_Helper@VLog_Timer@VA@@V?$Log_Singleton@V?$Log_Uni_Type@VLog_IO_FILE@VA@@V__LOG_TOK_Log_IO_FILE_isssr_logLog_IO_FILE__@2@@VA@@VLog_Thread_Mutex@2@V?$Log_Cfg_T@VLog_Cfg_Heap_Reg@VA@@ULog_Cfg@2@@2@@2@N@VA@@QAEABNXZ 100cf0e0 f i CIssSr.obj
 0002:00020160       ?stop@Log_Timer@VA@@QAEN_N@Z 100cf160 f i CIssSr.obj
 0002:00020200       ?elapsed_time@Log_Timer@VA@@QAENAAN@Z 100cf200 f i CIssSr.obj
 0002:00020230       ??R?$less@V?$basic_string@DU?$char_traits@D@std@@V?$allocator@D@2@@std@@@std@@QBE_NABV?$basic_string@DU?$char_traits@D@std@@V?$allocator@D@2@@1@0@Z 100cf230 f i CIssSr.obj
 0002:00020260       ?_Key@?$_Tree@V?$_Tmap_traits@V?$basic_string@DU?$char_traits@D@std@@V?$allocator@D@2@@std@@VSrScene@VA@@U?$less@V?$basic_string@DU?$char_traits@D@std@@V?$allocator@D@2@@std@@@2@V?$allocator@U?$pair@$$CBV?$basic_string@DU?$char_traits@D@std@@V?$allocator@D@2@@std@@VSrScene@VA@@@std@@@2@$0A@@std@@@std@@KAABV?$basic_string@DU?$char_traits@D@std@@V?$allocator@D@2@@2@PAU_Node@?$_Tree_nod@V?$_Tmap_traits@V?$basic_string@DU?$char_traits@D@std@@V?$allocator@D@2@@std@@VSrScene@VA@@U?$less@V?$basic_string@DU?$char_traits@D@std@@V?$allocator@D@2@@std@@@2@V?$allocator@U?$pair@$$CBV?$basic_string@DU?$char_traits@D@std@@V?$allocator@D@2@@std@@VSrScene@VA@@@std@@@2@$0A@@std@@@2@@Z 100cf260 f i CIssSr.obj
 0002:00020290       ?end@?$_Tree@V?$_Tmap_traits@V?$basic_string@DU?$char_traits@D@std@@V?$allocator@D@2@@std@@VSrScene@VA@@U?$less@V?$basic_string@DU?$char_traits@D@std@@V?$allocator@D@2@@std@@@2@V?$allocator@U?$pair@$$CBV?$basic_string@DU?$char_traits@D@std@@V?$allocator@D@2@@std@@VSrScene@VA@@@std@@@2@$0A@@std@@@std@@QAE?AViterator@12@XZ 100cf290 f i CIssSr.obj
 0002:000202d0       ?insert@?$_Tree@V?$_Tmap_traits@V?$basic_string@DU?$char_traits@D@std@@V?$allocator@D@2@@std@@VSrScene@VA@@U?$less@V?$basic_string@DU?$char_traits@D@std@@V?$allocator@D@2@@std@@@2@V?$allocator@U?$pair@$$CBV?$basic_string@DU?$char_traits@D@std@@V?$allocator@D@2@@std@@VSrScene@VA@@@std@@@2@$0A@@std@@@std@@QAE?AViterator@12@Vconst_iterator@12@ABU?$pair@$$CBV?$basic_string@DU?$char_traits@D@std@@V?$allocator@D@2@@std@@VSrScene@VA@@@2@@Z 100cf2d0 f i CIssSr.obj
 0002:00020a90       ?lower_bound@?$_Tree@V?$_Tmap_traits@V?$basic_string@DU?$char_traits@D@std@@V?$allocator@D@2@@std@@VSrScene@VA@@U?$less@V?$basic_string@DU?$char_traits@D@std@@V?$allocator@D@2@@std@@@2@V?$allocator@U?$pair@$$CBV?$basic_string@DU?$char_traits@D@std@@V?$allocator@D@2@@std@@VSrScene@VA@@@std@@@2@$0A@@std@@@std@@QAE?AViterator@12@ABV?$basic_string@DU?$char_traits@D@std@@V?$allocator@D@2@@2@@Z 100cfa90 f i CIssSr.obj
 0002:00020ad0       ?_Nextnode@?$list@UServicesSearchContactsItem@VA@@V?$allocator@UServicesSearchContactsItem@VA@@@std@@@std@@KAAAPAU_Node@?$_List_nod@UServicesSearchContactsItem@VA@@V?$allocator@UServicesSearchContactsItem@VA@@@std@@@2@PAU342@@Z 100cfad0 f i CIssSr.obj
 0002:00020af0       ?_Key@?$_Tree@V?$_Tmap_traits@HUtagKeyWordAndThreshold@VA@@U?$less@H@std@@V?$allocator@U?$pair@$$CBHUtagKeyWordAndThreshold@VA@@@std@@@4@$0A@@std@@@std@@KAABHPAU_Node@?$_Tree_nod@V?$_Tmap_traits@HUtagKeyWordAndThreshold@VA@@U?$less@H@std@@V?$allocator@U?$pair@$$CBHUtagKeyWordAndThreshold@VA@@@std@@@4@$0A@@std@@@2@@Z 100cfaf0 f i CIssSr.obj
 0002:00020b20       ??0?$_Tree@V?$_Tmap_traits@HUtagKeyWordAndThreshold@VA@@U?$less@H@std@@V?$allocator@U?$pair@$$CBHUtagKeyWordAndThreshold@VA@@@std@@@4@$0A@@std@@@std@@QAE@ABU?$less@H@1@ABV?$allocator@U?$pair@$$CBHUtagKeyWordAndThreshold@VA@@@std@@@1@@Z 100cfb20 f i CIssSr.obj
 0002:00020bb0       ?begin@?$_Tree@V?$_Tmap_traits@HUtagKeyWordAndThreshold@VA@@U?$less@H@std@@V?$allocator@U?$pair@$$CBHUtagKeyWordAndThreshold@VA@@@std@@@4@$0A@@std@@@std@@QAE?AViterator@12@XZ 100cfbb0 f i CIssSr.obj
 0002:00020bf0       ?insert@?$_Tree@V?$_Tmap_traits@HUtagKeyWordAndThreshold@VA@@U?$less@H@std@@V?$allocator@U?$pair@$$CBHUtagKeyWordAndThreshold@VA@@@std@@@4@$0A@@std@@@std@@QAE?AViterator@12@Vconst_iterator@12@ABU?$pair@$$CBHUtagKeyWordAndThreshold@VA@@@2@@Z 100cfbf0 f i CIssSr.obj
 0002:000213b0       ?erase@?$_Tree@V?$_Tmap_traits@HUtagKeyWordAndThreshold@VA@@U?$less@H@std@@V?$allocator@U?$pair@$$CBHUtagKeyWordAndThreshold@VA@@@std@@@4@$0A@@std@@@std@@QAE?AViterator@12@Vconst_iterator@12@0@Z 100d03b0 f i CIssSr.obj
 0002:000214a0       ?clear@?$_Tree@V?$_Tmap_traits@HUtagKeyWordAndThreshold@VA@@U?$less@H@std@@V?$allocator@U?$pair@$$CBHUtagKeyWordAndThreshold@VA@@@std@@@4@$0A@@std@@@std@@QAEXXZ 100d04a0 f i CIssSr.obj
 0002:00021520       ?lower_bound@?$_Tree@V?$_Tmap_traits@HUtagKeyWordAndThreshold@VA@@U?$less@H@std@@V?$allocator@U?$pair@$$CBHUtagKeyWordAndThreshold@VA@@@std@@@4@$0A@@std@@@std@@QAE?AViterator@12@ABH@Z 100d0520 f i CIssSr.obj
 0002:00021560       ?_Copy@?$_Tree@V?$_Tmap_traits@HUtagKeyWordAndThreshold@VA@@U?$less@H@std@@V?$allocator@U?$pair@$$CBHUtagKeyWordAndThreshold@VA@@@std@@@4@$0A@@std@@@std@@IAEXABV12@@Z 100d0560 f i CIssSr.obj
 0002:00021660       ?_Erase@?$_Tree@V?$_Tmap_traits@HUtagKeyWordAndThreshold@VA@@U?$less@H@std@@V?$allocator@U?$pair@$$CBHUtagKeyWordAndThreshold@VA@@@std@@@4@$0A@@std@@@std@@IAEXPAU_Node@?$_Tree_nod@V?$_Tmap_traits@HUtagKeyWordAndThreshold@VA@@U?$less@H@std@@V?$allocator@U?$pair@$$CBHUtagKeyWordAndThreshold@VA@@@std@@@4@$0A@@std@@@2@@Z 100d0660 f i CIssSr.obj
 0002:00021700       ?_Lmost@?$_Tree@V?$_Tmap_traits@HUtagKeyWordAndThreshold@VA@@U?$less@H@std@@V?$allocator@U?$pair@$$CBHUtagKeyWordAndThreshold@VA@@@std@@@4@$0A@@std@@@std@@IBEAAPAU_Node@?$_Tree_nod@V?$_Tmap_traits@HUtagKeyWordAndThreshold@VA@@U?$less@H@std@@V?$allocator@U?$pair@$$CBHUtagKeyWordAndThreshold@VA@@@std@@@4@$0A@@std@@@2@XZ 100d0700 f i CIssSr.obj
 0002:00021730       ?_Rmost@?$_Tree@V?$_Tmap_traits@HUtagKeyWordAndThreshold@VA@@U?$less@H@std@@V?$allocator@U?$pair@$$CBHUtagKeyWordAndThreshold@VA@@@std@@@4@$0A@@std@@@std@@IBEAAPAU_Node@?$_Tree_nod@V?$_Tmap_traits@HUtagKeyWordAndThreshold@VA@@U?$less@H@std@@V?$allocator@U?$pair@$$CBHUtagKeyWordAndThreshold@VA@@@std@@@4@$0A@@std@@@2@XZ 100d0730 f i CIssSr.obj
 0002:00021760       ?_Root@?$_Tree@V?$_Tmap_traits@HUtagKeyWordAndThreshold@VA@@U?$less@H@std@@V?$allocator@U?$pair@$$CBHUtagKeyWordAndThreshold@VA@@@std@@@4@$0A@@std@@@std@@IBEAAPAU_Node@?$_Tree_nod@V?$_Tmap_traits@HUtagKeyWordAndThreshold@VA@@U?$less@H@std@@V?$allocator@U?$pair@$$CBHUtagKeyWordAndThreshold@VA@@@std@@@4@$0A@@std@@@2@XZ 100d0760 f i CIssSr.obj
 0002:00021790       ?_Tidy@?$_Tree@V?$_Tmap_traits@HUtagKeyWordAndThreshold@VA@@U?$less@H@std@@V?$allocator@U?$pair@$$CBHUtagKeyWordAndThreshold@VA@@@std@@@4@$0A@@std@@@std@@IAEXXZ 100d0790 f i CIssSr.obj
 0002:000218a0       ??1?$_Container_base_aux_alloc_real@V?$allocator@U?$pair@$$CBHUtagKeyWordAndThreshold@VA@@@std@@@std@@@std@@IAE@XZ 100d08a0 f i CIssSr.obj
 0002:00021920       ??0?$allocator@U?$pair@$$CBHUtagKeyWordAndThreshold@VA@@@std@@@std@@QAE@XZ 100d0920 f i CIssSr.obj
 0002:00021940       ??R?$less@H@std@@QBE_NABH0@Z 100d0940 f i CIssSr.obj
 0002:00021970       ?_Key@?$_Tree@V?$_Tmap_traits@IUtagMvwScene@VA@@U?$less@I@std@@V?$allocator@U?$pair@$$CBIUtagMvwScene@VA@@@std@@@4@$0A@@std@@@std@@KAABIPAU_Node@?$_Tree_nod@V?$_Tmap_traits@IUtagMvwScene@VA@@U?$less@I@std@@V?$allocator@U?$pair@$$CBIUtagMvwScene@VA@@@std@@@4@$0A@@std@@@2@@Z 100d0970 f i CIssSr.obj
 0002:000219a0       ?lower_bound@?$_Tree@V?$_Tmap_traits@IUtagMvwScene@VA@@U?$less@I@std@@V?$allocator@U?$pair@$$CBIUtagMvwScene@VA@@@std@@@4@$0A@@std@@@std@@QAE?AViterator@12@ABI@Z 100d09a0 f i CIssSr.obj
 0002:000219e0       ?_Lmost@?$_Tree@V?$_Tmap_traits@IUtagMvwScene@VA@@U?$less@I@std@@V?$allocator@U?$pair@$$CBIUtagMvwScene@VA@@@std@@@4@$0A@@std@@@std@@IBEAAPAU_Node@?$_Tree_nod@V?$_Tmap_traits@IUtagMvwScene@VA@@U?$less@I@std@@V?$allocator@U?$pair@$$CBIUtagMvwScene@VA@@@std@@@4@$0A@@std@@@2@XZ 100d09e0 f i CIssSr.obj
 0002:00021a10       ??R?$less@I@std@@QBE_NABI0@Z 100d0a10 f i CIssSr.obj
 0002:00021a40       ?title@?$Log_Cfg_T@VLog_Cfg_Heap_Reg@VA@@ULog_Cfg@2@@VA@@QAEXPBD@Z 100d0a40 f i CIssSr.obj
 0002:00021a80       ??0iterator@?$_Tree@V?$_Tmap_traits@IUtagMvwScene@VA@@U?$less@I@std@@V?$allocator@U?$pair@$$CBIUtagMvwScene@VA@@@std@@@4@$0A@@std@@@std@@QAE@PAU_Node@?$_Tree_nod@V?$_Tmap_traits@IUtagMvwScene@VA@@U?$less@I@std@@V?$allocator@U?$pair@$$CBIUtagMvwScene@VA@@@std@@@4@$0A@@std@@@2@PBV12@@Z 100d0a80 f i CIssSr.obj
 0002:00021ac0       ??Diterator@?$_Tree@V?$_Tmap_traits@IUtagMvwScene@VA@@U?$less@I@std@@V?$allocator@U?$pair@$$CBIUtagMvwScene@VA@@@std@@@4@$0A@@std@@@std@@QBEAAU?$pair@$$CBIUtagMvwScene@VA@@@2@XZ 100d0ac0 f i CIssSr.obj
 0002:00021af0       ??Econst_iterator@?$_Tree@V?$_Tmap_traits@IUtagMvwScene@VA@@U?$less@I@std@@V?$allocator@U?$pair@$$CBIUtagMvwScene@VA@@@std@@@4@$0A@@std@@@std@@QAEAAV012@XZ 100d0af0 f i CIssSr.obj
 0002:00021b20       ??8const_iterator@?$_Tree@V?$_Tmap_traits@IUtagMvwScene@VA@@U?$less@I@std@@V?$allocator@U?$pair@$$CBIUtagMvwScene@VA@@@std@@@4@$0A@@std@@@std@@QBE_NABV012@@Z 100d0b20 f i CIssSr.obj
 0002:00021b90       ?_Same_container@_Iterator_base_aux@std@@QBE_NABV12@@Z 100d0b90 f i CIssSr.obj
 0002:00021bc0       ?_Has_container@_Iterator_base_aux@std@@QBE_NXZ 100d0bc0 f i CIssSr.obj
 0002:00021bf0       ?_Mynode@const_iterator@?$_Tree@V?$_Tmap_traits@IUtagMvwScene@VA@@U?$less@I@std@@V?$allocator@U?$pair@$$CBIUtagMvwScene@VA@@@std@@@4@$0A@@std@@@std@@QBEPAU_Node@?$_Tree_nod@V?$_Tmap_traits@IUtagMvwScene@VA@@U?$less@I@std@@V?$allocator@U?$pair@$$CBIUtagMvwScene@VA@@@std@@@4@$0A@@std@@@3@XZ 100d0bf0 f i CIssSr.obj
 0002:00021c10       ??0iterator@?$_Tree@V?$_Tmap_traits@HUtagKeyWordAndThreshold@VA@@U?$less@H@std@@V?$allocator@U?$pair@$$CBHUtagKeyWordAndThreshold@VA@@@std@@@4@$0A@@std@@@std@@QAE@PAU_Node@?$_Tree_nod@V?$_Tmap_traits@HUtagKeyWordAndThreshold@VA@@U?$less@H@std@@V?$allocator@U?$pair@$$CBHUtagKeyWordAndThreshold@VA@@@std@@@4@$0A@@std@@@2@PBV12@@Z 100d0c10 f i CIssSr.obj
 0002:00021c50       ??Diterator@?$_Tree@V?$_Tmap_traits@HUtagKeyWordAndThreshold@VA@@U?$less@H@std@@V?$allocator@U?$pair@$$CBHUtagKeyWordAndThreshold@VA@@@std@@@4@$0A@@std@@@std@@QBEAAU?$pair@$$CBHUtagKeyWordAndThreshold@VA@@@2@XZ 100d0c50 f i CIssSr.obj
 0002:00021c80       ??8const_iterator@?$_Tree@V?$_Tmap_traits@HUtagKeyWordAndThreshold@VA@@U?$less@H@std@@V?$allocator@U?$pair@$$CBHUtagKeyWordAndThreshold@VA@@@std@@@4@$0A@@std@@@std@@QBE_NABV012@@Z 100d0c80 f i CIssSr.obj
 0002:00021cf0       ?_Mynode@const_iterator@?$_Tree@V?$_Tmap_traits@HUtagKeyWordAndThreshold@VA@@U?$less@H@std@@V?$allocator@U?$pair@$$CBHUtagKeyWordAndThreshold@VA@@@std@@@4@$0A@@std@@@std@@QBEPAU_Node@?$_Tree_nod@V?$_Tmap_traits@HUtagKeyWordAndThreshold@VA@@U?$less@H@std@@V?$allocator@U?$pair@$$CBHUtagKeyWordAndThreshold@VA@@@std@@@4@$0A@@std@@@3@XZ 100d0cf0 f i CIssSr.obj
 0002:00021d10       ??0?$_Iterator@$00@?$list@UServicesSearchContactsItem@VA@@V?$allocator@UServicesSearchContactsItem@VA@@@std@@@std@@QAE@PAU_Node@?$_List_nod@UServicesSearchContactsItem@VA@@V?$allocator@UServicesSearchContactsItem@VA@@@std@@@2@PBV12@@Z 100d0d10 f i CIssSr.obj
 0002:00021d50       ??D?$_Iterator@$00@?$list@UServicesSearchContactsItem@VA@@V?$allocator@UServicesSearchContactsItem@VA@@@std@@@std@@QBEAAUServicesSearchContactsItem@VA@@XZ 100d0d50 f i CIssSr.obj
 0002:00021d80       ??E?$_Const_iterator@$00@?$list@UServicesSearchContactsItem@VA@@V?$allocator@UServicesSearchContactsItem@VA@@@std@@@std@@QAEAAV012@XZ 100d0d80 f i CIssSr.obj
 0002:00021e20       ?_Getmycont@_Iterator_base_aux@std@@QBEPBV_Container_base_aux@2@XZ 100d0e20 f i CIssSr.obj
 0002:00021e70       ?_Getcont@_Aux_cont@std@@QBEPBV_Container_base_aux@2@XZ 100d0e70 f i CIssSr.obj
 0002:00021e90       ??8?$_Const_iterator@$00@?$list@UServicesSearchContactsItem@VA@@V?$allocator@UServicesSearchContactsItem@VA@@@std@@@std@@QBE_NABV012@@Z 100d0e90 f i CIssSr.obj
 0002:00021f10       ??Diterator@?$_Tree@V?$_Tmap_traits@V?$basic_string@DU?$char_traits@D@std@@V?$allocator@D@2@@std@@VSrScene@VA@@U?$less@V?$basic_string@DU?$char_traits@D@std@@V?$allocator@D@2@@std@@@2@V?$allocator@U?$pair@$$CBV?$basic_string@DU?$char_traits@D@std@@V?$allocator@D@2@@std@@VSrScene@VA@@@std@@@2@$0A@@std@@@std@@QBEAAU?$pair@$$CBV?$basic_string@DU?$char_traits@D@std@@V?$allocator@D@2@@std@@VSrScene@VA@@@2@XZ 100d0f10 f i CIssSr.obj
 0002:00021f40       ??8const_iterator@?$_Tree@V?$_Tmap_traits@V?$basic_string@DU?$char_traits@D@std@@V?$allocator@D@2@@std@@VSrScene@VA@@U?$less@V?$basic_string@DU?$char_traits@D@std@@V?$allocator@D@2@@std@@@2@V?$allocator@U?$pair@$$CBV?$basic_string@DU?$char_traits@D@std@@V?$allocator@D@2@@std@@VSrScene@VA@@@std@@@2@$0A@@std@@@std@@QBE_NABV012@@Z 100d0f40 f i CIssSr.obj
 0002:00021fb0       ?_Mynode@const_iterator@?$_Tree@V?$_Tmap_traits@V?$basic_string@DU?$char_traits@D@std@@V?$allocator@D@2@@std@@VSrScene@VA@@U?$less@V?$basic_string@DU?$char_traits@D@std@@V?$allocator@D@2@@std@@@2@V?$allocator@U?$pair@$$CBV?$basic_string@DU?$char_traits@D@std@@V?$allocator@D@2@@std@@VSrScene@VA@@@std@@@2@$0A@@std@@@std@@QBEPAU_Node@?$_Tree_nod@V?$_Tmap_traits@V?$basic_string@DU?$char_traits@D@std@@V?$allocator@D@2@@std@@VSrScene@VA@@U?$less@V?$basic_string@DU?$char_traits@D@std@@V?$allocator@D@2@@std@@@2@V?$allocator@U?$pair@$$CBV?$basic_string@DU?$char_traits@D@std@@V?$allocator@D@2@@std@@VSrScene@VA@@@std@@@2@$0A@@std@@@3@XZ 100d0fb0 f i CIssSr.obj
 0002:00021fd0       ??0?$pair@$$CBV?$basic_string@DU?$char_traits@D@std@@V?$allocator@D@2@@std@@VSrScene@VA@@@std@@QAE@ABV?$basic_string@DU?$char_traits@D@std@@V?$allocator@D@2@@1@ABVSrScene@VA@@@Z 100d0fd0 f i CIssSr.obj
 0002:00022060       ??0?$pair@$$CBHUtagKeyWordAndThreshold@VA@@@std@@QAE@ABHABUtagKeyWordAndThreshold@VA@@@Z 100d1060 f i CIssSr.obj
 0002:000220a0       ??0SrScene@VA@@QAE@ABV01@@Z 100d10a0 f i CIssSr.obj
 0002:00022170       ??0tagKeyWordAndThreshold@VA@@QAE@ABU01@@Z 100d1170 f i CIssSr.obj
 0002:000221b0       ?deallocate@?$allocator@V_Aux_cont@std@@@std@@QAEXPAV_Aux_cont@2@I@Z 100d11b0 f i CIssSr.obj
 0002:000221e0       ?empty@?$deque@PAVValue@Json@VA@@V?$allocator@PAVValue@Json@VA@@@std@@@std@@QBE_NXZ 100d11e0 f i CIssSr.obj
 0002:00022210       ?pop_back@?$deque@PAVValue@Json@VA@@V?$allocator@PAVValue@Json@VA@@@std@@@std@@QAEXXZ 100d1210 f i CIssSr.obj
 0002:000222e0       ?deallocate@?$allocator@PAVValue@Json@VA@@@std@@QAEXPAPAVValue@Json@VA@@I@Z 100d12e0 f i CIssSr.obj
 0002:00022310       ?deallocate@?$allocator@PAPAVValue@Json@VA@@@std@@QAEXPAPAPAVValue@Json@VA@@I@Z 100d1310 f i CIssSr.obj
 0002:00022340       ?destroy@?$allocator@PAPAVValue@Json@VA@@@std@@QAEXPAPAPAVValue@Json@VA@@@Z 100d1340 f i CIssSr.obj
 0002:00022370       ?empty@?$deque@VErrorInfo@Reader@Json@VA@@V?$allocator@VErrorInfo@Reader@Json@VA@@@std@@@std@@QBE_NXZ 100d1370 f i CIssSr.obj
 0002:000223a0       ?pop_back@?$deque@VErrorInfo@Reader@Json@VA@@V?$allocator@VErrorInfo@Reader@Json@VA@@@std@@@std@@QAEXXZ 100d13a0 f i CIssSr.obj
 0002:00022470       ?deallocate@?$allocator@VErrorInfo@Reader@Json@VA@@@std@@QAEXPAVErrorInfo@Reader@Json@VA@@I@Z 100d1470 f i CIssSr.obj
 0002:000224a0       ?deallocate@?$allocator@PAVErrorInfo@Reader@Json@VA@@@std@@QAEXPAPAVErrorInfo@Reader@Json@VA@@I@Z 100d14a0 f i CIssSr.obj
 0002:000224d0       ?destroy@?$allocator@PAVErrorInfo@Reader@Json@VA@@@std@@QAEXPAPAVErrorInfo@Reader@Json@VA@@@Z 100d14d0 f i CIssSr.obj
 0002:00022500       ?max_size@?$vector@V?$basic_string@DU?$char_traits@D@std@@V?$allocator@D@2@@std@@V?$allocator@V?$basic_string@DU?$char_traits@D@std@@V?$allocator@D@2@@std@@@2@@std@@QBEIXZ 100d1500 f i CIssSr.obj
 0002:00022530       ?_Destroy@?$vector@V?$basic_string@DU?$char_traits@D@std@@V?$allocator@D@2@@std@@V?$allocator@V?$basic_string@DU?$char_traits@D@std@@V?$allocator@D@2@@std@@@2@@std@@IAEXPAV?$basic_string@DU?$char_traits@D@std@@V?$allocator@D@2@@2@0@Z 100d1530 f i CIssSr.obj
 0002:00022570       ?_Xlen@?$vector@V?$basic_string@DU?$char_traits@D@std@@V?$allocator@D@2@@std@@V?$allocator@V?$basic_string@DU?$char_traits@D@std@@V?$allocator@D@2@@std@@@2@@std@@KAXXZ 100d1570 f i CIssSr.obj
 0002:00022620       ??0length_error@std@@QAE@ABV?$basic_string@DU?$char_traits@D@std@@V?$allocator@D@2@@1@@Z 100d1620 f i CIssSr.obj
 0002:00022660       ??0logic_error@std@@QAE@ABV?$basic_string@DU?$char_traits@D@std@@V?$allocator@D@2@@1@@Z 100d1660 f i CIssSr.obj
 0002:000226f0       ?what@logic_error@std@@UBEPBDXZ 100d16f0 f i CIssSr.obj
 0002:00022720       ??_Elogic_error@std@@UAEPAXI@Z 100d1720 f i CIssSr.obj
 0002:00022720       ??_Glogic_error@std@@UAEPAXI@Z 100d1720 f i CIssSr.obj
 0002:00022770       ??1logic_error@std@@UAE@XZ 100d1770 f i CIssSr.obj
 0002:000227b0       ??1length_error@std@@UAE@XZ 100d17b0 f i CIssSr.obj
 0002:000227e0       ??_Elength_error@std@@UAEPAXI@Z 100d17e0 f i CIssSr.obj
 0002:000227e0       ??_Glength_error@std@@UAEPAXI@Z 100d17e0 f i CIssSr.obj
 0002:00022830       ??0logic_error@std@@QAE@ABV01@@Z 100d1830 f i CIssSr.obj
 0002:000228d0       ??0?$_Container_base_aux_alloc_real@V?$allocator@V?$basic_string@DU?$char_traits@D@std@@V?$allocator@D@2@@std@@@std@@@std@@IAE@V?$allocator@V?$basic_string@DU?$char_traits@D@std@@V?$allocator@D@2@@std@@@1@@Z 100d18d0 f i CIssSr.obj
 0002:000229c0       ??2@YAPAXIPAX@Z            100d19c0 f i CIssSr.obj
 0002:000229e0       ??3@YAXPAX0@Z              100d19e0 f i CIssSr.obj
 0002:00022a00       ??0_Aux_cont@std@@QAE@QBV_Container_base_aux@1@@Z 100d1a00 f i CIssSr.obj
 0002:00022a30       ??0_Container_base_aux@std@@QAE@XZ 100d1a30 f i CIssSr.obj
 0002:00022a50       ??0?$allocator@V?$basic_string@DU?$char_traits@D@std@@V?$allocator@D@2@@std@@@std@@QAE@ABV01@@Z 100d1a50 f i CIssSr.obj
 0002:00022a70       ?deallocate@?$allocator@V?$basic_string@DU?$char_traits@D@std@@V?$allocator@D@2@@std@@@std@@QAEXPAV?$basic_string@DU?$char_traits@D@std@@V?$allocator@D@2@@2@I@Z 100d1a70 f i CIssSr.obj
 0002:00022aa0       ?allocate@?$allocator@V?$basic_string@DU?$char_traits@D@std@@V?$allocator@D@2@@std@@@std@@QAEPAV?$basic_string@DU?$char_traits@D@std@@V?$allocator@D@2@@2@I@Z 100d1aa0 f i CIssSr.obj
 0002:00022ad0       ?_Isnil@?$_Tree@V?$_Tmap_traits@V?$basic_string@DU?$char_traits@D@std@@V?$allocator@D@2@@std@@VSrScene@VA@@U?$less@V?$basic_string@DU?$char_traits@D@std@@V?$allocator@D@2@@std@@@2@V?$allocator@U?$pair@$$CBV?$basic_string@DU?$char_traits@D@std@@V?$allocator@D@2@@std@@VSrScene@VA@@@std@@@2@$0A@@std@@@std@@KAAADPAU_Node@?$_Tree_nod@V?$_Tmap_traits@V?$basic_string@DU?$char_traits@D@std@@V?$allocator@D@2@@std@@VSrScene@VA@@U?$less@V?$basic_string@DU?$char_traits@D@std@@V?$allocator@D@2@@std@@@2@V?$allocator@U?$pair@$$CBV?$basic_string@DU?$char_traits@D@std@@V?$allocator@D@2@@std@@VSrScene@VA@@@std@@@2@$0A@@std@@@2@@Z 100d1ad0 f i CIssSr.obj
 0002:00022af0       ?_Right@?$_Tree@V?$_Tmap_traits@V?$basic_string@DU?$char_traits@D@std@@V?$allocator@D@2@@std@@VSrScene@VA@@U?$less@V?$basic_string@DU?$char_traits@D@std@@V?$allocator@D@2@@std@@@2@V?$allocator@U?$pair@$$CBV?$basic_string@DU?$char_traits@D@std@@V?$allocator@D@2@@std@@VSrScene@VA@@@std@@@2@$0A@@std@@@std@@KAAAPAU_Node@?$_Tree_nod@V?$_Tmap_traits@V?$basic_string@DU?$char_traits@D@std@@V?$allocator@D@2@@std@@VSrScene@VA@@U?$less@V?$basic_string@DU?$char_traits@D@std@@V?$allocator@D@2@@std@@@2@V?$allocator@U?$pair@$$CBV?$basic_string@DU?$char_traits@D@std@@V?$allocator@D@2@@std@@VSrScene@VA@@@std@@@2@$0A@@std@@@2@PAU342@@Z 100d1af0 f i CIssSr.obj
 0002:00022b10       ?_Myval@?$_Tree@V?$_Tmap_traits@V?$basic_string@DU?$char_traits@D@std@@V?$allocator@D@2@@std@@VSrScene@VA@@U?$less@V?$basic_string@DU?$char_traits@D@std@@V?$allocator@D@2@@std@@@2@V?$allocator@U?$pair@$$CBV?$basic_string@DU?$char_traits@D@std@@V?$allocator@D@2@@std@@VSrScene@VA@@@std@@@2@$0A@@std@@@std@@KAAAU?$pair@$$CBV?$basic_string@DU?$char_traits@D@std@@V?$allocator@D@2@@std@@VSrScene@VA@@@2@PAU_Node@?$_Tree_nod@V?$_Tmap_traits@V?$basic_string@DU?$char_traits@D@std@@V?$allocator@D@2@@std@@VSrScene@VA@@U?$less@V?$basic_string@DU?$char_traits@D@std@@V?$allocator@D@2@@std@@@2@V?$allocator@U?$pair@$$CBV?$basic_string@DU?$char_traits@D@std@@V?$allocator@D@2@@std@@VSrScene@VA@@@std@@@2@$0A@@std@@@2@@Z 100d1b10 f i CIssSr.obj
 0002:00022b30       ?begin@?$_Tree@V?$_Tmap_traits@V?$basic_string@DU?$char_traits@D@std@@V?$allocator@D@2@@std@@VSrScene@VA@@U?$less@V?$basic_string@DU?$char_traits@D@std@@V?$allocator@D@2@@std@@@2@V?$allocator@U?$pair@$$CBV?$basic_string@DU?$char_traits@D@std@@V?$allocator@D@2@@std@@VSrScene@VA@@@std@@@2@$0A@@std@@@std@@QAE?AViterator@12@XZ 100d1b30 f i CIssSr.obj
 0002:00022b70       ?size@?$_Tree@V?$_Tmap_traits@V?$basic_string@DU?$char_traits@D@std@@V?$allocator@D@2@@std@@VSrScene@VA@@U?$less@V?$basic_string@DU?$char_traits@D@std@@V?$allocator@D@2@@std@@@2@V?$allocator@U?$pair@$$CBV?$basic_string@DU?$char_traits@D@std@@V?$allocator@D@2@@std@@VSrScene@VA@@@std@@@2@$0A@@std@@@std@@QBEIXZ 100d1b70 f i CIssSr.obj
 0002:00022b90       ?insert@?$_Tree@V?$_Tmap_traits@V?$basic_string@DU?$char_traits@D@std@@V?$allocator@D@2@@std@@VSrScene@VA@@U?$less@V?$basic_string@DU?$char_traits@D@std@@V?$allocator@D@2@@std@@@2@V?$allocator@U?$pair@$$CBV?$basic_string@DU?$char_traits@D@std@@V?$allocator@D@2@@std@@VSrScene@VA@@@std@@@2@$0A@@std@@@std@@QAE?AU?$pair@Viterator@?$_Tree@V?$_Tmap_traits@V?$basic_string@DU?$char_traits@D@std@@V?$allocator@D@2@@std@@VSrScene@VA@@U?$less@V?$basic_string@DU?$char_traits@D@std@@V?$allocator@D@2@@std@@@2@V?$allocator@U?$pair@$$CBV?$basic_string@DU?$char_traits@D@std@@V?$allocator@D@2@@std@@VSrScene@VA@@@std@@@2@$0A@@std@@@std@@_N@2@ABU?$pair@$$CBV?$basic_string@DU?$char_traits@D@std@@V?$allocator@D@2@@std@@VSrScene@VA@@@2@@Z 100d1b90 f i CIssSr.obj
 0002:00022df0       ?_Insert@?$_Tree@V?$_Tmap_traits@V?$basic_string@DU?$char_traits@D@std@@V?$allocator@D@2@@std@@VSrScene@VA@@U?$less@V?$basic_string@DU?$char_traits@D@std@@V?$allocator@D@2@@std@@@2@V?$allocator@U?$pair@$$CBV?$basic_string@DU?$char_traits@D@std@@V?$allocator@D@2@@std@@VSrScene@VA@@@std@@@2@$0A@@std@@@std@@IAE?AViterator@12@_NPAU_Node@?$_Tree_nod@V?$_Tmap_traits@V?$basic_string@DU?$char_traits@D@std@@V?$allocator@D@2@@std@@VSrScene@VA@@U?$less@V?$basic_string@DU?$char_traits@D@std@@V?$allocator@D@2@@std@@@2@V?$allocator@U?$pair@$$CBV?$basic_string@DU?$char_traits@D@std@@V?$allocator@D@2@@std@@VSrScene@VA@@@std@@@2@$0A@@std@@@2@ABU?$pair@$$CBV?$basic_string@DU?$char_traits@D@std@@V?$allocator@D@2@@std@@VSrScene@VA@@@2@@Z 100d1df0 f i CIssSr.obj
 0002:000233a0       ?_Lbound@?$_Tree@V?$_Tmap_traits@V?$basic_string@DU?$char_traits@D@std@@V?$allocator@D@2@@std@@VSrScene@VA@@U?$less@V?$basic_string@DU?$char_traits@D@std@@V?$allocator@D@2@@std@@@2@V?$allocator@U?$pair@$$CBV?$basic_string@DU?$char_traits@D@std@@V?$allocator@D@2@@std@@VSrScene@VA@@@std@@@2@$0A@@std@@@std@@IBEPAU_Node@?$_Tree_nod@V?$_Tmap_traits@V?$basic_string@DU?$char_traits@D@std@@V?$allocator@D@2@@std@@VSrScene@VA@@U?$less@V?$basic_string@DU?$char_traits@D@std@@V?$allocator@D@2@@std@@@2@V?$allocator@U?$pair@$$CBV?$basic_string@DU?$char_traits@D@std@@V?$allocator@D@2@@std@@VSrScene@VA@@@std@@@2@$0A@@std@@@2@ABV?$basic_string@DU?$char_traits@D@std@@V?$allocator@D@2@@2@@Z 100d23a0 f i CIssSr.obj
 0002:00023460       ?_Rmost@?$_Tree@V?$_Tmap_traits@V?$basic_string@DU?$char_traits@D@std@@V?$allocator@D@2@@std@@VSrScene@VA@@U?$less@V?$basic_string@DU?$char_traits@D@std@@V?$allocator@D@2@@std@@@2@V?$allocator@U?$pair@$$CBV?$basic_string@DU?$char_traits@D@std@@V?$allocator@D@2@@std@@VSrScene@VA@@@std@@@2@$0A@@std@@@std@@IBEAAPAU_Node@?$_Tree_nod@V?$_Tmap_traits@V?$basic_string@DU?$char_traits@D@std@@V?$allocator@D@2@@std@@VSrScene@VA@@U?$less@V?$basic_string@DU?$char_traits@D@std@@V?$allocator@D@2@@std@@@2@V?$allocator@U?$pair@$$CBV?$basic_string@DU?$char_traits@D@std@@V?$allocator@D@2@@std@@VSrScene@VA@@@std@@@2@$0A@@std@@@2@XZ 100d2460 f i CIssSr.obj
 0002:00023490       ?_Kfn@?$_Tmap_traits@V?$basic_string@DU?$char_traits@D@std@@V?$allocator@D@2@@std@@VSrScene@VA@@U?$less@V?$basic_string@DU?$char_traits@D@std@@V?$allocator@D@2@@std@@@2@V?$allocator@U?$pair@$$CBV?$basic_string@DU?$char_traits@D@std@@V?$allocator@D@2@@std@@VSrScene@VA@@@std@@@2@$0A@@std@@SAABV?$basic_string@DU?$char_traits@D@std@@V?$allocator@D@2@@2@ABU?$pair@$$CBV?$basic_string@DU?$char_traits@D@std@@V?$allocator@D@2@@std@@VSrScene@VA@@@2@@Z 100d2490 f i CIssSr.obj
 0002:000234b0       ?_Isnil@?$_Tree@V?$_Tmap_traits@HUtagKeyWordAndThreshold@VA@@U?$less@H@std@@V?$allocator@U?$pair@$$CBHUtagKeyWordAndThreshold@VA@@@std@@@4@$0A@@std@@@std@@KAAADPAU_Node@?$_Tree_nod@V?$_Tmap_traits@HUtagKeyWordAndThreshold@VA@@U?$less@H@std@@V?$allocator@U?$pair@$$CBHUtagKeyWordAndThreshold@VA@@@std@@@4@$0A@@std@@@2@@Z 100d24b0 f i CIssSr.obj
 0002:000234d0       ?_Left@?$_Tree@V?$_Tmap_traits@HUtagKeyWordAndThreshold@VA@@U?$less@H@std@@V?$allocator@U?$pair@$$CBHUtagKeyWordAndThreshold@VA@@@std@@@4@$0A@@std@@@std@@KAAAPAU_Node@?$_Tree_nod@V?$_Tmap_traits@HUtagKeyWordAndThreshold@VA@@U?$less@H@std@@V?$allocator@U?$pair@$$CBHUtagKeyWordAndThreshold@VA@@@std@@@4@$0A@@std@@@2@PAU342@@Z 100d24d0 f i CIssSr.obj
 0002:000234f0       ?_Parent@?$_Tree@V?$_Tmap_traits@HUtagKeyWordAndThreshold@VA@@U?$less@H@std@@V?$allocator@U?$pair@$$CBHUtagKeyWordAndThreshold@VA@@@std@@@4@$0A@@std@@@std@@KAAAPAU_Node@?$_Tree_nod@V?$_Tmap_traits@HUtagKeyWordAndThreshold@VA@@U?$less@H@std@@V?$allocator@U?$pair@$$CBHUtagKeyWordAndThreshold@VA@@@std@@@4@$0A@@std@@@2@PAU342@@Z 100d24f0 f i CIssSr.obj
 0002:00023510       ?_Right@?$_Tree@V?$_Tmap_traits@HUtagKeyWordAndThreshold@VA@@U?$less@H@std@@V?$allocator@U?$pair@$$CBHUtagKeyWordAndThreshold@VA@@@std@@@4@$0A@@std@@@std@@KAAAPAU_Node@?$_Tree_nod@V?$_Tmap_traits@HUtagKeyWordAndThreshold@VA@@U?$less@H@std@@V?$allocator@U?$pair@$$CBHUtagKeyWordAndThreshold@VA@@@std@@@4@$0A@@std@@@2@PAU342@@Z 100d2510 f i CIssSr.obj
 0002:00023530       ?_Myval@?$_Tree@V?$_Tmap_traits@HUtagKeyWordAndThreshold@VA@@U?$less@H@std@@V?$allocator@U?$pair@$$CBHUtagKeyWordAndThreshold@VA@@@std@@@4@$0A@@std@@@std@@KAAAU?$pair@$$CBHUtagKeyWordAndThreshold@VA@@@2@PAU_Node@?$_Tree_nod@V?$_Tmap_traits@HUtagKeyWordAndThreshold@VA@@U?$less@H@std@@V?$allocator@U?$pair@$$CBHUtagKeyWordAndThreshold@VA@@@std@@@4@$0A@@std@@@2@@Z 100d2530 f i CIssSr.obj
 0002:00023550       ?_Make_iter@?$_Tree@V?$_Tmap_traits@HUtagKeyWordAndThreshold@VA@@U?$less@H@std@@V?$allocator@U?$pair@$$CBHUtagKeyWordAndThreshold@VA@@@std@@@4@$0A@@std@@@std@@QBE?AViterator@12@Vconst_iterator@12@@Z 100d2550 f i CIssSr.obj
 0002:000235a0       ?size@?$_Tree@V?$_Tmap_traits@HUtagKeyWordAndThreshold@VA@@U?$less@H@std@@V?$allocator@U?$pair@$$CBHUtagKeyWordAndThreshold@VA@@@std@@@4@$0A@@std@@@std@@QBEIXZ 100d25a0 f i CIssSr.obj
 0002:000235c0       ?insert@?$_Tree@V?$_Tmap_traits@HUtagKeyWordAndThreshold@VA@@U?$less@H@std@@V?$allocator@U?$pair@$$CBHUtagKeyWordAndThreshold@VA@@@std@@@4@$0A@@std@@@std@@QAE?AU?$pair@Viterator@?$_Tree@V?$_Tmap_traits@HUtagKeyWordAndThreshold@VA@@U?$less@H@std@@V?$allocator@U?$pair@$$CBHUtagKeyWordAndThreshold@VA@@@std@@@4@$0A@@std@@@std@@_N@2@ABU?$pair@$$CBHUtagKeyWordAndThreshold@VA@@@2@@Z 100d25c0 f i CIssSr.obj
 0002:00023820       ?erase@?$_Tree@V?$_Tmap_traits@HUtagKeyWordAndThreshold@VA@@U?$less@H@std@@V?$allocator@U?$pair@$$CBHUtagKeyWordAndThreshold@VA@@@std@@@4@$0A@@std@@@std@@QAE?AViterator@12@Vconst_iterator@12@@Z 100d2820 f i CIssSr.obj
 0002:00024210       ??0out_of_range@std@@QAE@ABV?$basic_string@DU?$char_traits@D@std@@V?$allocator@D@2@@1@@Z 100d3210 f i CIssSr.obj
 0002:00024250       ??1out_of_range@std@@UAE@XZ 100d3250 f i CIssSr.obj
 0002:00024280       ??_Gout_of_range@std@@UAEPAXI@Z 100d3280 f i CIssSr.obj
 0002:00024280       ??_Eout_of_range@std@@UAEPAXI@Z 100d3280 f i CIssSr.obj
 0002:000242d0       ??0out_of_range@std@@QAE@ABV01@@Z 100d32d0 f i CIssSr.obj
 0002:00024310       ?_Copy@?$_Tree@V?$_Tmap_traits@HUtagKeyWordAndThreshold@VA@@U?$less@H@std@@V?$allocator@U?$pair@$$CBHUtagKeyWordAndThreshold@VA@@@std@@@4@$0A@@std@@@std@@IAEPAU_Node@?$_Tree_nod@V?$_Tmap_traits@HUtagKeyWordAndThreshold@VA@@U?$less@H@std@@V?$allocator@U?$pair@$$CBHUtagKeyWordAndThreshold@VA@@@std@@@4@$0A@@std@@@2@PAU342@0@Z 100d3310 f i CIssSr.obj
 0002:000244d0       ?_Init@?$_Tree@V?$_Tmap_traits@HUtagKeyWordAndThreshold@VA@@U?$less@H@std@@V?$allocator@U?$pair@$$CBHUtagKeyWordAndThreshold@VA@@@std@@@4@$0A@@std@@@std@@IAEXXZ 100d34d0 f i CIssSr.obj
 0002:00024560       ?_Insert@?$_Tree@V?$_Tmap_traits@HUtagKeyWordAndThreshold@VA@@U?$less@H@std@@V?$allocator@U?$pair@$$CBHUtagKeyWordAndThreshold@VA@@@std@@@4@$0A@@std@@@std@@IAE?AViterator@12@_NPAU_Node@?$_Tree_nod@V?$_Tmap_traits@HUtagKeyWordAndThreshold@VA@@U?$less@H@std@@V?$allocator@U?$pair@$$CBHUtagKeyWordAndThreshold@VA@@@std@@@4@$0A@@std@@@2@ABU?$pair@$$CBHUtagKeyWordAndThreshold@VA@@@2@@Z 100d3560 f i CIssSr.obj
 0002:00024b10       ?_Lbound@?$_Tree@V?$_Tmap_traits@HUtagKeyWordAndThreshold@VA@@U?$less@H@std@@V?$allocator@U?$pair@$$CBHUtagKeyWordAndThreshold@VA@@@std@@@4@$0A@@std@@@std@@IBEPAU_Node@?$_Tree_nod@V?$_Tmap_traits@HUtagKeyWordAndThreshold@VA@@U?$less@H@std@@V?$allocator@U?$pair@$$CBHUtagKeyWordAndThreshold@VA@@@std@@@4@$0A@@std@@@2@ABH@Z 100d3b10 f i CIssSr.obj
 0002:00024bd0       ?_Max@?$_Tree@V?$_Tmap_traits@HUtagKeyWordAndThreshold@VA@@U?$less@H@std@@V?$allocator@U?$pair@$$CBHUtagKeyWordAndThreshold@VA@@@std@@@4@$0A@@std@@@std@@KAPAU_Node@?$_Tree_nod@V?$_Tmap_traits@HUtagKeyWordAndThreshold@VA@@U?$less@H@std@@V?$allocator@U?$pair@$$CBHUtagKeyWordAndThreshold@VA@@@std@@@4@$0A@@std@@@2@PAU342@@Z 100d3bd0 f i CIssSr.obj
 0002:00024c30       ?_Min@?$_Tree@V?$_Tmap_traits@HUtagKeyWordAndThreshold@VA@@U?$less@H@std@@V?$allocator@U?$pair@$$CBHUtagKeyWordAndThreshold@VA@@@std@@@4@$0A@@std@@@std@@KAPAU_Node@?$_Tree_nod@V?$_Tmap_traits@HUtagKeyWordAndThreshold@VA@@U?$less@H@std@@V?$allocator@U?$pair@$$CBHUtagKeyWordAndThreshold@VA@@@std@@@4@$0A@@std@@@2@PAU342@@Z 100d3c30 f i CIssSr.obj
 0002:00024c90       ??0?$_Tree_val@V?$_Tmap_traits@HUtagKeyWordAndThreshold@VA@@U?$less@H@std@@V?$allocator@U?$pair@$$CBHUtagKeyWordAndThreshold@VA@@@std@@@4@$0A@@std@@@std@@IAE@ABU?$less@H@1@V?$allocator@U?$pair@$$CBHUtagKeyWordAndThreshold@VA@@@std@@@1@@Z 100d3c90 f i CIssSr.obj
 0002:00024cf0       ?_Kfn@?$_Tmap_traits@HUtagKeyWordAndThreshold@VA@@U?$less@H@std@@V?$allocator@U?$pair@$$CBHUtagKeyWordAndThreshold@VA@@@std@@@4@$0A@@std@@SAABHABU?$pair@$$CBHUtagKeyWordAndThreshold@VA@@@2@@Z 100d3cf0 f i CIssSr.obj
 0002:00024d10       ??0?$allocator@U?$pair@$$CBHUtagKeyWordAndThreshold@VA@@@std@@@std@@QAE@ABV01@@Z 100d3d10 f i CIssSr.obj
 0002:00024d30       ?deallocate@?$allocator@U_Node@?$_Tree_nod@V?$_Tmap_traits@HUtagKeyWordAndThreshold@VA@@U?$less@H@std@@V?$allocator@U?$pair@$$CBHUtagKeyWordAndThreshold@VA@@@std@@@4@$0A@@std@@@std@@@std@@QAEXPAU_Node@?$_Tree_nod@V?$_Tmap_traits@HUtagKeyWordAndThreshold@VA@@U?$less@H@std@@V?$allocator@U?$pair@$$CBHUtagKeyWordAndThreshold@VA@@@std@@@4@$0A@@std@@@2@I@Z 100d3d30 f i CIssSr.obj
 0002:00024d60       ?destroy@?$allocator@U_Node@?$_Tree_nod@V?$_Tmap_traits@HUtagKeyWordAndThreshold@VA@@U?$less@H@std@@V?$allocator@U?$pair@$$CBHUtagKeyWordAndThreshold@VA@@@std@@@4@$0A@@std@@@std@@@std@@QAEXPAU_Node@?$_Tree_nod@V?$_Tmap_traits@HUtagKeyWordAndThreshold@VA@@U?$less@H@std@@V?$allocator@U?$pair@$$CBHUtagKeyWordAndThreshold@VA@@@std@@@4@$0A@@std@@@2@@Z 100d3d60 f i CIssSr.obj
 0002:00024d90       ?destroy@?$allocator@PAU_Node@?$_Tree_nod@V?$_Tmap_traits@HUtagKeyWordAndThreshold@VA@@U?$less@H@std@@V?$allocator@U?$pair@$$CBHUtagKeyWordAndThreshold@VA@@@std@@@4@$0A@@std@@@std@@@std@@QAEXPAPAU_Node@?$_Tree_nod@V?$_Tmap_traits@HUtagKeyWordAndThreshold@VA@@U?$less@H@std@@V?$allocator@U?$pair@$$CBHUtagKeyWordAndThreshold@VA@@@std@@@4@$0A@@std@@@2@@Z 100d3d90 f i CIssSr.obj
 0002:00024dc0       ?_Left@?$_Tree@V?$_Tmap_traits@IUtagMvwScene@VA@@U?$less@I@std@@V?$allocator@U?$pair@$$CBIUtagMvwScene@VA@@@std@@@4@$0A@@std@@@std@@KAAAPAU_Node@?$_Tree_nod@V?$_Tmap_traits@IUtagMvwScene@VA@@U?$less@I@std@@V?$allocator@U?$pair@$$CBIUtagMvwScene@VA@@@std@@@4@$0A@@std@@@2@PAU342@@Z 100d3dc0 f i CIssSr.obj
 0002:00024de0       ?_Myval@?$_Tree@V?$_Tmap_traits@IUtagMvwScene@VA@@U?$less@I@std@@V?$allocator@U?$pair@$$CBIUtagMvwScene@VA@@@std@@@4@$0A@@std@@@std@@KAAAU?$pair@$$CBIUtagMvwScene@VA@@@2@PAU_Node@?$_Tree_nod@V?$_Tmap_traits@IUtagMvwScene@VA@@U?$less@I@std@@V?$allocator@U?$pair@$$CBIUtagMvwScene@VA@@@std@@@4@$0A@@std@@@2@@Z 100d3de0 f i CIssSr.obj
 0002:00024e00       ?_Lbound@?$_Tree@V?$_Tmap_traits@IUtagMvwScene@VA@@U?$less@I@std@@V?$allocator@U?$pair@$$CBIUtagMvwScene@VA@@@std@@@4@$0A@@std@@@std@@IBEPAU_Node@?$_Tree_nod@V?$_Tmap_traits@IUtagMvwScene@VA@@U?$less@I@std@@V?$allocator@U?$pair@$$CBIUtagMvwScene@VA@@@std@@@4@$0A@@std@@@2@ABI@Z 100d3e00 f i CIssSr.obj
 0002:00024ec0       ?_Kfn@?$_Tmap_traits@IUtagMvwScene@VA@@U?$less@I@std@@V?$allocator@U?$pair@$$CBIUtagMvwScene@VA@@@std@@@4@$0A@@std@@SAABIABU?$pair@$$CBIUtagMvwScene@VA@@@2@@Z 100d3ec0 f i CIssSr.obj
 0002:00024ee0       ??0const_iterator@?$_Tree@V?$_Tmap_traits@IUtagMvwScene@VA@@U?$less@I@std@@V?$allocator@U?$pair@$$CBIUtagMvwScene@VA@@@std@@@4@$0A@@std@@@std@@QAE@PAU_Node@?$_Tree_nod@V?$_Tmap_traits@IUtagMvwScene@VA@@U?$less@I@std@@V?$allocator@U?$pair@$$CBIUtagMvwScene@VA@@@std@@@4@$0A@@std@@@2@PBV12@@Z 100d3ee0 f i CIssSr.obj
 0002:00024f40       ?_Set_container@_Iterator_base_aux@std@@QAEXQBV_Container_base_aux@2@@Z 100d3f40 f i CIssSr.obj
 0002:00024f70       ??Dconst_iterator@?$_Tree@V?$_Tmap_traits@IUtagMvwScene@VA@@U?$less@I@std@@V?$allocator@U?$pair@$$CBIUtagMvwScene@VA@@@std@@@4@$0A@@std@@@std@@QBEABU?$pair@$$CBIUtagMvwScene@VA@@@2@XZ 100d3f70 f i CIssSr.obj
 0002:00024fe0       ?_Inc@const_iterator@?$_Tree@V?$_Tmap_traits@IUtagMvwScene@VA@@U?$less@I@std@@V?$allocator@U?$pair@$$CBIUtagMvwScene@VA@@@std@@@4@$0A@@std@@@std@@QAEXXZ 100d3fe0 f i CIssSr.obj
 0002:00025100       ??0const_iterator@?$_Tree@V?$_Tmap_traits@HUtagKeyWordAndThreshold@VA@@U?$less@H@std@@V?$allocator@U?$pair@$$CBHUtagKeyWordAndThreshold@VA@@@std@@@4@$0A@@std@@@std@@QAE@XZ 100d4100 f i CIssSr.obj
 0002:00025140       ??0const_iterator@?$_Tree@V?$_Tmap_traits@HUtagKeyWordAndThreshold@VA@@U?$less@H@std@@V?$allocator@U?$pair@$$CBHUtagKeyWordAndThreshold@VA@@@std@@@4@$0A@@std@@@std@@QAE@PAU_Node@?$_Tree_nod@V?$_Tmap_traits@HUtagKeyWordAndThreshold@VA@@U?$less@H@std@@V?$allocator@U?$pair@$$CBHUtagKeyWordAndThreshold@VA@@@std@@@4@$0A@@std@@@2@PBV12@@Z 100d4140 f i CIssSr.obj
 0002:000251a0       ??Dconst_iterator@?$_Tree@V?$_Tmap_traits@HUtagKeyWordAndThreshold@VA@@U?$less@H@std@@V?$allocator@U?$pair@$$CBHUtagKeyWordAndThreshold@VA@@@std@@@4@$0A@@std@@@std@@QBEABU?$pair@$$CBHUtagKeyWordAndThreshold@VA@@@2@XZ 100d41a0 f i CIssSr.obj
 0002:00025210       ??Econst_iterator@?$_Tree@V?$_Tmap_traits@HUtagKeyWordAndThreshold@VA@@U?$less@H@std@@V?$allocator@U?$pair@$$CBHUtagKeyWordAndThreshold@VA@@@std@@@4@$0A@@std@@@std@@QAEAAV012@XZ 100d4210 f i CIssSr.obj
 0002:00025240       ??Econst_iterator@?$_Tree@V?$_Tmap_traits@HUtagKeyWordAndThreshold@VA@@U?$less@H@std@@V?$allocator@U?$pair@$$CBHUtagKeyWordAndThreshold@VA@@@std@@@4@$0A@@std@@@std@@QAE?AV012@H@Z 100d4240 f i CIssSr.obj
 0002:00025290       ??Fconst_iterator@?$_Tree@V?$_Tmap_traits@HUtagKeyWordAndThreshold@VA@@U?$less@H@std@@V?$allocator@U?$pair@$$CBHUtagKeyWordAndThreshold@VA@@@std@@@4@$0A@@std@@@std@@QAEAAV012@XZ 100d4290 f i CIssSr.obj
 0002:000252c0       ??0?$_Const_iterator@$00@?$list@UServicesSearchContactsItem@VA@@V?$allocator@UServicesSearchContactsItem@VA@@@std@@@std@@QAE@PAU_Node@?$_List_nod@UServicesSearchContactsItem@VA@@V?$allocator@UServicesSearchContactsItem@VA@@@std@@@2@PBV12@@Z 100d42c0 f i CIssSr.obj
 0002:00025330       ??D?$_Const_iterator@$00@?$list@UServicesSearchContactsItem@VA@@V?$allocator@UServicesSearchContactsItem@VA@@@std@@@std@@QBEABUServicesSearchContactsItem@VA@@XZ 100d4330 f i CIssSr.obj
 0002:000253c0       ??0iterator@?$_Tree@V?$_Tmap_traits@V?$basic_string@DU?$char_traits@D@std@@V?$allocator@D@2@@std@@VSrScene@VA@@U?$less@V?$basic_string@DU?$char_traits@D@std@@V?$allocator@D@2@@std@@@2@V?$allocator@U?$pair@$$CBV?$basic_string@DU?$char_traits@D@std@@V?$allocator@D@2@@std@@VSrScene@VA@@@std@@@2@$0A@@std@@@std@@QAE@PAU_Node@?$_Tree_nod@V?$_Tmap_traits@V?$basic_string@DU?$char_traits@D@std@@V?$allocator@D@2@@std@@VSrScene@VA@@U?$less@V?$basic_string@DU?$char_traits@D@std@@V?$allocator@D@2@@std@@@2@V?$allocator@U?$pair@$$CBV?$basic_string@DU?$char_traits@D@std@@V?$allocator@D@2@@std@@VSrScene@VA@@@std@@@2@$0A@@std@@@2@PBV12@@Z 100d43c0 f i CIssSr.obj
 0002:00025400       ??0const_iterator@?$_Tree@V?$_Tmap_traits@V?$basic_string@DU?$char_traits@D@std@@V?$allocator@D@2@@std@@VSrScene@VA@@U?$less@V?$basic_string@DU?$char_traits@D@std@@V?$allocator@D@2@@std@@@2@V?$allocator@U?$pair@$$CBV?$basic_string@DU?$char_traits@D@std@@V?$allocator@D@2@@std@@VSrScene@VA@@@std@@@2@$0A@@std@@@std@@QAE@XZ 100d4400 f i CIssSr.obj
 0002:00025440       ??Dconst_iterator@?$_Tree@V?$_Tmap_traits@V?$basic_string@DU?$char_traits@D@std@@V?$allocator@D@2@@std@@VSrScene@VA@@U?$less@V?$basic_string@DU?$char_traits@D@std@@V?$allocator@D@2@@std@@@2@V?$allocator@U?$pair@$$CBV?$basic_string@DU?$char_traits@D@std@@V?$allocator@D@2@@std@@VSrScene@VA@@@std@@@2@$0A@@std@@@std@@QBEABU?$pair@$$CBV?$basic_string@DU?$char_traits@D@std@@V?$allocator@D@2@@std@@VSrScene@VA@@@2@XZ 100d4440 f i CIssSr.obj
 0002:000254b0       ??Econst_iterator@?$_Tree@V?$_Tmap_traits@V?$basic_string@DU?$char_traits@D@std@@V?$allocator@D@2@@std@@VSrScene@VA@@U?$less@V?$basic_string@DU?$char_traits@D@std@@V?$allocator@D@2@@std@@@2@V?$allocator@U?$pair@$$CBV?$basic_string@DU?$char_traits@D@std@@V?$allocator@D@2@@std@@VSrScene@VA@@@std@@@2@$0A@@std@@@std@@QAEAAV012@XZ 100d44b0 f i CIssSr.obj
 0002:000254e0       ??Fconst_iterator@?$_Tree@V?$_Tmap_traits@V?$basic_string@DU?$char_traits@D@std@@V?$allocator@D@2@@std@@VSrScene@VA@@U?$less@V?$basic_string@DU?$char_traits@D@std@@V?$allocator@D@2@@std@@@2@V?$allocator@U?$pair@$$CBV?$basic_string@DU?$char_traits@D@std@@V?$allocator@D@2@@std@@VSrScene@VA@@@std@@@2@$0A@@std@@@std@@QAEAAV012@XZ 100d44e0 f i CIssSr.obj
 0002:00025510       ??0length_error@std@@QAE@ABV01@@Z 100d4510 f i CIssSr.obj
 0002:00025550       ??0?$_Bidit@U?$pair@$$CBIUtagMvwScene@VA@@@std@@HPBU12@ABU12@@std@@QAE@XZ 100d4550 f i CIssSr.obj
 0002:00025580       ??0?$_Bidit@U?$pair@$$CBHUtagKeyWordAndThreshold@VA@@@std@@HPBU12@ABU12@@std@@QAE@XZ 100d4580 f i CIssSr.obj
 0002:000255b0       ??0?$_Bidit@UServicesSearchContactsItem@VA@@HPBU12@ABU12@@std@@QAE@XZ 100d45b0 f i CIssSr.obj
 0002:000255e0       ??0?$_Bidit@U?$pair@$$CBV?$basic_string@DU?$char_traits@D@std@@V?$allocator@D@2@@std@@VSrScene@VA@@@std@@HPBU12@ABU12@@std@@QAE@XZ 100d45e0 f i CIssSr.obj
 0002:00025610       ??0?$_Iterator_with_base@Ubidirectional_iterator_tag@std@@U?$pair@$$CBIUtagMvwScene@VA@@@2@HPBU32@ABU32@V_Iterator_base_aux@2@@std@@QAE@XZ 100d4610 f i CIssSr.obj
 0002:00025640       ??0_Iterator_base_aux@std@@QAE@XZ 100d4640 f i CIssSr.obj
 0002:00025670       ??0?$_Iterator_with_base@Ubidirectional_iterator_tag@std@@U?$pair@$$CBHUtagKeyWordAndThreshold@VA@@@2@HPBU32@ABU32@V_Iterator_base_aux@2@@std@@QAE@XZ 100d4670 f i CIssSr.obj
 0002:000256a0       ??0?$_Iterator_with_base@Ubidirectional_iterator_tag@std@@UServicesSearchContactsItem@VA@@HPBU34@ABU34@V_Iterator_base_aux@2@@std@@QAE@XZ 100d46a0 f i CIssSr.obj
 0002:000256d0       ??0?$_Iterator_with_base@Ubidirectional_iterator_tag@std@@U?$pair@$$CBV?$basic_string@DU?$char_traits@D@std@@V?$allocator@D@2@@std@@VSrScene@VA@@@2@HPBU32@ABU32@V_Iterator_base_aux@2@@std@@QAE@XZ 100d46d0 f i CIssSr.obj
 0002:00025700       ?allocate@?$allocator@V_Aux_cont@std@@@std@@QAEPAV_Aux_cont@2@I@Z 100d4700 f i CIssSr.obj
 0002:00025730       ?destroy@?$allocator@PAVValue@Json@VA@@@std@@QAEXPAPAVValue@Json@VA@@@Z 100d4730 f i CIssSr.obj
 0002:00025760       ?destroy@?$allocator@VErrorInfo@Reader@Json@VA@@@std@@QAEXPAVErrorInfo@Reader@Json@VA@@@Z 100d4760 f i CIssSr.obj
 0002:00025790       ?max_size@?$allocator@V?$basic_string@DU?$char_traits@D@std@@V?$allocator@D@2@@std@@@std@@QBEIXZ 100d4790 f i CIssSr.obj
 0002:000257d0       ?_Color@?$_Tree@V?$_Tmap_traits@V?$basic_string@DU?$char_traits@D@std@@V?$allocator@D@2@@std@@VSrScene@VA@@U?$less@V?$basic_string@DU?$char_traits@D@std@@V?$allocator@D@2@@std@@@2@V?$allocator@U?$pair@$$CBV?$basic_string@DU?$char_traits@D@std@@V?$allocator@D@2@@std@@VSrScene@VA@@@std@@@2@$0A@@std@@@std@@KAAADPAU_Node@?$_Tree_nod@V?$_Tmap_traits@V?$basic_string@DU?$char_traits@D@std@@V?$allocator@D@2@@std@@VSrScene@VA@@U?$less@V?$basic_string@DU?$char_traits@D@std@@V?$allocator@D@2@@std@@@2@V?$allocator@U?$pair@$$CBV?$basic_string@DU?$char_traits@D@std@@V?$allocator@D@2@@std@@VSrScene@VA@@@std@@@2@$0A@@std@@@2@@Z 100d47d0 f i CIssSr.obj
 0002:000257f0       ?_Left@?$_Tree@V?$_Tmap_traits@V?$basic_string@DU?$char_traits@D@std@@V?$allocator@D@2@@std@@VSrScene@VA@@U?$less@V?$basic_string@DU?$char_traits@D@std@@V?$allocator@D@2@@std@@@2@V?$allocator@U?$pair@$$CBV?$basic_string@DU?$char_traits@D@std@@V?$allocator@D@2@@std@@VSrScene@VA@@@std@@@2@$0A@@std@@@std@@KAAAPAU_Node@?$_Tree_nod@V?$_Tmap_traits@V?$basic_string@DU?$char_traits@D@std@@V?$allocator@D@2@@std@@VSrScene@VA@@U?$less@V?$basic_string@DU?$char_traits@D@std@@V?$allocator@D@2@@std@@@2@V?$allocator@U?$pair@$$CBV?$basic_string@DU?$char_traits@D@std@@V?$allocator@D@2@@std@@VSrScene@VA@@@std@@@2@$0A@@std@@@2@PAU342@@Z 100d47f0 f i CIssSr.obj
 0002:00025810       ?_Parent@?$_Tree@V?$_Tmap_traits@V?$basic_string@DU?$char_traits@D@std@@V?$allocator@D@2@@std@@VSrScene@VA@@U?$less@V?$basic_string@DU?$char_traits@D@std@@V?$allocator@D@2@@std@@@2@V?$allocator@U?$pair@$$CBV?$basic_string@DU?$char_traits@D@std@@V?$allocator@D@2@@std@@VSrScene@VA@@@std@@@2@$0A@@std@@@std@@KAAAPAU_Node@?$_Tree_nod@V?$_Tmap_traits@V?$basic_string@DU?$char_traits@D@std@@V?$allocator@D@2@@std@@VSrScene@VA@@U?$less@V?$basic_string@DU?$char_traits@D@std@@V?$allocator@D@2@@std@@@2@V?$allocator@U?$pair@$$CBV?$basic_string@DU?$char_traits@D@std@@V?$allocator@D@2@@std@@VSrScene@VA@@@std@@@2@$0A@@std@@@2@PAU342@@Z 100d4810 f i CIssSr.obj
 0002:00025830       ?max_size@?$_Tree@V?$_Tmap_traits@V?$basic_string@DU?$char_traits@D@std@@V?$allocator@D@2@@std@@VSrScene@VA@@U?$less@V?$basic_string@DU?$char_traits@D@std@@V?$allocator@D@2@@std@@@2@V?$allocator@U?$pair@$$CBV?$basic_string@DU?$char_traits@D@std@@V?$allocator@D@2@@std@@VSrScene@VA@@@std@@@2@$0A@@std@@@std@@QBEIXZ 100d4830 f i CIssSr.obj
 0002:00025860       ?_Lmost@?$_Tree@V?$_Tmap_traits@V?$basic_string@DU?$char_traits@D@std@@V?$allocator@D@2@@std@@VSrScene@VA@@U?$less@V?$basic_string@DU?$char_traits@D@std@@V?$allocator@D@2@@std@@@2@V?$allocator@U?$pair@$$CBV?$basic_string@DU?$char_traits@D@std@@V?$allocator@D@2@@std@@VSrScene@VA@@@std@@@2@$0A@@std@@@std@@IBEAAPAU_Node@?$_Tree_nod@V?$_Tmap_traits@V?$basic_string@DU?$char_traits@D@std@@V?$allocator@D@2@@std@@VSrScene@VA@@U?$less@V?$basic_string@DU?$char_traits@D@std@@V?$allocator@D@2@@std@@@2@V?$allocator@U?$pair@$$CBV?$basic_string@DU?$char_traits@D@std@@V?$allocator@D@2@@std@@VSrScene@VA@@@std@@@2@$0A@@std@@@2@XZ 100d4860 f i CIssSr.obj
 0002:00025890       ?_Lrotate@?$_Tree@V?$_Tmap_traits@V?$basic_string@DU?$char_traits@D@std@@V?$allocator@D@2@@std@@VSrScene@VA@@U?$less@V?$basic_string@DU?$char_traits@D@std@@V?$allocator@D@2@@std@@@2@V?$allocator@U?$pair@$$CBV?$basic_string@DU?$char_traits@D@std@@V?$allocator@D@2@@std@@VSrScene@VA@@@std@@@2@$0A@@std@@@std@@IAEXPAU_Node@?$_Tree_nod@V?$_Tmap_traits@V?$basic_string@DU?$char_traits@D@std@@V?$allocator@D@2@@std@@VSrScene@VA@@U?$less@V?$basic_string@DU?$char_traits@D@std@@V?$allocator@D@2@@std@@@2@V?$allocator@U?$pair@$$CBV?$basic_string@DU?$char_traits@D@std@@V?$allocator@D@2@@std@@VSrScene@VA@@@std@@@2@$0A@@std@@@2@@Z 100d4890 f i CIssSr.obj
 0002:00025a20       ?_Root@?$_Tree@V?$_Tmap_traits@V?$basic_string@DU?$char_traits@D@std@@V?$allocator@D@2@@std@@VSrScene@VA@@U?$less@V?$basic_string@DU?$char_traits@D@std@@V?$allocator@D@2@@std@@@2@V?$allocator@U?$pair@$$CBV?$basic_string@DU?$char_traits@D@std@@V?$allocator@D@2@@std@@VSrScene@VA@@@std@@@2@$0A@@std@@@std@@IBEAAPAU_Node@?$_Tree_nod@V?$_Tmap_traits@V?$basic_string@DU?$char_traits@D@std@@V?$allocator@D@2@@std@@VSrScene@VA@@U?$less@V?$basic_string@DU?$char_traits@D@std@@V?$allocator@D@2@@std@@@2@V?$allocator@U?$pair@$$CBV?$basic_string@DU?$char_traits@D@std@@V?$allocator@D@2@@std@@VSrScene@VA@@@std@@@2@$0A@@std@@@2@XZ 100d4a20 f i CIssSr.obj
 0002:00025a50       ?_Rrotate@?$_Tree@V?$_Tmap_traits@V?$basic_string@DU?$char_traits@D@std@@V?$allocator@D@2@@std@@VSrScene@VA@@U?$less@V?$basic_string@DU?$char_traits@D@std@@V?$allocator@D@2@@std@@@2@V?$allocator@U?$pair@$$CBV?$basic_string@DU?$char_traits@D@std@@V?$allocator@D@2@@std@@VSrScene@VA@@@std@@@2@$0A@@std@@@std@@IAEXPAU_Node@?$_Tree_nod@V?$_Tmap_traits@V?$basic_string@DU?$char_traits@D@std@@V?$allocator@D@2@@std@@VSrScene@VA@@U?$less@V?$basic_string@DU?$char_traits@D@std@@V?$allocator@D@2@@std@@@2@V?$allocator@U?$pair@$$CBV?$basic_string@DU?$char_traits@D@std@@V?$allocator@D@2@@std@@VSrScene@VA@@@std@@@2@$0A@@std@@@2@@Z 100d4a50 f i CIssSr.obj
 0002:00025be0       ?_Buynode@?$_Tree@V?$_Tmap_traits@V?$basic_string@DU?$char_traits@D@std@@V?$allocator@D@2@@std@@VSrScene@VA@@U?$less@V?$basic_string@DU?$char_traits@D@std@@V?$allocator@D@2@@std@@@2@V?$allocator@U?$pair@$$CBV?$basic_string@DU?$char_traits@D@std@@V?$allocator@D@2@@std@@VSrScene@VA@@@std@@@2@$0A@@std@@@std@@IAEPAU_Node@?$_Tree_nod@V?$_Tmap_traits@V?$basic_string@DU?$char_traits@D@std@@V?$allocator@D@2@@std@@VSrScene@VA@@U?$less@V?$basic_string@DU?$char_traits@D@std@@V?$allocator@D@2@@std@@@2@V?$allocator@U?$pair@$$CBV?$basic_string@DU?$char_traits@D@std@@V?$allocator@D@2@@std@@VSrScene@VA@@@std@@@2@$0A@@std@@@2@PAU342@00ABU?$pair@$$CBV?$basic_string@DU?$char_traits@D@std@@V?$allocator@D@2@@std@@VSrScene@VA@@@2@D@Z 100d4be0 f i CIssSr.obj
 0002:00025d00       ?_Myval@?$list@UServicesSearchContactsItem@VA@@V?$allocator@UServicesSearchContactsItem@VA@@@std@@@std@@KAAAUServicesSearchContactsItem@VA@@PAU_Node@?$_List_nod@UServicesSearchContactsItem@VA@@V?$allocator@UServicesSearchContactsItem@VA@@@std@@@2@@Z 100d4d00 f i CIssSr.obj
 0002:00025d20       ?_Color@?$_Tree@V?$_Tmap_traits@HUtagKeyWordAndThreshold@VA@@U?$less@H@std@@V?$allocator@U?$pair@$$CBHUtagKeyWordAndThreshold@VA@@@std@@@4@$0A@@std@@@std@@KAAADPAU_Node@?$_Tree_nod@V?$_Tmap_traits@HUtagKeyWordAndThreshold@VA@@U?$less@H@std@@V?$allocator@U?$pair@$$CBHUtagKeyWordAndThreshold@VA@@@std@@@4@$0A@@std@@@2@@Z 100d4d20 f i CIssSr.obj
 0002:00025d40       ?max_size@?$_Tree@V?$_Tmap_traits@HUtagKeyWordAndThreshold@VA@@U?$less@H@std@@V?$allocator@U?$pair@$$CBHUtagKeyWordAndThreshold@VA@@@std@@@4@$0A@@std@@@std@@QBEIXZ 100d4d40 f i CIssSr.obj
 0002:00025d70       ?_Lrotate@?$_Tree@V?$_Tmap_traits@HUtagKeyWordAndThreshold@VA@@U?$less@H@std@@V?$allocator@U?$pair@$$CBHUtagKeyWordAndThreshold@VA@@@std@@@4@$0A@@std@@@std@@IAEXPAU_Node@?$_Tree_nod@V?$_Tmap_traits@HUtagKeyWordAndThreshold@VA@@U?$less@H@std@@V?$allocator@U?$pair@$$CBHUtagKeyWordAndThreshold@VA@@@std@@@4@$0A@@std@@@2@@Z 100d4d70 f i CIssSr.obj
 0002:00025f00       ?_Rrotate@?$_Tree@V?$_Tmap_traits@HUtagKeyWordAndThreshold@VA@@U?$less@H@std@@V?$allocator@U?$pair@$$CBHUtagKeyWordAndThreshold@VA@@@std@@@4@$0A@@std@@@std@@IAEXPAU_Node@?$_Tree_nod@V?$_Tmap_traits@HUtagKeyWordAndThreshold@VA@@U?$less@H@std@@V?$allocator@U?$pair@$$CBHUtagKeyWordAndThreshold@VA@@@std@@@4@$0A@@std@@@2@@Z 100d4f00 f i CIssSr.obj
 0002:00026090       ?_Buynode@?$_Tree@V?$_Tmap_traits@HUtagKeyWordAndThreshold@VA@@U?$less@H@std@@V?$allocator@U?$pair@$$CBHUtagKeyWordAndThreshold@VA@@@std@@@4@$0A@@std@@@std@@IAEPAU_Node@?$_Tree_nod@V?$_Tmap_traits@HUtagKeyWordAndThreshold@VA@@U?$less@H@std@@V?$allocator@U?$pair@$$CBHUtagKeyWordAndThreshold@VA@@@std@@@4@$0A@@std@@@2@XZ 100d5090 f i CIssSr.obj
 0002:00026270       ?_Buynode@?$_Tree@V?$_Tmap_traits@HUtagKeyWordAndThreshold@VA@@U?$less@H@std@@V?$allocator@U?$pair@$$CBHUtagKeyWordAndThreshold@VA@@@std@@@4@$0A@@std@@@std@@IAEPAU_Node@?$_Tree_nod@V?$_Tmap_traits@HUtagKeyWordAndThreshold@VA@@U?$less@H@std@@V?$allocator@U?$pair@$$CBHUtagKeyWordAndThreshold@VA@@@std@@@4@$0A@@std@@@2@PAU342@00ABU?$pair@$$CBHUtagKeyWordAndThreshold@VA@@@2@D@Z 100d5270 f i CIssSr.obj
 0002:00026390       ??0?$_Tree_ptr@V?$_Tmap_traits@HUtagKeyWordAndThreshold@VA@@U?$less@H@std@@V?$allocator@U?$pair@$$CBHUtagKeyWordAndThreshold@VA@@@std@@@4@$0A@@std@@@std@@IAE@ABU?$less@H@1@V?$allocator@U?$pair@$$CBHUtagKeyWordAndThreshold@VA@@@std@@@1@@Z 100d5390 f i CIssSr.obj
 0002:000263f0       ?_Isnil@?$_Tree@V?$_Tmap_traits@IUtagMvwScene@VA@@U?$less@I@std@@V?$allocator@U?$pair@$$CBIUtagMvwScene@VA@@@std@@@4@$0A@@std@@@std@@KAAADPAU_Node@?$_Tree_nod@V?$_Tmap_traits@IUtagMvwScene@VA@@U?$less@I@std@@V?$allocator@U?$pair@$$CBIUtagMvwScene@VA@@@std@@@4@$0A@@std@@@2@@Z 100d53f0 f i CIssSr.obj
 0002:00026410       ?_Parent@?$_Tree@V?$_Tmap_traits@IUtagMvwScene@VA@@U?$less@I@std@@V?$allocator@U?$pair@$$CBIUtagMvwScene@VA@@@std@@@4@$0A@@std@@@std@@KAAAPAU_Node@?$_Tree_nod@V?$_Tmap_traits@IUtagMvwScene@VA@@U?$less@I@std@@V?$allocator@U?$pair@$$CBIUtagMvwScene@VA@@@std@@@4@$0A@@std@@@2@PAU342@@Z 100d5410 f i CIssSr.obj
 0002:00026430       ?_Right@?$_Tree@V?$_Tmap_traits@IUtagMvwScene@VA@@U?$less@I@std@@V?$allocator@U?$pair@$$CBIUtagMvwScene@VA@@@std@@@4@$0A@@std@@@std@@KAAAPAU_Node@?$_Tree_nod@V?$_Tmap_traits@IUtagMvwScene@VA@@U?$less@I@std@@V?$allocator@U?$pair@$$CBIUtagMvwScene@VA@@@std@@@4@$0A@@std@@@2@PAU342@@Z 100d5430 f i CIssSr.obj
 0002:00026450       ?_Min@?$_Tree@V?$_Tmap_traits@IUtagMvwScene@VA@@U?$less@I@std@@V?$allocator@U?$pair@$$CBIUtagMvwScene@VA@@@std@@@4@$0A@@std@@@std@@KAPAU_Node@?$_Tree_nod@V?$_Tmap_traits@IUtagMvwScene@VA@@U?$less@I@std@@V?$allocator@U?$pair@$$CBIUtagMvwScene@VA@@@std@@@4@$0A@@std@@@2@PAU342@@Z 100d5450 f i CIssSr.obj
 0002:000264b0       ?_Root@?$_Tree@V?$_Tmap_traits@IUtagMvwScene@VA@@U?$less@I@std@@V?$allocator@U?$pair@$$CBIUtagMvwScene@VA@@@std@@@4@$0A@@std@@@std@@IBEAAPAU_Node@?$_Tree_nod@V?$_Tmap_traits@IUtagMvwScene@VA@@U?$less@I@std@@V?$allocator@U?$pair@$$CBIUtagMvwScene@VA@@@std@@@4@$0A@@std@@@2@XZ 100d54b0 f i CIssSr.obj
 0002:000264e0       ??Fiterator@?$_Tree@V?$_Tmap_traits@HUtagKeyWordAndThreshold@VA@@U?$less@H@std@@V?$allocator@U?$pair@$$CBHUtagKeyWordAndThreshold@VA@@@std@@@4@$0A@@std@@@std@@QAEAAV012@XZ 100d54e0 f i CIssSr.obj
 0002:00026510       ?_Dec@const_iterator@?$_Tree@V?$_Tmap_traits@HUtagKeyWordAndThreshold@VA@@U?$less@H@std@@V?$allocator@U?$pair@$$CBHUtagKeyWordAndThreshold@VA@@@std@@@4@$0A@@std@@@std@@QAEXXZ 100d5510 f i CIssSr.obj
 0002:00026690       ?_Inc@const_iterator@?$_Tree@V?$_Tmap_traits@HUtagKeyWordAndThreshold@VA@@U?$less@H@std@@V?$allocator@U?$pair@$$CBHUtagKeyWordAndThreshold@VA@@@std@@@4@$0A@@std@@@std@@QAEXXZ 100d5690 f i CIssSr.obj
 0002:000267b0       ??Fiterator@?$_Tree@V?$_Tmap_traits@V?$basic_string@DU?$char_traits@D@std@@V?$allocator@D@2@@std@@VSrScene@VA@@U?$less@V?$basic_string@DU?$char_traits@D@std@@V?$allocator@D@2@@std@@@2@V?$allocator@U?$pair@$$CBV?$basic_string@DU?$char_traits@D@std@@V?$allocator@D@2@@std@@VSrScene@VA@@@std@@@2@$0A@@std@@@std@@QAEAAV012@XZ 100d57b0 f i CIssSr.obj
 0002:000267e0       ??0const_iterator@?$_Tree@V?$_Tmap_traits@V?$basic_string@DU?$char_traits@D@std@@V?$allocator@D@2@@std@@VSrScene@VA@@U?$less@V?$basic_string@DU?$char_traits@D@std@@V?$allocator@D@2@@std@@@2@V?$allocator@U?$pair@$$CBV?$basic_string@DU?$char_traits@D@std@@V?$allocator@D@2@@std@@VSrScene@VA@@@std@@@2@$0A@@std@@@std@@QAE@PAU_Node@?$_Tree_nod@V?$_Tmap_traits@V?$basic_string@DU?$char_traits@D@std@@V?$allocator@D@2@@std@@VSrScene@VA@@U?$less@V?$basic_string@DU?$char_traits@D@std@@V?$allocator@D@2@@std@@@2@V?$allocator@U?$pair@$$CBV?$basic_string@DU?$char_traits@D@std@@V?$allocator@D@2@@std@@VSrScene@VA@@@std@@@2@$0A@@std@@@2@PBV12@@Z 100d57e0 f i CIssSr.obj
 0002:00026840       ?_Dec@const_iterator@?$_Tree@V?$_Tmap_traits@V?$basic_string@DU?$char_traits@D@std@@V?$allocator@D@2@@std@@VSrScene@VA@@U?$less@V?$basic_string@DU?$char_traits@D@std@@V?$allocator@D@2@@std@@@2@V?$allocator@U?$pair@$$CBV?$basic_string@DU?$char_traits@D@std@@V?$allocator@D@2@@std@@VSrScene@VA@@@std@@@2@$0A@@std@@@std@@QAEXXZ 100d5840 f i CIssSr.obj
 0002:000269c0       ?_Inc@const_iterator@?$_Tree@V?$_Tmap_traits@V?$basic_string@DU?$char_traits@D@std@@V?$allocator@D@2@@std@@VSrScene@VA@@U?$less@V?$basic_string@DU?$char_traits@D@std@@V?$allocator@D@2@@std@@@2@V?$allocator@U?$pair@$$CBV?$basic_string@DU?$char_traits@D@std@@V?$allocator@D@2@@std@@VSrScene@VA@@@std@@@2@$0A@@std@@@std@@QAEXXZ 100d59c0 f i CIssSr.obj
 0002:00026ae0       ??0?$pair@Viterator@?$_Tree@V?$_Tmap_traits@V?$basic_string@DU?$char_traits@D@std@@V?$allocator@D@2@@std@@VSrScene@VA@@U?$less@V?$basic_string@DU?$char_traits@D@std@@V?$allocator@D@2@@std@@@2@V?$allocator@U?$pair@$$CBV?$basic_string@DU?$char_traits@D@std@@V?$allocator@D@2@@std@@VSrScene@VA@@@std@@@2@$0A@@std@@@std@@_N@std@@QAE@ABViterator@?$_Tree@V?$_Tmap_traits@V?$basic_string@DU?$char_traits@D@std@@V?$allocator@D@2@@std@@VSrScene@VA@@U?$less@V?$basic_string@DU?$char_traits@D@std@@V?$allocator@D@2@@std@@@2@V?$allocator@U?$pair@$$CBV?$basic_string@DU?$char_traits@D@std@@V?$allocator@D@2@@std@@VSrScene@VA@@@std@@@2@$0A@@std@@@1@AB_N@Z 100d5ae0 f i CIssSr.obj
 0002:00026b20       ??0?$pair@Viterator@?$_Tree@V?$_Tmap_traits@HUtagKeyWordAndThreshold@VA@@U?$less@H@std@@V?$allocator@U?$pair@$$CBHUtagKeyWordAndThreshold@VA@@@std@@@4@$0A@@std@@@std@@_N@std@@QAE@ABViterator@?$_Tree@V?$_Tmap_traits@HUtagKeyWordAndThreshold@VA@@U?$less@H@std@@V?$allocator@U?$pair@$$CBHUtagKeyWordAndThreshold@VA@@@std@@@4@$0A@@std@@@1@AB_N@Z 100d5b20 f i CIssSr.obj
 0002:00026b60       ?_Max@?$_Tree@V?$_Tmap_traits@V?$basic_string@DU?$char_traits@D@std@@V?$allocator@D@2@@std@@VSrScene@VA@@U?$less@V?$basic_string@DU?$char_traits@D@std@@V?$allocator@D@2@@std@@@2@V?$allocator@U?$pair@$$CBV?$basic_string@DU?$char_traits@D@std@@V?$allocator@D@2@@std@@VSrScene@VA@@@std@@@2@$0A@@std@@@std@@KAPAU_Node@?$_Tree_nod@V?$_Tmap_traits@V?$basic_string@DU?$char_traits@D@std@@V?$allocator@D@2@@std@@VSrScene@VA@@U?$less@V?$basic_string@DU?$char_traits@D@std@@V?$allocator@D@2@@std@@@2@V?$allocator@U?$pair@$$CBV?$basic_string@DU?$char_traits@D@std@@V?$allocator@D@2@@std@@VSrScene@VA@@@std@@@2@$0A@@std@@@2@PAU342@@Z 100d5b60 f i CIssSr.obj
 0002:00026bc0       ?_Min@?$_Tree@V?$_Tmap_traits@V?$basic_string@DU?$char_traits@D@std@@V?$allocator@D@2@@std@@VSrScene@VA@@U?$less@V?$basic_string@DU?$char_traits@D@std@@V?$allocator@D@2@@std@@@2@V?$allocator@U?$pair@$$CBV?$basic_string@DU?$char_traits@D@std@@V?$allocator@D@2@@std@@VSrScene@VA@@@std@@@2@$0A@@std@@@std@@KAPAU_Node@?$_Tree_nod@V?$_Tmap_traits@V?$basic_string@DU?$char_traits@D@std@@V?$allocator@D@2@@std@@VSrScene@VA@@U?$less@V?$basic_string@DU?$char_traits@D@std@@V?$allocator@D@2@@std@@@2@V?$allocator@U?$pair@$$CBV?$basic_string@DU?$char_traits@D@std@@V?$allocator@D@2@@std@@VSrScene@VA@@@std@@@2@$0A@@std@@@2@PAU342@@Z 100d5bc0 f i CIssSr.obj
 0002:00026c20       ?max_size@?$allocator@U?$pair@$$CBV?$basic_string@DU?$char_traits@D@std@@V?$allocator@D@2@@std@@VSrScene@VA@@@std@@@std@@QBEIXZ 100d5c20 f i CIssSr.obj
 0002:00026c60       ?deallocate@?$allocator@U_Node@?$_Tree_nod@V?$_Tmap_traits@V?$basic_string@DU?$char_traits@D@std@@V?$allocator@D@2@@std@@VSrScene@VA@@U?$less@V?$basic_string@DU?$char_traits@D@std@@V?$allocator@D@2@@std@@@2@V?$allocator@U?$pair@$$CBV?$basic_string@DU?$char_traits@D@std@@V?$allocator@D@2@@std@@VSrScene@VA@@@std@@@2@$0A@@std@@@std@@@std@@QAEXPAU_Node@?$_Tree_nod@V?$_Tmap_traits@V?$basic_string@DU?$char_traits@D@std@@V?$allocator@D@2@@std@@VSrScene@VA@@U?$less@V?$basic_string@DU?$char_traits@D@std@@V?$allocator@D@2@@std@@@2@V?$allocator@U?$pair@$$CBV?$basic_string@DU?$char_traits@D@std@@V?$allocator@D@2@@std@@VSrScene@VA@@@std@@@2@$0A@@std@@@2@I@Z 100d5c60 f i CIssSr.obj
 0002:00026c90       ?allocate@?$allocator@U_Node@?$_Tree_nod@V?$_Tmap_traits@V?$basic_string@DU?$char_traits@D@std@@V?$allocator@D@2@@std@@VSrScene@VA@@U?$less@V?$basic_string@DU?$char_traits@D@std@@V?$allocator@D@2@@std@@@2@V?$allocator@U?$pair@$$CBV?$basic_string@DU?$char_traits@D@std@@V?$allocator@D@2@@std@@VSrScene@VA@@@std@@@2@$0A@@std@@@std@@@std@@QAEPAU_Node@?$_Tree_nod@V?$_Tmap_traits@V?$basic_string@DU?$char_traits@D@std@@V?$allocator@D@2@@std@@VSrScene@VA@@U?$less@V?$basic_string@DU?$char_traits@D@std@@V?$allocator@D@2@@std@@@2@V?$allocator@U?$pair@$$CBV?$basic_string@DU?$char_traits@D@std@@V?$allocator@D@2@@std@@VSrScene@VA@@@std@@@2@$0A@@std@@@2@I@Z 100d5c90 f i CIssSr.obj
 0002:00026cc0       ??0?$_Tree_nod@V?$_Tmap_traits@HUtagKeyWordAndThreshold@VA@@U?$less@H@std@@V?$allocator@U?$pair@$$CBHUtagKeyWordAndThreshold@VA@@@std@@@4@$0A@@std@@@std@@IAE@ABU?$less@H@1@V?$allocator@U?$pair@$$CBHUtagKeyWordAndThreshold@VA@@@std@@@1@@Z 100d5cc0 f i CIssSr.obj
 0002:00026d20       ?max_size@?$allocator@U?$pair@$$CBHUtagKeyWordAndThreshold@VA@@@std@@@std@@QBEIXZ 100d5d20 f i CIssSr.obj
 0002:00026d60       ?allocate@?$allocator@U_Node@?$_Tree_nod@V?$_Tmap_traits@HUtagKeyWordAndThreshold@VA@@U?$less@H@std@@V?$allocator@U?$pair@$$CBHUtagKeyWordAndThreshold@VA@@@std@@@4@$0A@@std@@@std@@@std@@QAEPAU_Node@?$_Tree_nod@V?$_Tmap_traits@HUtagKeyWordAndThreshold@VA@@U?$less@H@std@@V?$allocator@U?$pair@$$CBHUtagKeyWordAndThreshold@VA@@@std@@@4@$0A@@std@@@2@I@Z 100d5d60 f i CIssSr.obj
 0002:00026d90       ?construct@?$allocator@PAU_Node@?$_Tree_nod@V?$_Tmap_traits@HUtagKeyWordAndThreshold@VA@@U?$less@H@std@@V?$allocator@U?$pair@$$CBHUtagKeyWordAndThreshold@VA@@@std@@@4@$0A@@std@@@std@@@std@@QAEXPAPAU_Node@?$_Tree_nod@V?$_Tmap_traits@HUtagKeyWordAndThreshold@VA@@U?$less@H@std@@V?$allocator@U?$pair@$$CBHUtagKeyWordAndThreshold@VA@@@std@@@4@$0A@@std@@@2@ABQAU342@@Z 100d5d90 f i CIssSr.obj
 0002:00026dc0       ??0_Node@?$_Tree_nod@V?$_Tmap_traits@V?$basic_string@DU?$char_traits@D@std@@V?$allocator@D@2@@std@@VSrScene@VA@@U?$less@V?$basic_string@DU?$char_traits@D@std@@V?$allocator@D@2@@std@@@2@V?$allocator@U?$pair@$$CBV?$basic_string@DU?$char_traits@D@std@@V?$allocator@D@2@@std@@VSrScene@VA@@@std@@@2@$0A@@std@@@std@@QAE@PAU012@00ABU?$pair@$$CBV?$basic_string@DU?$char_traits@D@std@@V?$allocator@D@2@@std@@VSrScene@VA@@@2@D@Z 100d5dc0 f i CIssSr.obj
 0002:00026e30       ??0_Node@?$_Tree_nod@V?$_Tmap_traits@HUtagKeyWordAndThreshold@VA@@U?$less@H@std@@V?$allocator@U?$pair@$$CBHUtagKeyWordAndThreshold@VA@@@std@@@4@$0A@@std@@@std@@QAE@PAU012@00ABU?$pair@$$CBHUtagKeyWordAndThreshold@VA@@@2@D@Z 100d5e30 f i CIssSr.obj
 0002:00026ea0       ??0?$pair@$$CBV?$basic_string@DU?$char_traits@D@std@@V?$allocator@D@2@@std@@VSrScene@VA@@@std@@QAE@ABU01@@Z 100d5ea0 f i CIssSr.obj
 0002:00026f30       ??0?$pair@$$CBHUtagKeyWordAndThreshold@VA@@@std@@QAE@ABU01@@Z 100d5f30 f i CIssSr.obj
 0002:00026f80       ??0?$_Tmap_traits@HUtagKeyWordAndThreshold@VA@@U?$less@H@std@@V?$allocator@U?$pair@$$CBHUtagKeyWordAndThreshold@VA@@@std@@@4@$0A@@std@@QAE@U?$less@H@1@V?$allocator@U?$pair@$$CBHUtagKeyWordAndThreshold@VA@@@std@@@1@@Z 100d5f80 f i CIssSr.obj
 0002:00026fc0       ??0?$_Container_base_aux_alloc_real@V?$allocator@U?$pair@$$CBHUtagKeyWordAndThreshold@VA@@@std@@@std@@@std@@IAE@V?$allocator@U?$pair@$$CBHUtagKeyWordAndThreshold@VA@@@std@@@1@@Z 100d5fc0 f i CIssSr.obj
 0002:000270b0       ?open@?$Log_Singleton@V?$Log_Uni_Type@VLog_IO_FILE@VA@@V__LOG_TOK_Log_IO_FILE_isssr_logLog_IO_FILE__@2@@VA@@VLog_Thread_Mutex@2@V?$Log_Cfg_T@VLog_Cfg_Heap_Reg@VA@@ULog_Cfg@2@@2@@VA@@SAHPBD0PBV?$Log_Cfg_T@VLog_Cfg_Heap_Reg@VA@@ULog_Cfg@2@@2@PAXPAULog_IO@2@2@Z 100d60b0 f i CIssSr.obj
 0002:00027280       ?close@?$Log_Singleton@V?$Log_Uni_Type@VLog_IO_FILE@VA@@V__LOG_TOK_Log_IO_FILE_isssr_logLog_IO_FILE__@2@@VA@@VLog_Thread_Mutex@2@V?$Log_Cfg_T@VLog_Cfg_Heap_Reg@VA@@ULog_Cfg@2@@2@@VA@@SAHXZ 100d6280 f i CIssSr.obj
 0002:00027380       ??0Log_Win32_Process_Mutex@VA@@QAE@PBD_N@Z 100d6380 f i CIssSr.obj
 0002:00027400       ??0Log_Mutex@VA@@QAE@XZ    100d6400 f i CIssSr.obj
 0002:00027430       ??1Log_Win32_Process_Mutex@VA@@QAE@XZ 100d6430 f i CIssSr.obj
 0002:00027460       ?name@Log_Win32_Process_Mutex@VA@@UAEPBDXZ 100d6460 f i CIssSr.obj
 0002:00027480       ?open@Log_Win32_Process_Mutex@VA@@UAEHPBD@Z 100d6480 f i CIssSr.obj
 0002:00027500       ?close@Log_Win32_Process_Mutex@VA@@UAEH_N@Z 100d6500 f i CIssSr.obj
 0002:00027550       ?acquire@Log_Win32_Process_Mutex@VA@@UAEHH@Z 100d6550 f i CIssSr.obj
 0002:000275a0       ?release@Log_Win32_Process_Mutex@VA@@UAEHXZ 100d65a0 f i CIssSr.obj
 0002:000275d0       ?log_error@?$Log_Impl_T@V?$Log_Uni_Type@VLog_IO_FILE@VA@@V__LOG_TOK_Log_IO_FILE_isssr_logLog_IO_FILE__@2@@VA@@VLog_Thread_Mutex@2@V?$Log_Cfg_T@VLog_Cfg_Heap_Reg@VA@@ULog_Cfg@2@@2@@VA@@QAAXPBDZZ 100d65d0 f i CIssSr.obj
 0002:000278d0       ?log_warn@?$Log_Impl_T@V?$Log_Uni_Type@VLog_IO_FILE@VA@@V__LOG_TOK_Log_IO_FILE_isssr_logLog_IO_FILE__@2@@VA@@VLog_Thread_Mutex@2@V?$Log_Cfg_T@VLog_Cfg_Heap_Reg@VA@@ULog_Cfg@2@@2@@VA@@QAAXPBDZZ 100d68d0 f i CIssSr.obj
 0002:00027bd0       ?log_info@?$Log_Impl_T@V?$Log_Uni_Type@VLog_IO_FILE@VA@@V__LOG_TOK_Log_IO_FILE_isssr_logLog_IO_FILE__@2@@VA@@VLog_Thread_Mutex@2@V?$Log_Cfg_T@VLog_Cfg_Heap_Reg@VA@@ULog_Cfg@2@@2@@VA@@QAAXPBDZZ 100d6bd0 f i CIssSr.obj
 0002:00027ec0       ?log_verbose@?$Log_Impl_T@V?$Log_Uni_Type@VLog_IO_FILE@VA@@V__LOG_TOK_Log_IO_FILE_isssr_logLog_IO_FILE__@2@@VA@@VLog_Thread_Mutex@2@V?$Log_Cfg_T@VLog_Cfg_Heap_Reg@VA@@ULog_Cfg@2@@2@@VA@@QAAXPBDZZ 100d6ec0 f i CIssSr.obj
 0002:000281b0       ?log_debug@?$Log_Impl_T@V?$Log_Uni_Type@VLog_IO_FILE@VA@@V__LOG_TOK_Log_IO_FILE_isssr_logLog_IO_FILE__@2@@VA@@VLog_Thread_Mutex@2@V?$Log_Cfg_T@VLog_Cfg_Heap_Reg@VA@@ULog_Cfg@2@@2@@VA@@QAAXPBDZZ 100d71b0 f i CIssSr.obj
 0002:000284a0       ?log_perf@?$Log_Impl_T@V?$Log_Uni_Type@VLog_IO_FILE@VA@@V__LOG_TOK_Log_IO_FILE_isssr_logLog_IO_FILE__@2@@VA@@VLog_Thread_Mutex@2@V?$Log_Cfg_T@VLog_Cfg_Heap_Reg@VA@@ULog_Cfg@2@@2@@VA@@QAAXPBDZZ 100d74a0 f i CIssSr.obj
 0002:00028790       ?log_trace@?$Log_Impl_T@V?$Log_Uni_Type@VLog_IO_FILE@VA@@V__LOG_TOK_Log_IO_FILE_isssr_logLog_IO_FILE__@2@@VA@@VLog_Thread_Mutex@2@V?$Log_Cfg_T@VLog_Cfg_Heap_Reg@VA@@ULog_Cfg@2@@2@@VA@@QAAXPBDZZ 100d7790 f i CIssSr.obj
 0002:00028a90       ??$GetKeyValueFromJson@V?$basic_string@DU?$char_traits@D@std@@V?$allocator@D@2@@std@@@VA@@YA_NABVValue@Json@0@PBDPAV?$basic_string@DU?$char_traits@D@std@@V?$allocator@D@2@@std@@_N@Z 100d7a90 f i CIssSr.obj
 0002:00029890       ??$GetKeyValueFromJson@H@VA@@YA_NABVValue@Json@0@PBDPAH_N@Z 100d8890 f i CIssSr.obj
 0002:0002a690       ??$_Destroy@PAPAVValue@Json@VA@@@std@@YAXPAPAPAVValue@Json@VA@@@Z 100d9690 f i CIssSr.obj
 0002:0002a6b0       ??$_Destroy@PAVErrorInfo@Reader@Json@VA@@@std@@YAXPAPAVErrorInfo@Reader@Json@VA@@@Z 100d96b0 f i CIssSr.obj
 0002:0002a6d0       ??$_Destroy_range@V?$allocator@V?$basic_string@DU?$char_traits@D@std@@V?$allocator@D@2@@std@@@std@@@std@@YAXPAV?$basic_string@DU?$char_traits@D@std@@V?$allocator@D@2@@0@0AAV?$allocator@V?$basic_string@DU?$char_traits@D@std@@V?$allocator@D@2@@std@@@0@@Z 100d96d0 f i CIssSr.obj
 0002:0002a720       ??$?0V?$basic_string@DU?$char_traits@D@std@@V?$allocator@D@2@@std@@@?$allocator@V_Aux_cont@std@@@std@@QAE@ABV?$allocator@V?$basic_string@DU?$char_traits@D@std@@V?$allocator@D@2@@std@@@1@@Z 100d9720 f i CIssSr.obj
 0002:0002a740       ??$_Allocate@V?$basic_string@DU?$char_traits@D@std@@V?$allocator@D@2@@std@@@std@@YAPAV?$basic_string@DU?$char_traits@D@std@@V?$allocator@D@2@@0@IPAV10@@Z 100d9740 f i CIssSr.obj
 0002:0002a7b0       ??0bad_alloc@std@@QAE@PBD@Z 100d97b0 f i CIssSr.obj
 0002:0002a7f0       ??1bad_alloc@std@@UAE@XZ   100d97f0 f i CIssSr.obj
 0002:0002a820       ??_Ebad_alloc@std@@UAEPAXI@Z 100d9820 f i CIssSr.obj
 0002:0002a820       ??_Gbad_alloc@std@@UAEPAXI@Z 100d9820 f i CIssSr.obj
 0002:0002a870       ??$swap@D@std@@YAXAAD0@Z   100d9870 f i CIssSr.obj
 0002:0002a8b0       ??$_Destroy@U_Node@?$_Tree_nod@V?$_Tmap_traits@HUtagKeyWordAndThreshold@VA@@U?$less@H@std@@V?$allocator@U?$pair@$$CBHUtagKeyWordAndThreshold@VA@@@std@@@4@$0A@@std@@@std@@@std@@YAXPAU_Node@?$_Tree_nod@V?$_Tmap_traits@HUtagKeyWordAndThreshold@VA@@U?$less@H@std@@V?$allocator@U?$pair@$$CBHUtagKeyWordAndThreshold@VA@@@std@@@4@$0A@@std@@@0@@Z 100d98b0 f i CIssSr.obj
 0002:0002a8d0       ??$_Destroy@PAU_Node@?$_Tree_nod@V?$_Tmap_traits@HUtagKeyWordAndThreshold@VA@@U?$less@H@std@@V?$allocator@U?$pair@$$CBHUtagKeyWordAndThreshold@VA@@@std@@@4@$0A@@std@@@std@@@std@@YAXPAPAU_Node@?$_Tree_nod@V?$_Tmap_traits@HUtagKeyWordAndThreshold@VA@@U?$less@H@std@@V?$allocator@U?$pair@$$CBHUtagKeyWordAndThreshold@VA@@@std@@@4@$0A@@std@@@0@@Z 100d98d0 f i CIssSr.obj
 0002:0002a8f0       ??$_Allocate@V_Aux_cont@std@@@std@@YAPAV_Aux_cont@0@IPAV10@@Z 100d98f0 f i CIssSr.obj
 0002:0002a960       ??$_Destroy@PAVValue@Json@VA@@@std@@YAXPAPAVValue@Json@VA@@@Z 100d9960 f i CIssSr.obj
 0002:0002a980       ??$_Destroy@VErrorInfo@Reader@Json@VA@@@std@@YAXPAVErrorInfo@Reader@Json@VA@@@Z 100d9980 f i CIssSr.obj
 0002:0002a9a0       ??$?0U?$pair@$$CBHUtagKeyWordAndThreshold@VA@@@std@@@?$allocator@PAU_Node@?$_Tree_nod@V?$_Tmap_traits@HUtagKeyWordAndThreshold@VA@@U?$less@H@std@@V?$allocator@U?$pair@$$CBHUtagKeyWordAndThreshold@VA@@@std@@@4@$0A@@std@@@std@@@std@@QAE@ABV?$allocator@U?$pair@$$CBHUtagKeyWordAndThreshold@VA@@@std@@@1@@Z 100d99a0 f i CIssSr.obj
 0002:0002a9c0       ??$_Allocate@U_Node@?$_Tree_nod@V?$_Tmap_traits@V?$basic_string@DU?$char_traits@D@std@@V?$allocator@D@2@@std@@VSrScene@VA@@U?$less@V?$basic_string@DU?$char_traits@D@std@@V?$allocator@D@2@@std@@@2@V?$allocator@U?$pair@$$CBV?$basic_string@DU?$char_traits@D@std@@V?$allocator@D@2@@std@@VSrScene@VA@@@std@@@2@$0A@@std@@@std@@@std@@YAPAU_Node@?$_Tree_nod@V?$_Tmap_traits@V?$basic_string@DU?$char_traits@D@std@@V?$allocator@D@2@@std@@VSrScene@VA@@U?$less@V?$basic_string@DU?$char_traits@D@std@@V?$allocator@D@2@@std@@@2@V?$allocator@U?$pair@$$CBV?$basic_string@DU?$char_traits@D@std@@V?$allocator@D@2@@std@@VSrScene@VA@@@std@@@2@$0A@@std@@@0@IPAU120@@Z 100d99c0 f i CIssSr.obj
 0002:0002aa30       ??$?0U?$pair@$$CBHUtagKeyWordAndThreshold@VA@@@std@@@?$allocator@U_Node@?$_Tree_nod@V?$_Tmap_traits@HUtagKeyWordAndThreshold@VA@@U?$less@H@std@@V?$allocator@U?$pair@$$CBHUtagKeyWordAndThreshold@VA@@@std@@@4@$0A@@std@@@std@@@std@@QAE@ABV?$allocator@U?$pair@$$CBHUtagKeyWordAndThreshold@VA@@@std@@@1@@Z 100d9a30 f i CIssSr.obj
 0002:0002aa50       ??$_Allocate@U_Node@?$_Tree_nod@V?$_Tmap_traits@HUtagKeyWordAndThreshold@VA@@U?$less@H@std@@V?$allocator@U?$pair@$$CBHUtagKeyWordAndThreshold@VA@@@std@@@4@$0A@@std@@@std@@@std@@YAPAU_Node@?$_Tree_nod@V?$_Tmap_traits@HUtagKeyWordAndThreshold@VA@@U?$less@H@std@@V?$allocator@U?$pair@$$CBHUtagKeyWordAndThreshold@VA@@@std@@@4@$0A@@std@@@0@IPAU120@@Z 100d9a50 f i CIssSr.obj
 0002:0002aac0       ??$_Construct@PAU_Node@?$_Tree_nod@V?$_Tmap_traits@HUtagKeyWordAndThreshold@VA@@U?$less@H@std@@V?$allocator@U?$pair@$$CBHUtagKeyWordAndThreshold@VA@@@std@@@4@$0A@@std@@@std@@PAU123@@std@@YAXPAPAU_Node@?$_Tree_nod@V?$_Tmap_traits@HUtagKeyWordAndThreshold@VA@@U?$less@H@std@@V?$allocator@U?$pair@$$CBHUtagKeyWordAndThreshold@VA@@@std@@@4@$0A@@std@@@0@ABQAU120@@Z 100d9ac0 f i CIssSr.obj
 0002:0002ab20       ??$?0U?$pair@$$CBHUtagKeyWordAndThreshold@VA@@@std@@@?$allocator@V_Aux_cont@std@@@std@@QAE@ABV?$allocator@U?$pair@$$CBHUtagKeyWordAndThreshold@VA@@@std@@@1@@Z 100d9b20 f i CIssSr.obj
 0002:0002ab40       ??0bad_alloc@std@@QAE@ABV01@@Z 100d9b40 f i CIssSr.obj
 0002:0002ab80       ??_G_Node@?$_Tree_nod@V?$_Tmap_traits@HUtagKeyWordAndThreshold@VA@@U?$less@H@std@@V?$allocator@U?$pair@$$CBHUtagKeyWordAndThreshold@VA@@@std@@@4@$0A@@std@@@std@@QAEPAXI@Z 100d9b80 f i CIssSr.obj
 0002:0002abd0       ??_GErrorInfo@Reader@Json@VA@@QAEPAXI@Z 100d9bd0 f i CIssSr.obj
 0002:0002ac20       ??1_Node@?$_Tree_nod@V?$_Tmap_traits@HUtagKeyWordAndThreshold@VA@@U?$less@H@std@@V?$allocator@U?$pair@$$CBHUtagKeyWordAndThreshold@VA@@@std@@@4@$0A@@std@@@std@@QAE@XZ 100d9c20 f i CIssSr.obj
 0002:0002ac50       ??1ErrorInfo@Reader@Json@VA@@QAE@XZ 100d9c50 f i CIssSr.obj
 0002:0002ac80       ?close_singleton@?$iFly_Singleton_T@V?$Log_Impl_T@V?$Log_Uni_Type@VLog_IO_FILE@VA@@V__LOG_TOK_Log_IO_FILE_isssr_logLog_IO_FILE__@2@@VA@@VLog_Thread_Mutex@2@V?$Log_Cfg_T@VLog_Cfg_Heap_Reg@VA@@ULog_Cfg@2@@2@@VA@@@VA@@SAXXZ 100d9c80 f i CIssSr.obj
 0002:0002ad30       ??4?$Log_Cfg_T@VLog_Cfg_Heap_Reg@VA@@ULog_Cfg@2@@VA@@QAEAAV01@ABV01@@Z 100d9d30 f i CIssSr.obj
 0002:0002afe0       ?output@?$Log_Cfg_T@VLog_Cfg_Heap_Reg@VA@@ULog_Cfg@2@@VA@@QAEXH@Z 100d9fe0 f i CIssSr.obj
 0002:0002b010       ?module@?$Log_Cfg_T@VLog_Cfg_Heap_Reg@VA@@ULog_Cfg@2@@VA@@QAEXPAX@Z 100da010 f i CIssSr.obj
 0002:0002b040       ?set@?$Log_Cfg_T@VLog_Cfg_Heap_Reg@VA@@ULog_Cfg@2@@VA@@QAEXPBULog_Cfg@2@@Z 100da040 f i CIssSr.obj
 0002:0002b270       ?begin@?$vector@V?$basic_string@DU?$char_traits@D@std@@V?$allocator@D@2@@std@@V?$allocator@V?$basic_string@DU?$char_traits@D@std@@V?$allocator@D@2@@std@@@2@@std@@QBE?AV?$_Vector_const_iterator@V?$basic_string@DU?$char_traits@D@std@@V?$allocator@D@2@@std@@V?$allocator@V?$basic_string@DU?$char_traits@D@std@@V?$allocator@D@2@@std@@@2@@2@XZ 100da270 f i CIssSr.obj
 0002:0002b2b0       ??0?$_Vector_const_iterator@V?$basic_string@DU?$char_traits@D@std@@V?$allocator@D@2@@std@@V?$allocator@V?$basic_string@DU?$char_traits@D@std@@V?$allocator@D@2@@std@@@2@@std@@QAE@PAV?$basic_string@DU?$char_traits@D@std@@V?$allocator@D@2@@1@PBV_Container_base_aux@1@@Z 100da2b0 f i CIssSr.obj
 0002:0002b330       ??0?$_Ranit@V?$basic_string@DU?$char_traits@D@std@@V?$allocator@D@2@@std@@HPBV12@ABV12@@std@@QAE@XZ 100da330 f i CIssSr.obj
 0002:0002b360       ??0?$_Iterator_with_base@Urandom_access_iterator_tag@std@@V?$basic_string@DU?$char_traits@D@std@@V?$allocator@D@2@@2@HPBV32@ABV32@V_Iterator_base_aux@2@@std@@QAE@XZ 100da360 f i CIssSr.obj
 0002:0002b390       ?end@?$vector@V?$basic_string@DU?$char_traits@D@std@@V?$allocator@D@2@@std@@V?$allocator@V?$basic_string@DU?$char_traits@D@std@@V?$allocator@D@2@@std@@@2@@std@@QBE?AV?$_Vector_const_iterator@V?$basic_string@DU?$char_traits@D@std@@V?$allocator@D@2@@std@@V?$allocator@V?$basic_string@DU?$char_traits@D@std@@V?$allocator@D@2@@std@@@2@@2@XZ 100da390 f i CIssSr.obj
 0002:0002b3d0       ?need_delelte@?$iFly_Singleton_T@V?$Log_Impl_T@V?$Log_Uni_Type@VLog_IO_FILE@VA@@V__LOG_TOK_Log_IO_FILE_isssr_logLog_IO_FILE__@2@@VA@@VLog_Thread_Mutex@2@V?$Log_Cfg_T@VLog_Cfg_Heap_Reg@VA@@ULog_Cfg@2@@2@@VA@@@VA@@SAAA_NXZ 100da3d0 f i CIssSr.obj
 0002:0002b3f0       ?ref_count@?$iFly_Singleton_T@V?$Log_Impl_T@V?$Log_Uni_Type@VLog_IO_FILE@VA@@V__LOG_TOK_Log_IO_FILE_isssr_logLog_IO_FILE__@2@@VA@@VLog_Thread_Mutex@2@V?$Log_Cfg_T@VLog_Cfg_Heap_Reg@VA@@ULog_Cfg@2@@2@@VA@@@VA@@SAAAHXZ 100da3f0 f i CIssSr.obj
 0002:0002b410       ?open@?$Log_Singleton@V?$Log_Uni_Type@VLog_IO_FILE@VA@@V__LOG_TOK_Log_IO_FILE_isssr_logLog_IO_FILE__@2@@VA@@VLog_Thread_Mutex@2@V?$Log_Cfg_T@VLog_Cfg_Heap_Reg@VA@@ULog_Cfg@2@@2@@VA@@SAHABV?$Log_Cfg_T@VLog_Cfg_Heap_Reg@VA@@ULog_Cfg@2@@2@PAULog_IO@2@PAX@Z 100da410 f i CIssSr.obj
 0002:0002b620       ?cat_path@IFLY_LOG@VA@@YAPBDPADPBDD@Z 100da620 f i CIssSr.obj
 0002:0002b760       ?normalize_path@IFLY_LOG@VA@@YAHQADD@Z 100da760 f i CIssSr.obj
 0002:0002b940       ?get_bin_path@IFLY_LOG@VA@@YAPADQADPAX@Z 100da940 f i CIssSr.obj
 0002:0002ba00       ?mod_path_name@IFLY_LOG@VA@@YA?AV?$basic_string@DU?$char_traits@D@std@@V?$allocator@D@2@@std@@PAX@Z 100daa00 f i CIssSr.obj
 0002:0002baa0       ?is_abs_path@IFLY_LOG@VA@@YA_NPBD@Z 100daaa0 f i CIssSr.obj
 0002:0002bb10       ?pathname_to_path@IFLY_LOG@VA@@YAPADQADPBDD@Z 100dab10 f i CIssSr.obj
 0002:0002bb90       ?strrchr@@YAPADPADH@Z      100dab90 f i CIssSr.obj
 0002:0002bbc0       ?mod_handle@IFLY_LOG@VA@@YAPAXXZ 100dabc0 f i CIssSr.obj
 0002:0002bbe0       ??0?$Log_Cfg_T@VLog_Cfg_Heap_Reg@VA@@ULog_Cfg@2@@VA@@QAE@ABV01@@Z 100dabe0 f i CIssSr.obj
 0002:0002beb0       ??0Log_Cfg@VA@@QAE@ABU01@@Z 100daeb0 f i CIssSr.obj
 0002:0002bee0       ??0?$vector@V?$basic_string@DU?$char_traits@D@std@@V?$allocator@D@2@@std@@V?$allocator@V?$basic_string@DU?$char_traits@D@std@@V?$allocator@D@2@@std@@@2@@std@@QAE@ABV01@@Z 100daee0 f i CIssSr.obj
 0002:0002c020       ?size@?$vector@V?$basic_string@DU?$char_traits@D@std@@V?$allocator@D@2@@std@@V?$allocator@V?$basic_string@DU?$char_traits@D@std@@V?$allocator@D@2@@std@@@2@@std@@QBEIXZ 100db020 f i CIssSr.obj
 0002:0002c050       ?read_config@?$Log_Cfg_T@VLog_Cfg_Heap_Reg@VA@@ULog_Cfg@2@@VA@@QAEHPBD0@Z 100db050 f i CIssSr.obj
 0002:0002cfd0       ?file_mtime@IFLY_LOG@VA@@YA_JPBD@Z 100dbfd0 f i CIssSr.obj
 0002:0002d050       ?open@Log_Cfg_Heap_Reg@VA@@QAEHPBD0@Z 100dc050 f i CIssSr.obj
 0002:0002d170       ?close@Log_Cfg_Heap_Reg@VA@@QAEHXZ 100dc170 f i CIssSr.obj
 0002:0002d1c0       ?get_string_value@Log_Cfg_Heap_Reg@VA@@QAEHPBDAAV?$basic_string@DU?$char_traits@D@std@@V?$allocator@D@2@@std@@0@Z 100dc1c0 f i CIssSr.obj
 0002:0002d360       ?get_string_arr@Log_Cfg_Heap_Reg@VA@@QAEHPBDAAV?$vector@V?$basic_string@DU?$char_traits@D@std@@V?$allocator@D@2@@std@@V?$allocator@V?$basic_string@DU?$char_traits@D@std@@V?$allocator@D@2@@std@@@2@@std@@@Z 100dc360 f i CIssSr.obj
 0002:0002d440       ?split_str@IFLY_LOG@VA@@YAHPBDAAV?$vector@V?$basic_string@DU?$char_traits@D@std@@V?$allocator@D@2@@std@@V?$allocator@V?$basic_string@DU?$char_traits@D@std@@V?$allocator@D@2@@std@@@2@@std@@QBD_N33@Z 100dc440 f i CIssSr.obj
 0002:0002d740       ?trim_str@IFLY_LOG@VA@@YAHPADD@Z 100dc740 f i CIssSr.obj
 0002:0002d860       ??0Log_Cfg_Heap_Reg@VA@@QAE@XZ 100dc860 f i CIssSr.obj
 0002:0002d900       ??_GLog_Cfg_Heap_Reg@VA@@UAEPAXI@Z 100dc900 f i CIssSr.obj
 0002:0002d900       ??_ELog_Cfg_Heap_Reg@VA@@UAEPAXI@Z 100dc900 f i CIssSr.obj
 0002:0002d950       ??1Log_Cfg_Heap_Reg@VA@@UAE@XZ 100dc950 f i CIssSr.obj
 0002:0002d9f0       ?push_back@?$vector@V?$basic_string@DU?$char_traits@D@std@@V?$allocator@D@2@@std@@V?$allocator@V?$basic_string@DU?$char_traits@D@std@@V?$allocator@D@2@@std@@@2@@std@@QAEXABV?$basic_string@DU?$char_traits@D@std@@V?$allocator@D@2@@2@@Z 100dc9f0 f i CIssSr.obj
 0002:0002da90       ?capacity@?$vector@V?$basic_string@DU?$char_traits@D@std@@V?$allocator@D@2@@std@@V?$allocator@V?$basic_string@DU?$char_traits@D@std@@V?$allocator@D@2@@std@@@2@@std@@QBEIXZ 100dca90 f i CIssSr.obj
 0002:0002dae0       ?end@?$vector@V?$basic_string@DU?$char_traits@D@std@@V?$allocator@D@2@@std@@V?$allocator@V?$basic_string@DU?$char_traits@D@std@@V?$allocator@D@2@@std@@@2@@std@@QAE?AV?$_Vector_iterator@V?$basic_string@DU?$char_traits@D@std@@V?$allocator@D@2@@std@@V?$allocator@V?$basic_string@DU?$char_traits@D@std@@V?$allocator@D@2@@std@@@2@@2@XZ 100dcae0 f i CIssSr.obj
 0002:0002db20       ?insert@?$vector@V?$basic_string@DU?$char_traits@D@std@@V?$allocator@D@2@@std@@V?$allocator@V?$basic_string@DU?$char_traits@D@std@@V?$allocator@D@2@@std@@@2@@std@@QAE?AV?$_Vector_iterator@V?$basic_string@DU?$char_traits@D@std@@V?$allocator@D@2@@std@@V?$allocator@V?$basic_string@DU?$char_traits@D@std@@V?$allocator@D@2@@std@@@2@@2@V?$_Vector_const_iterator@V?$basic_string@DU?$char_traits@D@std@@V?$allocator@D@2@@std@@V?$allocator@V?$basic_string@DU?$char_traits@D@std@@V?$allocator@D@2@@std@@@2@@2@ABV?$basic_string@DU?$char_traits@D@std@@V?$allocator@D@2@@2@@Z 100dcb20 f i CIssSr.obj
 0002:0002dbc0       ?begin@?$vector@V?$basic_string@DU?$char_traits@D@std@@V?$allocator@D@2@@std@@V?$allocator@V?$basic_string@DU?$char_traits@D@std@@V?$allocator@D@2@@std@@@2@@std@@QAE?AV?$_Vector_iterator@V?$basic_string@DU?$char_traits@D@std@@V?$allocator@D@2@@std@@V?$allocator@V?$basic_string@DU?$char_traits@D@std@@V?$allocator@D@2@@std@@@2@@2@XZ 100dcbc0 f i CIssSr.obj
 0002:0002dc00       ?_Ufill@?$vector@V?$basic_string@DU?$char_traits@D@std@@V?$allocator@D@2@@std@@V?$allocator@V?$basic_string@DU?$char_traits@D@std@@V?$allocator@D@2@@std@@@2@@std@@IAEPAV?$basic_string@DU?$char_traits@D@std@@V?$allocator@D@2@@2@PAV32@IABV32@@Z 100dcc00 f i CIssSr.obj
 0002:0002dc50       ?_Insert_n@?$vector@V?$basic_string@DU?$char_traits@D@std@@V?$allocator@D@2@@std@@V?$allocator@V?$basic_string@DU?$char_traits@D@std@@V?$allocator@D@2@@std@@@2@@std@@IAEXV?$_Vector_const_iterator@V?$basic_string@DU?$char_traits@D@std@@V?$allocator@D@2@@std@@V?$allocator@V?$basic_string@DU?$char_traits@D@std@@V?$allocator@D@2@@std@@@2@@2@IABV?$basic_string@DU?$char_traits@D@std@@V?$allocator@D@2@@2@@Z 100dcc50 f i CIssSr.obj
 0002:0002e100       ??0?$_Vector_iterator@V?$basic_string@DU?$char_traits@D@std@@V?$allocator@D@2@@std@@V?$allocator@V?$basic_string@DU?$char_traits@D@std@@V?$allocator@D@2@@std@@@2@@std@@QAE@PAV?$basic_string@DU?$char_traits@D@std@@V?$allocator@D@2@@1@PBV_Container_base_aux@1@@Z 100dd100 f i CIssSr.obj
 0002:0002e140       ??H?$_Vector_iterator@V?$basic_string@DU?$char_traits@D@std@@V?$allocator@D@2@@std@@V?$allocator@V?$basic_string@DU?$char_traits@D@std@@V?$allocator@D@2@@std@@@2@@std@@QBE?AV01@H@Z 100dd140 f i CIssSr.obj
 0002:0002e190       ??G?$_Vector_const_iterator@V?$basic_string@DU?$char_traits@D@std@@V?$allocator@D@2@@std@@V?$allocator@V?$basic_string@DU?$char_traits@D@std@@V?$allocator@D@2@@std@@@2@@std@@QBEHABV01@@Z 100dd190 f i CIssSr.obj
 0002:0002e200       ??Y?$_Vector_iterator@V?$basic_string@DU?$char_traits@D@std@@V?$allocator@D@2@@std@@V?$allocator@V?$basic_string@DU?$char_traits@D@std@@V?$allocator@D@2@@std@@@2@@std@@QAEAAV01@H@Z 100dd200 f i CIssSr.obj
 0002:0002e230       ??Y?$_Vector_const_iterator@V?$basic_string@DU?$char_traits@D@std@@V?$allocator@D@2@@std@@V?$allocator@V?$basic_string@DU?$char_traits@D@std@@V?$allocator@D@2@@std@@@2@@std@@QAEAAV01@H@Z 100dd230 f i CIssSr.obj
 0002:0002e2d0       ??$min@H@std@@YAABHABH0@Z  100dd2d0 f i CIssSr.obj
 0002:0002e310       ??$unchecked_uninitialized_fill_n@PAV?$basic_string@DU?$char_traits@D@std@@V?$allocator@D@2@@std@@IV12@V?$allocator@V?$basic_string@DU?$char_traits@D@std@@V?$allocator@D@2@@std@@@2@@stdext@@YAXPAV?$basic_string@DU?$char_traits@D@std@@V?$allocator@D@2@@std@@IABV12@AAV?$allocator@V?$basic_string@DU?$char_traits@D@std@@V?$allocator@D@2@@std@@@2@@Z 100dd310 f i CIssSr.obj
 0002:0002e370       ??$_Umove@PAV?$basic_string@DU?$char_traits@D@std@@V?$allocator@D@2@@std@@@?$vector@V?$basic_string@DU?$char_traits@D@std@@V?$allocator@D@2@@std@@V?$allocator@V?$basic_string@DU?$char_traits@D@std@@V?$allocator@D@2@@std@@@2@@std@@IAEPAV?$basic_string@DU?$char_traits@D@std@@V?$allocator@D@2@@1@PAV21@00@Z 100dd370 f i CIssSr.obj
 0002:0002e3b0       ??$fill@PAV?$basic_string@DU?$char_traits@D@std@@V?$allocator@D@2@@std@@V12@@std@@YAXPAV?$basic_string@DU?$char_traits@D@std@@V?$allocator@D@2@@0@0ABV10@@Z 100dd3b0 f i CIssSr.obj
 0002:0002e400       ??$_Unchecked_move_backward@PAV?$basic_string@DU?$char_traits@D@std@@V?$allocator@D@2@@std@@PAV12@@stdext@@YAPAV?$basic_string@DU?$char_traits@D@std@@V?$allocator@D@2@@std@@PAV12@00@Z 100dd400 f i CIssSr.obj
 0002:0002e490       ?flush@?$Log_Impl_T@V?$Log_Uni_Type@VLog_IO_FILE@VA@@V__LOG_TOK_Log_IO_FILE_isssr_logLog_IO_FILE__@2@@VA@@VLog_Thread_Mutex@2@V?$Log_Cfg_T@VLog_Cfg_Heap_Reg@VA@@ULog_Cfg@2@@2@@VA@@QAEXXZ 100dd490 f i CIssSr.obj
 0002:0002e540       ??0?$Log_Mutex_Guard@ULog_Mutex@VA@@@VA@@QAE@PAULog_Mutex@1@@Z 100dd540 f i CIssSr.obj
 0002:0002e590       ??1?$Log_Mutex_Guard@ULog_Mutex@VA@@@VA@@QAE@XZ 100dd590 f i CIssSr.obj
 0002:0002e5d0       ??$_Checked_base@PAV?$basic_string@DU?$char_traits@D@std@@V?$allocator@D@2@@std@@@std@@YAPAV?$basic_string@DU?$char_traits@D@std@@V?$allocator@D@2@@0@AAPAV10@@Z 100dd5d0 f i CIssSr.obj
 0002:0002e600       ??$_Iter_random@PAV?$basic_string@DU?$char_traits@D@std@@V?$allocator@D@2@@std@@PAV12@@std@@YA?AUrandom_access_iterator_tag@0@ABQAV?$basic_string@DU?$char_traits@D@std@@V?$allocator@D@2@@0@0@Z 100dd600 f i CIssSr.obj
 0002:0002e620       ??$_Ptr_cat@PAV?$basic_string@DU?$char_traits@D@std@@V?$allocator@D@2@@std@@PAV12@@std@@YA?AU_Nonscalar_ptr_iterator_tag@0@AAPAV?$basic_string@DU?$char_traits@D@std@@V?$allocator@D@2@@0@0@Z 100dd620 f i CIssSr.obj
 0002:0002e640       ??$_Uninit_fill_n@PAV?$basic_string@DU?$char_traits@D@std@@V?$allocator@D@2@@std@@IV12@V?$allocator@V?$basic_string@DU?$char_traits@D@std@@V?$allocator@D@2@@std@@@2@@std@@YAXPAV?$basic_string@DU?$char_traits@D@std@@V?$allocator@D@2@@0@IABV10@AAV?$allocator@V?$basic_string@DU?$char_traits@D@std@@V?$allocator@D@2@@std@@@0@U_Nonscalar_ptr_iterator_tag@0@U_Range_checked_iterator_tag@0@@Z 100dd640 f i CIssSr.obj
 0002:0002e730       ?construct@?$allocator@V?$basic_string@DU?$char_traits@D@std@@V?$allocator@D@2@@std@@@std@@QAEXPAV?$basic_string@DU?$char_traits@D@std@@V?$allocator@D@2@@2@ABV32@@Z 100dd730 f i CIssSr.obj
 0002:0002e760       ??$_Construct@V?$basic_string@DU?$char_traits@D@std@@V?$allocator@D@2@@std@@V12@@std@@YAXPAV?$basic_string@DU?$char_traits@D@std@@V?$allocator@D@2@@0@ABV10@@Z 100dd760 f i CIssSr.obj
 0002:0002e810       ??$_Destroy_range@V?$allocator@V?$basic_string@DU?$char_traits@D@std@@V?$allocator@D@2@@std@@@std@@@std@@YAXPAV?$basic_string@DU?$char_traits@D@std@@V?$allocator@D@2@@0@0AAV?$allocator@V?$basic_string@DU?$char_traits@D@std@@V?$allocator@D@2@@std@@@0@U_Nonscalar_ptr_iterator_tag@0@@Z 100dd810 f i CIssSr.obj
 0002:0002e850       ??$_Unchecked_uninitialized_move@PAV?$basic_string@DU?$char_traits@D@std@@V?$allocator@D@2@@std@@PAV12@V?$allocator@V?$basic_string@DU?$char_traits@D@std@@V?$allocator@D@2@@std@@@2@@stdext@@YAPAV?$basic_string@DU?$char_traits@D@std@@V?$allocator@D@2@@std@@PAV12@00AAV?$allocator@V?$basic_string@DU?$char_traits@D@std@@V?$allocator@D@2@@std@@@2@@Z 100dd850 f i CIssSr.obj
 0002:0002e8c0       ??$_Fill@PAV?$basic_string@DU?$char_traits@D@std@@V?$allocator@D@2@@std@@V12@@std@@YAXPAV?$basic_string@DU?$char_traits@D@std@@V?$allocator@D@2@@0@0ABV10@@Z 100dd8c0 f i CIssSr.obj
 0002:0002e900       ??$_Move_cat@PAV?$basic_string@DU?$char_traits@D@std@@V?$allocator@D@2@@std@@@std@@YA?AU_Swap_move_tag@0@ABQAV?$basic_string@DU?$char_traits@D@std@@V?$allocator@D@2@@0@@Z 100dd900 f i CIssSr.obj
 0002:0002e920       ??$_Move_backward_opt@PAV?$basic_string@DU?$char_traits@D@std@@V?$allocator@D@2@@std@@PAV12@@std@@YAPAV?$basic_string@DU?$char_traits@D@std@@V?$allocator@D@2@@0@PAV10@00Urandom_access_iterator_tag@0@U_Swap_move_tag@0@U_Range_checked_iterator_tag@0@@Z 100dd920 f i CIssSr.obj
 0002:0002e9a0       ??$_Ucopy@V?$_Vector_const_iterator@V?$basic_string@DU?$char_traits@D@std@@V?$allocator@D@2@@std@@V?$allocator@V?$basic_string@DU?$char_traits@D@std@@V?$allocator@D@2@@std@@@2@@std@@@?$vector@V?$basic_string@DU?$char_traits@D@std@@V?$allocator@D@2@@std@@V?$allocator@V?$basic_string@DU?$char_traits@D@std@@V?$allocator@D@2@@std@@@2@@std@@IAEPAV?$basic_string@DU?$char_traits@D@std@@V?$allocator@D@2@@1@V?$_Vector_const_iterator@V?$basic_string@DU?$char_traits@D@std@@V?$allocator@D@2@@std@@V?$allocator@V?$basic_string@DU?$char_traits@D@std@@V?$allocator@D@2@@std@@@2@@1@0PAV21@@Z 100dd9a0 f i CIssSr.obj
 0002:0002e9f0       ??$assign@V?$_Vector_const_iterator@V?$basic_string@DU?$char_traits@D@std@@V?$allocator@D@2@@std@@V?$allocator@V?$basic_string@DU?$char_traits@D@std@@V?$allocator@D@2@@std@@@2@@std@@@?$vector@V?$basic_string@DU?$char_traits@D@std@@V?$allocator@D@2@@std@@V?$allocator@V?$basic_string@DU?$char_traits@D@std@@V?$allocator@D@2@@std@@@2@@std@@QAEXV?$_Vector_const_iterator@V?$basic_string@DU?$char_traits@D@std@@V?$allocator@D@2@@std@@V?$allocator@V?$basic_string@DU?$char_traits@D@std@@V?$allocator@D@2@@std@@@2@@1@0@Z 100dd9f0 f i CIssSr.obj
 0002:0002ea50       ?destroy@?$allocator@V?$basic_string@DU?$char_traits@D@std@@V?$allocator@D@2@@std@@@std@@QAEXPAV?$basic_string@DU?$char_traits@D@std@@V?$allocator@D@2@@2@@Z 100dda50 f i CIssSr.obj
 0002:0002ea80       ?open_singleton@?$iFly_Singleton_T@V?$Log_Impl_T@V?$Log_Uni_Type@VLog_IO_FILE@VA@@V__LOG_TOK_Log_IO_FILE_isssr_logLog_IO_FILE__@2@@VA@@VLog_Thread_Mutex@2@V?$Log_Cfg_T@VLog_Cfg_Heap_Reg@VA@@ULog_Cfg@2@@2@@VA@@@VA@@SAPAV?$Log_Impl_T@V?$Log_Uni_Type@VLog_IO_FILE@VA@@V__LOG_TOK_Log_IO_FILE_isssr_logLog_IO_FILE__@2@@VA@@VLog_Thread_Mutex@2@V?$Log_Cfg_T@VLog_Cfg_Heap_Reg@VA@@ULog_Cfg@2@@2@@2@XZ 100dda80 f i CIssSr.obj
 0002:0002eb60       ??0?$Log_Impl_T@V?$Log_Uni_Type@VLog_IO_FILE@VA@@V__LOG_TOK_Log_IO_FILE_isssr_logLog_IO_FILE__@2@@VA@@VLog_Thread_Mutex@2@V?$Log_Cfg_T@VLog_Cfg_Heap_Reg@VA@@ULog_Cfg@2@@2@@VA@@QAE@XZ 100ddb60 f i CIssSr.obj
 0002:0002ec10       ?open@?$Log_Impl_T@V?$Log_Uni_Type@VLog_IO_FILE@VA@@V__LOG_TOK_Log_IO_FILE_isssr_logLog_IO_FILE__@2@@VA@@VLog_Thread_Mutex@2@V?$Log_Cfg_T@VLog_Cfg_Heap_Reg@VA@@ULog_Cfg@2@@2@@VA@@UAEHPBV?$Log_Cfg_T@VLog_Cfg_Heap_Reg@VA@@ULog_Cfg@2@@2@PAV?$Log_Uni_Type@VLog_IO_FILE@VA@@V__LOG_TOK_Log_IO_FILE_isssr_logLog_IO_FILE__@2@@2@PAX@Z 100ddc10 f i CIssSr.obj
 0002:0002f420       ?create_directory@IFLY_LOG@VA@@YAHPBD_N1@Z 100de420 f i CIssSr.obj
 0002:0002f5f0       ?is_dir_exist@IFLY_LOG@VA@@YA_NPBD@Z 100de5f0 f i CIssSr.obj
 0002:0002f630       ?path_to_dir_tree@IFLY_LOG@VA@@YAHPBDAAV?$vector@V?$basic_string@DU?$char_traits@D@std@@V?$allocator@D@2@@std@@V?$allocator@V?$basic_string@DU?$char_traits@D@std@@V?$allocator@D@2@@std@@@2@@std@@@Z 100de630 f i CIssSr.obj
 0002:0002f840       ??0Log_Thread_Mutex@VA@@QAE@_N@Z 100de840 f i CIssSr.obj
 0002:0002f8a0       ?name@Log_Thread_Mutex@VA@@UAEPBDXZ 100de8a0 f i CIssSr.obj
 0002:0002f8c0       ?open@Log_Thread_Mutex@VA@@UAEHPBD@Z 100de8c0 f i CIssSr.obj
 0002:0002f930       ?close@Log_Thread_Mutex@VA@@UAEH_N@Z 100de930 f i CIssSr.obj
 0002:0002f990       ?acquire@Log_Thread_Mutex@VA@@UAEHH@Z 100de990 f i CIssSr.obj
 0002:0002f9c0       ?release@Log_Thread_Mutex@VA@@UAEHXZ 100de9c0 f i CIssSr.obj
 0002:0002f9f0       ??A?$vector@V?$basic_string@DU?$char_traits@D@std@@V?$allocator@D@2@@std@@V?$allocator@V?$basic_string@DU?$char_traits@D@std@@V?$allocator@D@2@@std@@@2@@std@@QAEAAV?$basic_string@DU?$char_traits@D@std@@V?$allocator@D@2@@1@I@Z 100de9f0 f i CIssSr.obj
 0002:0002fa40       ?close@?$Log_Impl_T@V?$Log_Uni_Type@VLog_IO_FILE@VA@@V__LOG_TOK_Log_IO_FILE_isssr_logLog_IO_FILE__@2@@VA@@VLog_Thread_Mutex@2@V?$Log_Cfg_T@VLog_Cfg_Heap_Reg@VA@@ULog_Cfg@2@@2@@VA@@UAEHXZ 100dea40 f i CIssSr.obj
 0002:0002fc50       ?lock@?$Log_Impl_T@V?$Log_Uni_Type@VLog_IO_FILE@VA@@V__LOG_TOK_Log_IO_FILE_isssr_logLog_IO_FILE__@2@@VA@@VLog_Thread_Mutex@2@V?$Log_Cfg_T@VLog_Cfg_Heap_Reg@VA@@ULog_Cfg@2@@2@@VA@@UAEHH@Z 100dec50 f i CIssSr.obj
 0002:0002fcb0       ?unlock@?$Log_Impl_T@V?$Log_Uni_Type@VLog_IO_FILE@VA@@V__LOG_TOK_Log_IO_FILE_isssr_logLog_IO_FILE__@2@@VA@@VLog_Thread_Mutex@2@V?$Log_Cfg_T@VLog_Cfg_Heap_Reg@VA@@ULog_Cfg@2@@2@@VA@@UAEHXZ 100decb0 f i CIssSr.obj
 0002:0002fd00       ?log_msg_i@?$Log_Impl_T@V?$Log_Uni_Type@VLog_IO_FILE@VA@@V__LOG_TOK_Log_IO_FILE_isssr_logLog_IO_FILE__@2@@VA@@VLog_Thread_Mutex@2@V?$Log_Cfg_T@VLog_Cfg_Heap_Reg@VA@@ULog_Cfg@2@@2@@VA@@UAEXW4LOG_LEVEL@2@PB_W@Z 100ded00 f i CIssSr.obj
 0002:0002fd40       ?log_msg_i@?$Log_Impl_T@V?$Log_Uni_Type@VLog_IO_FILE@VA@@V__LOG_TOK_Log_IO_FILE_isssr_logLog_IO_FILE__@2@@VA@@VLog_Thread_Mutex@2@V?$Log_Cfg_T@VLog_Cfg_Heap_Reg@VA@@ULog_Cfg@2@@2@@VA@@UAEXW4LOG_LEVEL@2@PBD@Z 100ded40 f i CIssSr.obj
 0002:0002fd80       ?log_msg_i@?$Log_Impl_T@V?$Log_Uni_Type@VLog_IO_FILE@VA@@V__LOG_TOK_Log_IO_FILE_isssr_logLog_IO_FILE__@2@@VA@@VLog_Thread_Mutex@2@V?$Log_Cfg_T@VLog_Cfg_Heap_Reg@VA@@ULog_Cfg@2@@2@@VA@@UAEXPBDW4LOG_LEVEL@2@HPB_W@Z 100ded80 f i CIssSr.obj
 0002:000308c0       ?swprintf@@YAHPA_WPB_WZZ   100df8c0 f i CIssSr.obj
 0002:00030910       ?getpid@IFLY_LOG@VA@@YAHXZ 100df910 f i CIssSr.obj
 0002:00030930       ?thr_self@IFLY_LOG@VA@@YAHXZ 100df930 f i CIssSr.obj
 0002:00030950       ?char2wchar@IFLY_LOG@VA@@YA?AV?$basic_string@_WU?$char_traits@_W@std@@V?$allocator@_W@2@@std@@PBDPAI@Z 100df950 f i CIssSr.obj
 0002:00030b80       ?wchar2char@IFLY_LOG@VA@@YA?AV?$basic_string@DU?$char_traits@D@std@@V?$allocator@D@2@@std@@PB_WPAI@Z 100dfb80 f i CIssSr.obj
 0002:00030da0       ??$max@I@std@@YAABIABI0@Z  100dfda0 f i CIssSr.obj
 0002:00030de0       ?log_msg_i@?$Log_Impl_T@V?$Log_Uni_Type@VLog_IO_FILE@VA@@V__LOG_TOK_Log_IO_FILE_isssr_logLog_IO_FILE__@2@@VA@@VLog_Thread_Mutex@2@V?$Log_Cfg_T@VLog_Cfg_Heap_Reg@VA@@ULog_Cfg@2@@2@@VA@@UAEXPBDW4LOG_LEVEL@2@H0@Z 100dfde0 f i CIssSr.obj
 0002:00031820       ?write@?$Log_Impl_T@V?$Log_Uni_Type@VLog_IO_FILE@VA@@V__LOG_TOK_Log_IO_FILE_isssr_logLog_IO_FILE__@2@@VA@@VLog_Thread_Mutex@2@V?$Log_Cfg_T@VLog_Cfg_Heap_Reg@VA@@ULog_Cfg@2@@2@@VA@@UAEHPBXH@Z 100e0820 f i CIssSr.obj
 0002:00031a30       ?write_bound@?$Log_Impl_T@V?$Log_Uni_Type@VLog_IO_FILE@VA@@V__LOG_TOK_Log_IO_FILE_isssr_logLog_IO_FILE__@2@@VA@@VLog_Thread_Mutex@2@V?$Log_Cfg_T@VLog_Cfg_Heap_Reg@VA@@ULog_Cfg@2@@2@@VA@@UAEXD@Z 100e0a30 f i CIssSr.obj
 0002:00031c90       ?subject@?$Log_Impl_T@V?$Log_Uni_Type@VLog_IO_FILE@VA@@V__LOG_TOK_Log_IO_FILE_isssr_logLog_IO_FILE__@2@@VA@@VLog_Thread_Mutex@2@V?$Log_Cfg_T@VLog_Cfg_Heap_Reg@VA@@ULog_Cfg@2@@2@@VA@@MBEPBDHPADH@Z 100e0c90 f i CIssSr.obj
 0002:00031ce0       ?level_str@?$Log_Impl_T@V?$Log_Uni_Type@VLog_IO_FILE@VA@@V__LOG_TOK_Log_IO_FILE_isssr_logLog_IO_FILE__@2@@VA@@VLog_Thread_Mutex@2@V?$Log_Cfg_T@VLog_Cfg_Heap_Reg@VA@@ULog_Cfg@2@@2@@VA@@MBEPBDH@Z 100e0ce0 f i CIssSr.obj
 0002:00031d30       ?ln2@IFLY_LOG@VA@@YAHI@Z   100e0d30 f i CIssSr.obj
 0002:00031df0       ?encrypt@?$Log_Impl_T@V?$Log_Uni_Type@VLog_IO_FILE@VA@@V__LOG_TOK_Log_IO_FILE_isssr_logLog_IO_FILE__@2@@VA@@VLog_Thread_Mutex@2@V?$Log_Cfg_T@VLog_Cfg_Heap_Reg@VA@@ULog_Cfg@2@@2@@VA@@MAEHPAXH@Z 100e0df0 f i CIssSr.obj
 0002:00031e70       ?sub_output@?$Log_Impl_T@V?$Log_Uni_Type@VLog_IO_FILE@VA@@V__LOG_TOK_Log_IO_FILE_isssr_logLog_IO_FILE__@2@@VA@@VLog_Thread_Mutex@2@V?$Log_Cfg_T@VLog_Cfg_Heap_Reg@VA@@ULog_Cfg@2@@2@@VA@@MBE_NPBD@Z 100e0e70 f i CIssSr.obj
 0002:00031e90       ?sub_output@?$Log_Impl_T@V?$Log_Uni_Type@VLog_IO_FILE@VA@@V__LOG_TOK_Log_IO_FILE_isssr_logLog_IO_FILE__@2@@VA@@VLog_Thread_Mutex@2@V?$Log_Cfg_T@VLog_Cfg_Heap_Reg@VA@@ULog_Cfg@2@@2@@VA@@MBE_NH@Z 100e0e90 f i CIssSr.obj
 0002:00031ef0       ?write_head@?$Log_Impl_T@V?$Log_Uni_Type@VLog_IO_FILE@VA@@V__LOG_TOK_Log_IO_FILE_isssr_logLog_IO_FILE__@2@@VA@@VLog_Thread_Mutex@2@V?$Log_Cfg_T@VLog_Cfg_Heap_Reg@VA@@ULog_Cfg@2@@2@@VA@@MAEX_N@Z 100e0ef0 f i CIssSr.obj
 0002:00032470       ?mod_version@IFLY_LOG@VA@@YA?AV?$basic_string@DU?$char_traits@D@std@@V?$allocator@D@2@@std@@PBD@Z 100e1470 f i CIssSr.obj
 0002:00032740       ?file_mtime_str@IFLY_LOG@VA@@YA?AV?$basic_string@DU?$char_traits@D@std@@V?$allocator@D@2@@std@@PBD0@Z 100e1740 f i CIssSr.obj
 0002:000328d0       ?write_tail@?$Log_Impl_T@V?$Log_Uni_Type@VLog_IO_FILE@VA@@V__LOG_TOK_Log_IO_FILE_isssr_logLog_IO_FILE__@2@@VA@@VLog_Thread_Mutex@2@V?$Log_Cfg_T@VLog_Cfg_Heap_Reg@VA@@ULog_Cfg@2@@2@@VA@@MAEX_N@Z 100e18d0 f i CIssSr.obj
 0002:00032ae0       ?back_file@?$Log_Impl_T@V?$Log_Uni_Type@VLog_IO_FILE@VA@@V__LOG_TOK_Log_IO_FILE_isssr_logLog_IO_FILE__@2@@VA@@VLog_Thread_Mutex@2@V?$Log_Cfg_T@VLog_Cfg_Heap_Reg@VA@@ULog_Cfg@2@@2@@VA@@MAEHXZ 100e1ae0 f i CIssSr.obj
 0002:00032fb0       ?pathname_to_noextname@IFLY_LOG@VA@@YAPADQADPBDD@Z 100e1fb0 f i CIssSr.obj
 0002:00033010       ?pathname_to_name@IFLY_LOG@VA@@YAPADQADPBDD@Z 100e2010 f i CIssSr.obj
 0002:00033100       ?find_files@IFLY_LOG@VA@@YAHPBD0AAV?$list@V?$basic_string@DU?$char_traits@D@std@@V?$allocator@D@2@@std@@V?$allocator@V?$basic_string@DU?$char_traits@D@std@@V?$allocator@D@2@@std@@@2@@std@@_N@Z 100e2100 f i CIssSr.obj
 0002:00033350       ??0?$list@V?$basic_string@DU?$char_traits@D@std@@V?$allocator@D@2@@std@@V?$allocator@V?$basic_string@DU?$char_traits@D@std@@V?$allocator@D@2@@std@@@2@@std@@QAE@XZ 100e2350 f i CIssSr.obj
 0002:000333f0       ??1?$list@V?$basic_string@DU?$char_traits@D@std@@V?$allocator@D@2@@std@@V?$allocator@V?$basic_string@DU?$char_traits@D@std@@V?$allocator@D@2@@std@@@2@@std@@QAE@XZ 100e23f0 f i CIssSr.obj
 0002:00033470       ?push_back@?$list@V?$basic_string@DU?$char_traits@D@std@@V?$allocator@D@2@@std@@V?$allocator@V?$basic_string@DU?$char_traits@D@std@@V?$allocator@D@2@@std@@@2@@std@@QAEXABV?$basic_string@DU?$char_traits@D@std@@V?$allocator@D@2@@2@@Z 100e2470 f i CIssSr.obj
 0002:000334c0       ??1?$_List_val@V?$basic_string@DU?$char_traits@D@std@@V?$allocator@D@2@@std@@V?$allocator@V?$basic_string@DU?$char_traits@D@std@@V?$allocator@D@2@@std@@@2@@std@@QAE@XZ 100e24c0 f i CIssSr.obj
 0002:000334f0       ??1?$_List_ptr@V?$basic_string@DU?$char_traits@D@std@@V?$allocator@D@2@@std@@V?$allocator@V?$basic_string@DU?$char_traits@D@std@@V?$allocator@D@2@@std@@@2@@std@@QAE@XZ 100e24f0 f i CIssSr.obj
 0002:00033520       ??1?$_List_nod@V?$basic_string@DU?$char_traits@D@std@@V?$allocator@D@2@@std@@V?$allocator@V?$basic_string@DU?$char_traits@D@std@@V?$allocator@D@2@@std@@@2@@std@@QAE@XZ 100e2520 f i CIssSr.obj
 0002:00033550       ?end@?$list@V?$basic_string@DU?$char_traits@D@std@@V?$allocator@D@2@@std@@V?$allocator@V?$basic_string@DU?$char_traits@D@std@@V?$allocator@D@2@@std@@@2@@std@@QAE?AV?$_Iterator@$00@12@XZ 100e2550 f i CIssSr.obj
 0002:00033590       ?_Insert@?$list@V?$basic_string@DU?$char_traits@D@std@@V?$allocator@D@2@@std@@V?$allocator@V?$basic_string@DU?$char_traits@D@std@@V?$allocator@D@2@@std@@@2@@std@@QAEXV?$_Const_iterator@$00@12@ABV?$basic_string@DU?$char_traits@D@std@@V?$allocator@D@2@@2@@Z 100e2590 f i CIssSr.obj
 0002:00033630       ?_Buynode@?$list@V?$basic_string@DU?$char_traits@D@std@@V?$allocator@D@2@@std@@V?$allocator@V?$basic_string@DU?$char_traits@D@std@@V?$allocator@D@2@@std@@@2@@std@@IAEPAU_Node@?$_List_nod@V?$basic_string@DU?$char_traits@D@std@@V?$allocator@D@2@@std@@V?$allocator@V?$basic_string@DU?$char_traits@D@std@@V?$allocator@D@2@@std@@@2@@2@XZ 100e2630 f i CIssSr.obj
 0002:00033770       ?_Tidy@?$list@V?$basic_string@DU?$char_traits@D@std@@V?$allocator@D@2@@std@@V?$allocator@V?$basic_string@DU?$char_traits@D@std@@V?$allocator@D@2@@std@@@2@@std@@IAEXXZ 100e2770 f i CIssSr.obj
 0002:00033800       ??0?$_List_val@V?$basic_string@DU?$char_traits@D@std@@V?$allocator@D@2@@std@@V?$allocator@V?$basic_string@DU?$char_traits@D@std@@V?$allocator@D@2@@std@@@2@@std@@QAE@V?$allocator@V?$basic_string@DU?$char_traits@D@std@@V?$allocator@D@2@@std@@@1@@Z 100e2800 f i CIssSr.obj
 0002:00033850       ?_Nextnode@?$list@V?$basic_string@DU?$char_traits@D@std@@V?$allocator@D@2@@std@@V?$allocator@V?$basic_string@DU?$char_traits@D@std@@V?$allocator@D@2@@std@@@2@@std@@KAAAPAU_Node@?$_List_nod@V?$basic_string@DU?$char_traits@D@std@@V?$allocator@D@2@@std@@V?$allocator@V?$basic_string@DU?$char_traits@D@std@@V?$allocator@D@2@@std@@@2@@2@PAU342@@Z 100e2850 f i CIssSr.obj
 0002:00033870       ?_Prevnode@?$list@V?$basic_string@DU?$char_traits@D@std@@V?$allocator@D@2@@std@@V?$allocator@V?$basic_string@DU?$char_traits@D@std@@V?$allocator@D@2@@std@@@2@@std@@KAAAPAU_Node@?$_List_nod@V?$basic_string@DU?$char_traits@D@std@@V?$allocator@D@2@@std@@V?$allocator@V?$basic_string@DU?$char_traits@D@std@@V?$allocator@D@2@@std@@@2@@2@PAU342@@Z 100e2870 f i CIssSr.obj
 0002:00033890       ?clear@?$list@V?$basic_string@DU?$char_traits@D@std@@V?$allocator@D@2@@std@@V?$allocator@V?$basic_string@DU?$char_traits@D@std@@V?$allocator@D@2@@std@@@2@@std@@QAEXXZ 100e2890 f i CIssSr.obj
 0002:00033960       ?_Buynode@?$list@V?$basic_string@DU?$char_traits@D@std@@V?$allocator@D@2@@std@@V?$allocator@V?$basic_string@DU?$char_traits@D@std@@V?$allocator@D@2@@std@@@2@@std@@IAEPAU_Node@?$_List_nod@V?$basic_string@DU?$char_traits@D@std@@V?$allocator@D@2@@std@@V?$allocator@V?$basic_string@DU?$char_traits@D@std@@V?$allocator@D@2@@std@@@2@@2@PAU342@0ABV?$basic_string@DU?$char_traits@D@std@@V?$allocator@D@2@@2@@Z 100e2960 f i CIssSr.obj
 0002:00033b00       ?_Incsize@?$list@V?$basic_string@DU?$char_traits@D@std@@V?$allocator@D@2@@std@@V?$allocator@V?$basic_string@DU?$char_traits@D@std@@V?$allocator@D@2@@std@@@2@@std@@IAEXI@Z 100e2b00 f i CIssSr.obj
 0002:00033be0       ??0?$_List_ptr@V?$basic_string@DU?$char_traits@D@std@@V?$allocator@D@2@@std@@V?$allocator@V?$basic_string@DU?$char_traits@D@std@@V?$allocator@D@2@@std@@@2@@std@@IAE@V?$allocator@V?$basic_string@DU?$char_traits@D@std@@V?$allocator@D@2@@std@@@1@@Z 100e2be0 f i CIssSr.obj
 0002:00033c30       ?deallocate@?$allocator@U_Node@?$_List_nod@V?$basic_string@DU?$char_traits@D@std@@V?$allocator@D@2@@std@@V?$allocator@V?$basic_string@DU?$char_traits@D@std@@V?$allocator@D@2@@std@@@2@@std@@@std@@QAEXPAU_Node@?$_List_nod@V?$basic_string@DU?$char_traits@D@std@@V?$allocator@D@2@@std@@V?$allocator@V?$basic_string@DU?$char_traits@D@std@@V?$allocator@D@2@@std@@@2@@2@I@Z 100e2c30 f i CIssSr.obj
 0002:00033c60       ?allocate@?$allocator@U_Node@?$_List_nod@V?$basic_string@DU?$char_traits@D@std@@V?$allocator@D@2@@std@@V?$allocator@V?$basic_string@DU?$char_traits@D@std@@V?$allocator@D@2@@std@@@2@@std@@@std@@QAEPAU_Node@?$_List_nod@V?$basic_string@DU?$char_traits@D@std@@V?$allocator@D@2@@std@@V?$allocator@V?$basic_string@DU?$char_traits@D@std@@V?$allocator@D@2@@std@@@2@@2@I@Z 100e2c60 f i CIssSr.obj
 0002:00033c90       ?construct@?$allocator@PAU_Node@?$_List_nod@V?$basic_string@DU?$char_traits@D@std@@V?$allocator@D@2@@std@@V?$allocator@V?$basic_string@DU?$char_traits@D@std@@V?$allocator@D@2@@std@@@2@@std@@@std@@QAEXPAPAU_Node@?$_List_nod@V?$basic_string@DU?$char_traits@D@std@@V?$allocator@D@2@@std@@V?$allocator@V?$basic_string@DU?$char_traits@D@std@@V?$allocator@D@2@@std@@@2@@2@ABQAU342@@Z 100e2c90 f i CIssSr.obj
 0002:00033cc0       ?destroy@?$allocator@PAU_Node@?$_List_nod@V?$basic_string@DU?$char_traits@D@std@@V?$allocator@D@2@@std@@V?$allocator@V?$basic_string@DU?$char_traits@D@std@@V?$allocator@D@2@@std@@@2@@std@@@std@@QAEXPAPAU_Node@?$_List_nod@V?$basic_string@DU?$char_traits@D@std@@V?$allocator@D@2@@std@@V?$allocator@V?$basic_string@DU?$char_traits@D@std@@V?$allocator@D@2@@std@@@2@@2@@Z 100e2cc0 f i CIssSr.obj
 0002:00033cf0       ??0?$_Iterator@$00@?$list@V?$basic_string@DU?$char_traits@D@std@@V?$allocator@D@2@@std@@V?$allocator@V?$basic_string@DU?$char_traits@D@std@@V?$allocator@D@2@@std@@@2@@std@@QAE@PAU_Node@?$_List_nod@V?$basic_string@DU?$char_traits@D@std@@V?$allocator@D@2@@std@@V?$allocator@V?$basic_string@DU?$char_traits@D@std@@V?$allocator@D@2@@std@@@2@@2@PBV12@@Z 100e2cf0 f i CIssSr.obj
 0002:00033d30       ?_Mynode@?$_Const_iterator@$00@?$list@V?$basic_string@DU?$char_traits@D@std@@V?$allocator@D@2@@std@@V?$allocator@V?$basic_string@DU?$char_traits@D@std@@V?$allocator@D@2@@std@@@2@@std@@QBEPAU_Node@?$_List_nod@V?$basic_string@DU?$char_traits@D@std@@V?$allocator@D@2@@std@@V?$allocator@V?$basic_string@DU?$char_traits@D@std@@V?$allocator@D@2@@std@@@2@@3@XZ 100e2d30 f i CIssSr.obj
 0002:00033d50       ?_Myval@?$list@V?$basic_string@DU?$char_traits@D@std@@V?$allocator@D@2@@std@@V?$allocator@V?$basic_string@DU?$char_traits@D@std@@V?$allocator@D@2@@std@@@2@@std@@KAAAV?$basic_string@DU?$char_traits@D@std@@V?$allocator@D@2@@2@PAU_Node@?$_List_nod@V?$basic_string@DU?$char_traits@D@std@@V?$allocator@D@2@@std@@V?$allocator@V?$basic_string@DU?$char_traits@D@std@@V?$allocator@D@2@@std@@@2@@2@@Z 100e2d50 f i CIssSr.obj
 0002:00033d70       ?max_size@?$list@V?$basic_string@DU?$char_traits@D@std@@V?$allocator@D@2@@std@@V?$allocator@V?$basic_string@DU?$char_traits@D@std@@V?$allocator@D@2@@std@@@2@@std@@QBEIXZ 100e2d70 f i CIssSr.obj
 0002:00033da0       ??0?$_List_nod@V?$basic_string@DU?$char_traits@D@std@@V?$allocator@D@2@@std@@V?$allocator@V?$basic_string@DU?$char_traits@D@std@@V?$allocator@D@2@@std@@@2@@std@@IAE@V?$allocator@V?$basic_string@DU?$char_traits@D@std@@V?$allocator@D@2@@std@@@1@@Z 100e2da0 f i CIssSr.obj
 0002:00033df0       ?destroy@?$allocator@U_Node@?$_List_nod@V?$basic_string@DU?$char_traits@D@std@@V?$allocator@D@2@@std@@V?$allocator@V?$basic_string@DU?$char_traits@D@std@@V?$allocator@D@2@@std@@@2@@std@@@std@@QAEXPAU_Node@?$_List_nod@V?$basic_string@DU?$char_traits@D@std@@V?$allocator@D@2@@std@@V?$allocator@V?$basic_string@DU?$char_traits@D@std@@V?$allocator@D@2@@std@@@2@@2@@Z 100e2df0 f i CIssSr.obj
 0002:00033e20       ??0?$_Const_iterator@$00@?$list@V?$basic_string@DU?$char_traits@D@std@@V?$allocator@D@2@@std@@V?$allocator@V?$basic_string@DU?$char_traits@D@std@@V?$allocator@D@2@@std@@@2@@std@@QAE@PAU_Node@?$_List_nod@V?$basic_string@DU?$char_traits@D@std@@V?$allocator@D@2@@std@@V?$allocator@V?$basic_string@DU?$char_traits@D@std@@V?$allocator@D@2@@std@@@2@@2@PBV12@@Z 100e2e20 f i CIssSr.obj
 0002:00033e90       ??0?$_Bidit@V?$basic_string@DU?$char_traits@D@std@@V?$allocator@D@2@@std@@HPBV12@ABV12@@std@@QAE@XZ 100e2e90 f i CIssSr.obj
 0002:00033ec0       ??0?$_Iterator_with_base@Ubidirectional_iterator_tag@std@@V?$basic_string@DU?$char_traits@D@std@@V?$allocator@D@2@@2@HPBV32@ABV32@V_Iterator_base_aux@2@@std@@QAE@XZ 100e2ec0 f i CIssSr.obj
 0002:00033ef0       ?cur_time@?$Log_Impl_T@V?$Log_Uni_Type@VLog_IO_FILE@VA@@V__LOG_TOK_Log_IO_FILE_isssr_logLog_IO_FILE__@2@@VA@@VLog_Thread_Mutex@2@V?$Log_Cfg_T@VLog_Cfg_Heap_Reg@VA@@ULog_Cfg@2@@2@@VA@@MBEPBDQAD_N1@Z 100e2ef0 f i CIssSr.obj
 0002:00033f60       ?cur_time@IFLY_LOG@VA@@YAPBDQAD_N1_JK@Z 100e2f60 f i CIssSr.obj
 0002:00034140       ?check_config@?$Log_Impl_T@V?$Log_Uni_Type@VLog_IO_FILE@VA@@V__LOG_TOK_Log_IO_FILE_isssr_logLog_IO_FILE__@2@@VA@@VLog_Thread_Mutex@2@V?$Log_Cfg_T@VLog_Cfg_Heap_Reg@VA@@ULog_Cfg@2@@2@@VA@@MAEHXZ 100e3140 f i CIssSr.obj
 0002:00034330       ??$?0V?$basic_string@DU?$char_traits@D@std@@V?$allocator@D@2@@std@@@?$allocator@PAU_Node@?$_List_nod@V?$basic_string@DU?$char_traits@D@std@@V?$allocator@D@2@@std@@V?$allocator@V?$basic_string@DU?$char_traits@D@std@@V?$allocator@D@2@@std@@@2@@std@@@std@@QAE@ABV?$allocator@V?$basic_string@DU?$char_traits@D@std@@V?$allocator@D@2@@std@@@1@@Z 100e3330 f i CIssSr.obj
 0002:00034350       ??$_Allocate@U_Node@?$_List_nod@V?$basic_string@DU?$char_traits@D@std@@V?$allocator@D@2@@std@@V?$allocator@V?$basic_string@DU?$char_traits@D@std@@V?$allocator@D@2@@std@@@2@@std@@@std@@YAPAU_Node@?$_List_nod@V?$basic_string@DU?$char_traits@D@std@@V?$allocator@D@2@@std@@V?$allocator@V?$basic_string@DU?$char_traits@D@std@@V?$allocator@D@2@@std@@@2@@0@IPAU120@@Z 100e3350 f i CIssSr.obj
 0002:000343c0       ??$_Construct@PAU_Node@?$_List_nod@V?$basic_string@DU?$char_traits@D@std@@V?$allocator@D@2@@std@@V?$allocator@V?$basic_string@DU?$char_traits@D@std@@V?$allocator@D@2@@std@@@2@@std@@PAU123@@std@@YAXPAPAU_Node@?$_List_nod@V?$basic_string@DU?$char_traits@D@std@@V?$allocator@D@2@@std@@V?$allocator@V?$basic_string@DU?$char_traits@D@std@@V?$allocator@D@2@@std@@@2@@0@ABQAU120@@Z 100e33c0 f i CIssSr.obj
 0002:00034420       ??$_Destroy@PAU_Node@?$_List_nod@V?$basic_string@DU?$char_traits@D@std@@V?$allocator@D@2@@std@@V?$allocator@V?$basic_string@DU?$char_traits@D@std@@V?$allocator@D@2@@std@@@2@@std@@@std@@YAXPAPAU_Node@?$_List_nod@V?$basic_string@DU?$char_traits@D@std@@V?$allocator@D@2@@std@@V?$allocator@V?$basic_string@DU?$char_traits@D@std@@V?$allocator@D@2@@std@@@2@@0@@Z 100e3420 f i CIssSr.obj
 0002:00034440       ??$?0V?$basic_string@DU?$char_traits@D@std@@V?$allocator@D@2@@std@@@?$allocator@U_Node@?$_List_nod@V?$basic_string@DU?$char_traits@D@std@@V?$allocator@D@2@@std@@V?$allocator@V?$basic_string@DU?$char_traits@D@std@@V?$allocator@D@2@@std@@@2@@std@@@std@@QAE@ABV?$allocator@V?$basic_string@DU?$char_traits@D@std@@V?$allocator@D@2@@std@@@1@@Z 100e3440 f i CIssSr.obj
 0002:00034460       ??$_Destroy@U_Node@?$_List_nod@V?$basic_string@DU?$char_traits@D@std@@V?$allocator@D@2@@std@@V?$allocator@V?$basic_string@DU?$char_traits@D@std@@V?$allocator@D@2@@std@@@2@@std@@@std@@YAXPAU_Node@?$_List_nod@V?$basic_string@DU?$char_traits@D@std@@V?$allocator@D@2@@std@@V?$allocator@V?$basic_string@DU?$char_traits@D@std@@V?$allocator@D@2@@std@@@2@@0@@Z 100e3460 f i CIssSr.obj
 0002:00034480       ??_G?$Log_Impl_T@V?$Log_Uni_Type@VLog_IO_FILE@VA@@V__LOG_TOK_Log_IO_FILE_isssr_logLog_IO_FILE__@2@@VA@@VLog_Thread_Mutex@2@V?$Log_Cfg_T@VLog_Cfg_Heap_Reg@VA@@ULog_Cfg@2@@2@@VA@@UAEPAXI@Z 100e3480 f i CIssSr.obj
 0002:00034480       ??_E?$Log_Impl_T@V?$Log_Uni_Type@VLog_IO_FILE@VA@@V__LOG_TOK_Log_IO_FILE_isssr_logLog_IO_FILE__@2@@VA@@VLog_Thread_Mutex@2@V?$Log_Cfg_T@VLog_Cfg_Heap_Reg@VA@@ULog_Cfg@2@@2@@VA@@UAEPAXI@Z 100e3480 f i CIssSr.obj
 0002:000344d0       ??1?$Log_Impl_T@V?$Log_Uni_Type@VLog_IO_FILE@VA@@V__LOG_TOK_Log_IO_FILE_isssr_logLog_IO_FILE__@2@@VA@@VLog_Thread_Mutex@2@V?$Log_Cfg_T@VLog_Cfg_Heap_Reg@VA@@ULog_Cfg@2@@2@@VA@@UAE@XZ 100e34d0 f i CIssSr.obj
 0002:00034550       ??0?$Log_Uni_Type@VLog_IO_FILE@VA@@V__LOG_TOK_Log_IO_FILE_isssr_logLog_IO_FILE__@2@@VA@@QAE@XZ 100e3550 f i CIssSr.obj
 0002:00034580       ??0Log_IO_FILE@VA@@QAE@XZ  100e3580 f i CIssSr.obj
 0002:000345f0       ??_ELog_IO_FILE@VA@@UAEPAXI@Z 100e35f0 f i CIssSr.obj
 0002:000345f0       ??_GLog_IO_FILE@VA@@UAEPAXI@Z 100e35f0 f i CIssSr.obj
 0002:00034640       ??0Log_IO@VA@@QAE@XZ       100e3640 f i CIssSr.obj
 0002:00034670       ??1Log_IO_FILE@VA@@UAE@XZ  100e3670 f i CIssSr.obj
 0002:00034700       ?open@Log_IO_FILE@VA@@UAEHPBDPAULog_Mutex@2@HPAX@Z 100e3700 f i CIssSr.obj
 0002:00034870       ?close@Log_IO_FILE@VA@@UAEHXZ 100e3870 f i CIssSr.obj
 0002:000348c0       ?write@Log_IO_FILE@VA@@UAEHPBD@Z 100e38c0 f i CIssSr.obj
 0002:00034920       ?write@Log_IO_FILE@VA@@UAEHPB_W@Z 100e3920 f i CIssSr.obj
 0002:00034980       ?write@Log_IO_FILE@VA@@UAEHPBXH@Z 100e3980 f i CIssSr.obj
 0002:000349f0       ?empty@Log_IO_FILE@VA@@UAEHXZ 100e39f0 f i CIssSr.obj
 0002:00034a50       ?flush@Log_IO_FILE@VA@@UAEXXZ 100e3a50 f i CIssSr.obj
 0002:00034a90       ?size@Log_IO_FILE@VA@@UBEIXZ 100e3a90 f i CIssSr.obj
 0002:00034b30       ?backup@Log_IO_FILE@VA@@UAEHPBD@Z 100e3b30 f i CIssSr.obj
 0002:00034c10       ?handle@Log_IO_FILE@VA@@UAEPAXXZ 100e3c10 f i CIssSr.obj
 0002:00034c30       ?mutex@Log_IO_FILE@VA@@UAEPAULog_Mutex@2@XZ 100e3c30 f i CIssSr.obj
 0002:00034c50       ?mutex@Log_IO_FILE@VA@@UAEXPAULog_Mutex@2@@Z 100e3c50 f i CIssSr.obj
 0002:00034c80       ?config@Log_IO_FILE@VA@@UAEPAULog_Cfg@2@XZ 100e3c80 f i CIssSr.obj
 0002:00034ca0       ?config@Log_IO_FILE@VA@@UAEXPAULog_Cfg@2@@Z 100e3ca0 f i CIssSr.obj
 0002:00034cd0       ?strcasecmp@IFLY_LOG@VA@@YAHPBD0@Z 100e3cd0 f i CIssSr.obj
 0002:00034d00       ??_GLog_Thread_Mutex@VA@@QAEPAXI@Z 100e3d00 f i CIssSr.obj
 0002:00034d50       ??1Log_Thread_Mutex@VA@@QAE@XZ 100e3d50 f i CIssSr.obj
 0002:00034d80       ??_G_Node@?$_List_nod@V?$basic_string@DU?$char_traits@D@std@@V?$allocator@D@2@@std@@V?$allocator@V?$basic_string@DU?$char_traits@D@std@@V?$allocator@D@2@@std@@@2@@std@@QAEPAXI@Z 100e3d80 f i CIssSr.obj
 0002:00034dd0       ??_E?$Log_Uni_Type@VLog_IO_FILE@VA@@V__LOG_TOK_Log_IO_FILE_isssr_logLog_IO_FILE__@2@@VA@@UAEPAXI@Z 100e3dd0 f i CIssSr.obj
 0002:00034dd0       ??_G?$Log_Uni_Type@VLog_IO_FILE@VA@@V__LOG_TOK_Log_IO_FILE_isssr_logLog_IO_FILE__@2@@VA@@UAEPAXI@Z 100e3dd0 f i CIssSr.obj
 0002:00034e20       ??1_Node@?$_List_nod@V?$basic_string@DU?$char_traits@D@std@@V?$allocator@D@2@@std@@V?$allocator@V?$basic_string@DU?$char_traits@D@std@@V?$allocator@D@2@@std@@@2@@std@@QAE@XZ 100e3e20 f i CIssSr.obj
 0002:00034e50       ??1?$Log_Uni_Type@VLog_IO_FILE@VA@@V__LOG_TOK_Log_IO_FILE_isssr_logLog_IO_FILE__@2@@VA@@UAE@XZ 100e3e50 f i CIssSr.obj
 0002:00034e80       ?begin@?$list@V?$basic_string@DU?$char_traits@D@std@@V?$allocator@D@2@@std@@V?$allocator@V?$basic_string@DU?$char_traits@D@std@@V?$allocator@D@2@@std@@@2@@std@@QAE?AV?$_Iterator@$00@12@XZ 100e3e80 f i CIssSr.obj
 0002:00034ed0       ?size@?$list@V?$basic_string@DU?$char_traits@D@std@@V?$allocator@D@2@@std@@V?$allocator@V?$basic_string@DU?$char_traits@D@std@@V?$allocator@D@2@@std@@@2@@std@@QBEIXZ 100e3ed0 f i CIssSr.obj
 0002:00034ef0       ?front@?$list@V?$basic_string@DU?$char_traits@D@std@@V?$allocator@D@2@@std@@V?$allocator@V?$basic_string@DU?$char_traits@D@std@@V?$allocator@D@2@@std@@@2@@std@@QAEAAV?$basic_string@DU?$char_traits@D@std@@V?$allocator@D@2@@2@XZ 100e3ef0 f i CIssSr.obj
 0002:00034f20       ?pop_front@?$list@V?$basic_string@DU?$char_traits@D@std@@V?$allocator@D@2@@std@@V?$allocator@V?$basic_string@DU?$char_traits@D@std@@V?$allocator@D@2@@std@@@2@@std@@QAEXXZ 100e3f20 f i CIssSr.obj
 0002:00034f70       ?erase@?$list@V?$basic_string@DU?$char_traits@D@std@@V?$allocator@D@2@@std@@V?$allocator@V?$basic_string@DU?$char_traits@D@std@@V?$allocator@D@2@@std@@@2@@std@@QAE?AV?$_Iterator@$00@12@V?$_Const_iterator@$00@12@@Z 100e3f70 f i CIssSr.obj
 0002:00035080       ?sort@?$list@V?$basic_string@DU?$char_traits@D@std@@V?$allocator@D@2@@std@@V?$allocator@V?$basic_string@DU?$char_traits@D@std@@V?$allocator@D@2@@std@@@2@@std@@QAEXXZ 100e4080 f i CIssSr.obj
 0002:00035420       ?style@?$Log_Cfg_T@VLog_Cfg_Heap_Reg@VA@@ULog_Cfg@2@@VA@@QAEXH@Z 100e4420 f i CIssSr.obj
 0002:00035450       ?flush_always@?$Log_Cfg_T@VLog_Cfg_Heap_Reg@VA@@ULog_Cfg@2@@VA@@QAEX_N@Z 100e4450 f i CIssSr.obj
 0002:00035480       ?synch_time@?$Log_Cfg_T@VLog_Cfg_Heap_Reg@VA@@ULog_Cfg@2@@VA@@QBE_NXZ 100e4480 f i CIssSr.obj
 0002:000354a0       ?encrypt@?$Log_Cfg_T@VLog_Cfg_Heap_Reg@VA@@ULog_Cfg@2@@VA@@QBEHXZ 100e44a0 f i CIssSr.obj
 0002:000354d0       ?start_time@?$Log_Cfg_T@VLog_Cfg_Heap_Reg@VA@@ULog_Cfg@2@@VA@@QAEX_J@Z 100e44d0 f i CIssSr.obj
 0002:00035510       ?start_tick@?$Log_Cfg_T@VLog_Cfg_Heap_Reg@VA@@ULog_Cfg@2@@VA@@QAEXI@Z 100e4510 f i CIssSr.obj
 0002:00035540       ?perf_thres@?$Log_Cfg_T@VLog_Cfg_Heap_Reg@VA@@ULog_Cfg@2@@VA@@QAEXH@Z 100e4540 f i CIssSr.obj
 0002:00035570       ?is_output@?$Log_Cfg_T@VLog_Cfg_Heap_Reg@VA@@ULog_Cfg@2@@VA@@QBE_NPBD0@Z 100e4570 f i CIssSr.obj
 0002:00035700       ??9?$_Vector_const_iterator@V?$basic_string@DU?$char_traits@D@std@@V?$allocator@D@2@@std@@V?$allocator@V?$basic_string@DU?$char_traits@D@std@@V?$allocator@D@2@@std@@@2@@std@@QBE_NABV01@@Z 100e4700 f i CIssSr.obj
 0002:00035740       ??8?$_Vector_const_iterator@V?$basic_string@DU?$char_traits@D@std@@V?$allocator@D@2@@std@@V?$allocator@V?$basic_string@DU?$char_traits@D@std@@V?$allocator@D@2@@std@@@2@@std@@QBE_NABV01@@Z 100e4740 f i CIssSr.obj
 0002:000357b0       ??C?$_Iterator@$00@?$list@V?$basic_string@DU?$char_traits@D@std@@V?$allocator@D@2@@std@@V?$allocator@V?$basic_string@DU?$char_traits@D@std@@V?$allocator@D@2@@std@@@2@@std@@QBEPAV?$basic_string@DU?$char_traits@D@std@@V?$allocator@D@2@@2@XZ 100e47b0 f i CIssSr.obj
 0002:000357e0       ??E?$_Iterator@$00@?$list@V?$basic_string@DU?$char_traits@D@std@@V?$allocator@D@2@@std@@V?$allocator@V?$basic_string@DU?$char_traits@D@std@@V?$allocator@D@2@@std@@@2@@std@@QAEAAV012@XZ 100e47e0 f i CIssSr.obj
 0002:00035810       ??9?$_Const_iterator@$00@?$list@V?$basic_string@DU?$char_traits@D@std@@V?$allocator@D@2@@std@@V?$allocator@V?$basic_string@DU?$char_traits@D@std@@V?$allocator@D@2@@std@@@2@@std@@QBE_NABV012@@Z 100e4810 f i CIssSr.obj
 0002:00035850       ?empty@?$vector@V?$basic_string@DU?$char_traits@D@std@@V?$allocator@D@2@@std@@V?$allocator@V?$basic_string@DU?$char_traits@D@std@@V?$allocator@D@2@@std@@@2@@std@@QBE_NXZ 100e4850 f i CIssSr.obj
 0002:00035880       ??0?$list@V?$basic_string@DU?$char_traits@D@std@@V?$allocator@D@2@@std@@V?$allocator@V?$basic_string@DU?$char_traits@D@std@@V?$allocator@D@2@@std@@@2@@std@@QAE@ABV?$allocator@V?$basic_string@DU?$char_traits@D@std@@V?$allocator@D@2@@std@@@1@@Z 100e4880 f i CIssSr.obj
 0002:00035920       ?_Make_iter@?$list@V?$basic_string@DU?$char_traits@D@std@@V?$allocator@D@2@@std@@V?$allocator@V?$basic_string@DU?$char_traits@D@std@@V?$allocator@D@2@@std@@@2@@std@@QBE?AV?$_Iterator@$00@12@V?$_Const_iterator@$00@12@@Z 100e4920 f i CIssSr.obj
 0002:00035960       ?empty@?$list@V?$basic_string@DU?$char_traits@D@std@@V?$allocator@D@2@@std@@V?$allocator@V?$basic_string@DU?$char_traits@D@std@@V?$allocator@D@2@@std@@@2@@std@@QBE_NXZ 100e4960 f i CIssSr.obj
 0002:00035990       ?swap@?$list@V?$basic_string@DU?$char_traits@D@std@@V?$allocator@D@2@@std@@V?$allocator@V?$basic_string@DU?$char_traits@D@std@@V?$allocator@D@2@@std@@@2@@std@@QAEXAAV12@@Z 100e4990 f i CIssSr.obj
 0002:00035af0       ?_Swap_aux@_Container_base_aux@std@@QAEXAAV12@@Z 100e4af0 f i CIssSr.obj
 0002:00035b40       ??$swap@PAV_Aux_cont@std@@@std@@YAXAAPAV_Aux_cont@0@0@Z 100e4b40 f i CIssSr.obj
 0002:00035b80       ??$swap@V_Aux_cont@std@@@std@@YAXAAV_Aux_cont@0@0@Z 100e4b80 f i CIssSr.obj
 0002:00035bc0       ?splice@?$list@V?$basic_string@DU?$char_traits@D@std@@V?$allocator@D@2@@std@@V?$allocator@V?$basic_string@DU?$char_traits@D@std@@V?$allocator@D@2@@std@@@2@@std@@QAEXV?$_Const_iterator@$00@12@AAV12@@Z 100e4bc0 f i CIssSr.obj
 0002:00035c70       ?merge@?$list@V?$basic_string@DU?$char_traits@D@std@@V?$allocator@D@2@@std@@V?$allocator@V?$basic_string@DU?$char_traits@D@std@@V?$allocator@D@2@@std@@@2@@std@@QAEXAAV12@@Z 100e4c70 f i CIssSr.obj
 0002:00035e90       ?_Splice@?$list@V?$basic_string@DU?$char_traits@D@std@@V?$allocator@D@2@@std@@V?$allocator@V?$basic_string@DU?$char_traits@D@std@@V?$allocator@D@2@@std@@@2@@std@@QAEXV?$_Const_iterator@$00@12@AAV12@00I_N@Z 100e4e90 f i CIssSr.obj
 0002:00036080       ??D?$_Vector_const_iterator@V?$basic_string@DU?$char_traits@D@std@@V?$allocator@D@2@@std@@V?$allocator@V?$basic_string@DU?$char_traits@D@std@@V?$allocator@D@2@@std@@@2@@std@@QBEABV?$basic_string@DU?$char_traits@D@std@@V?$allocator@D@2@@1@XZ 100e5080 f i CIssSr.obj
 0002:000360f0       ??E?$_Vector_const_iterator@V?$basic_string@DU?$char_traits@D@std@@V?$allocator@D@2@@std@@V?$allocator@V?$basic_string@DU?$char_traits@D@std@@V?$allocator@D@2@@std@@@2@@std@@QAEAAV01@XZ 100e50f0 f i CIssSr.obj
 0002:00036170       ??D?$_Iterator@$00@?$list@V?$basic_string@DU?$char_traits@D@std@@V?$allocator@D@2@@std@@V?$allocator@V?$basic_string@DU?$char_traits@D@std@@V?$allocator@D@2@@std@@@2@@std@@QBEAAV?$basic_string@DU?$char_traits@D@std@@V?$allocator@D@2@@2@XZ 100e5170 f i CIssSr.obj
 0002:000361a0       ??E?$_Const_iterator@$00@?$list@V?$basic_string@DU?$char_traits@D@std@@V?$allocator@D@2@@std@@V?$allocator@V?$basic_string@DU?$char_traits@D@std@@V?$allocator@D@2@@std@@@2@@std@@QAEAAV012@XZ 100e51a0 f i CIssSr.obj
 0002:00036240       ??E?$_Const_iterator@$00@?$list@V?$basic_string@DU?$char_traits@D@std@@V?$allocator@D@2@@std@@V?$allocator@V?$basic_string@DU?$char_traits@D@std@@V?$allocator@D@2@@std@@@2@@std@@QAE?AV012@H@Z 100e5240 f i CIssSr.obj
 0002:00036290       ??8?$_Const_iterator@$00@?$list@V?$basic_string@DU?$char_traits@D@std@@V?$allocator@D@2@@std@@V?$allocator@V?$basic_string@DU?$char_traits@D@std@@V?$allocator@D@2@@std@@@2@@std@@QBE_NABV012@@Z 100e5290 f i CIssSr.obj
 0002:00036310       ?erase@?$list@V?$basic_string@DU?$char_traits@D@std@@V?$allocator@D@2@@std@@V?$allocator@V?$basic_string@DU?$char_traits@D@std@@V?$allocator@D@2@@std@@@2@@std@@QAE?AV?$_Iterator@$00@12@V?$_Const_iterator@$00@12@0@Z 100e5310 f i CIssSr.obj
 0002:000363f0       ?splice@?$list@V?$basic_string@DU?$char_traits@D@std@@V?$allocator@D@2@@std@@V?$allocator@V?$basic_string@DU?$char_traits@D@std@@V?$allocator@D@2@@std@@@2@@std@@QAEXV?$_Const_iterator@$00@12@AAV12@00@Z 100e53f0 f i CIssSr.obj
 0002:00036620       ??D?$_Const_iterator@$00@?$list@V?$basic_string@DU?$char_traits@D@std@@V?$allocator@D@2@@std@@V?$allocator@V?$basic_string@DU?$char_traits@D@std@@V?$allocator@D@2@@std@@@2@@std@@QBEABV?$basic_string@DU?$char_traits@D@std@@V?$allocator@D@2@@2@XZ 100e5620 f i CIssSr.obj
 0002:000366b0       ?config_changed@?$Log_Cfg_T@VLog_Cfg_Heap_Reg@VA@@ULog_Cfg@2@@VA@@QAE_NXZ 100e56b0 f i CIssSr.obj
 0002:00036740       ??$?8V?$basic_string@DU?$char_traits@D@std@@V?$allocator@D@2@@std@@V01@@std@@YA_NABV?$allocator@V?$basic_string@DU?$char_traits@D@std@@V?$allocator@D@2@@std@@@0@0@Z 100e5740 f i CIssSr.obj
 0002:00036760       ??$swap@PAU_Node@?$_List_nod@V?$basic_string@DU?$char_traits@D@std@@V?$allocator@D@2@@std@@V?$allocator@V?$basic_string@DU?$char_traits@D@std@@V?$allocator@D@2@@std@@@2@@std@@@std@@YAXAAPAU_Node@?$_List_nod@V?$basic_string@DU?$char_traits@D@std@@V?$allocator@D@2@@std@@V?$allocator@V?$basic_string@DU?$char_traits@D@std@@V?$allocator@D@2@@std@@@2@@0@0@Z 100e5760 f i CIssSr.obj
 0002:000367a0       ??$swap@I@std@@YAXAAI0@Z   100e57a0 f i CIssSr.obj
 0002:000367e0       ??$insert@V?$_Const_iterator@$00@?$list@V?$basic_string@DU?$char_traits@D@std@@V?$allocator@D@2@@std@@V?$allocator@V?$basic_string@DU?$char_traits@D@std@@V?$allocator@D@2@@std@@@2@@std@@@?$list@V?$basic_string@DU?$char_traits@D@std@@V?$allocator@D@2@@std@@V?$allocator@V?$basic_string@DU?$char_traits@D@std@@V?$allocator@D@2@@std@@@2@@std@@QAEXV?$_Const_iterator@$00@01@00@Z 100e57e0 f i CIssSr.obj
 0002:00036840       ??$get_maped_token@H@IFLY_LOG@VA@@YAHAAHABV?$basic_string@DU?$char_traits@D@std@@V?$allocator@D@2@@std@@PBU?$token_map@H@01@@Z 100e5840 f i CIssSr.obj
 0002:00036a80       ?strlwr@IFLY_LOG@VA@@YAAAV?$basic_string@DU?$char_traits@D@std@@V?$allocator@D@2@@std@@AAV34@@Z 100e5a80 f i CIssSr.obj
 0002:00036b10       ??$_Checked_base@PAV?$basic_string@DU?$char_traits@D@std@@V?$allocator@D@2@@std@@@std@@YAPAV?$basic_string@DU?$char_traits@D@std@@V?$allocator@D@2@@0@AAPAV10@U_Unchanged_checked_iterator_base_type_tag@0@@Z 100e5b10 f i CIssSr.obj
 0002:00036b30       ??$_Uninit_move@PAV?$basic_string@DU?$char_traits@D@std@@V?$allocator@D@2@@std@@PAV12@V?$allocator@V?$basic_string@DU?$char_traits@D@std@@V?$allocator@D@2@@std@@@2@@std@@YAPAV?$basic_string@DU?$char_traits@D@std@@V?$allocator@D@2@@0@PAV10@00AAV?$allocator@V?$basic_string@DU?$char_traits@D@std@@V?$allocator@D@2@@std@@@0@U_Swap_move_tag@0@U_Range_checked_iterator_tag@0@@Z 100e5b30 f i CIssSr.obj
 0002:00036c70       ??$_Move_backward_opt@PAV?$basic_string@DU?$char_traits@D@std@@V?$allocator@D@2@@std@@PAV12@Uforward_iterator_tag@2@@std@@YAPAV?$basic_string@DU?$char_traits@D@std@@V?$allocator@D@2@@0@PAV10@00Uforward_iterator_tag@0@U_Swap_move_tag@0@U_Range_checked_iterator_tag@0@@Z 100e5c70 f i CIssSr.obj
 0002:00036cc0       ??$unchecked_uninitialized_copy@V?$_Vector_const_iterator@V?$basic_string@DU?$char_traits@D@std@@V?$allocator@D@2@@std@@V?$allocator@V?$basic_string@DU?$char_traits@D@std@@V?$allocator@D@2@@std@@@2@@std@@PAV?$basic_string@DU?$char_traits@D@std@@V?$allocator@D@2@@2@V?$allocator@V?$basic_string@DU?$char_traits@D@std@@V?$allocator@D@2@@std@@@2@@stdext@@YAPAV?$basic_string@DU?$char_traits@D@std@@V?$allocator@D@2@@std@@V?$_Vector_const_iterator@V?$basic_string@DU?$char_traits@D@std@@V?$allocator@D@2@@std@@V?$allocator@V?$basic_string@DU?$char_traits@D@std@@V?$allocator@D@2@@std@@@2@@2@0PAV12@AAV?$allocator@V?$basic_string@DU?$char_traits@D@std@@V?$allocator@D@2@@std@@@2@@Z 100e5cc0 f i CIssSr.obj
 0002:00036d40       ??$_Iter_cat@V?$_Vector_const_iterator@V?$basic_string@DU?$char_traits@D@std@@V?$allocator@D@2@@std@@V?$allocator@V?$basic_string@DU?$char_traits@D@std@@V?$allocator@D@2@@std@@@2@@std@@@std@@YA?AUrandom_access_iterator_tag@0@ABV?$_Vector_const_iterator@V?$basic_string@DU?$char_traits@D@std@@V?$allocator@D@2@@std@@V?$allocator@V?$basic_string@DU?$char_traits@D@std@@V?$allocator@D@2@@std@@@2@@0@@Z 100e5d40 f i CIssSr.obj
 0002:00036d60       ??$_Assign@V?$_Vector_const_iterator@V?$basic_string@DU?$char_traits@D@std@@V?$allocator@D@2@@std@@V?$allocator@V?$basic_string@DU?$char_traits@D@std@@V?$allocator@D@2@@std@@@2@@std@@@?$vector@V?$basic_string@DU?$char_traits@D@std@@V?$allocator@D@2@@std@@V?$allocator@V?$basic_string@DU?$char_traits@D@std@@V?$allocator@D@2@@std@@@2@@std@@QAEXV?$_Vector_const_iterator@V?$basic_string@DU?$char_traits@D@std@@V?$allocator@D@2@@std@@V?$allocator@V?$basic_string@DU?$char_traits@D@std@@V?$allocator@D@2@@std@@@2@@1@0Uinput_iterator_tag@1@@Z 100e5d60 f i CIssSr.obj
 0002:00036e20       ?erase@?$vector@V?$basic_string@DU?$char_traits@D@std@@V?$allocator@D@2@@std@@V?$allocator@V?$basic_string@DU?$char_traits@D@std@@V?$allocator@D@2@@std@@@2@@std@@QAE?AV?$_Vector_iterator@V?$basic_string@DU?$char_traits@D@std@@V?$allocator@D@2@@std@@V?$allocator@V?$basic_string@DU?$char_traits@D@std@@V?$allocator@D@2@@std@@@2@@2@V?$_Vector_const_iterator@V?$basic_string@DU?$char_traits@D@std@@V?$allocator@D@2@@std@@V?$allocator@V?$basic_string@DU?$char_traits@D@std@@V?$allocator@D@2@@std@@@2@@2@0@Z 100e5e20 f i CIssSr.obj
 0002:00036ee0       ?_Make_iter@?$vector@V?$basic_string@DU?$char_traits@D@std@@V?$allocator@D@2@@std@@V?$allocator@V?$basic_string@DU?$char_traits@D@std@@V?$allocator@D@2@@std@@@2@@std@@QBE?AV?$_Vector_iterator@V?$basic_string@DU?$char_traits@D@std@@V?$allocator@D@2@@std@@V?$allocator@V?$basic_string@DU?$char_traits@D@std@@V?$allocator@D@2@@std@@@2@@2@V?$_Vector_const_iterator@V?$basic_string@DU?$char_traits@D@std@@V?$allocator@D@2@@std@@V?$allocator@V?$basic_string@DU?$char_traits@D@std@@V?$allocator@D@2@@std@@@2@@2@@Z 100e5ee0 f i CIssSr.obj
 0002:00036f20       ??$unchecked_copy@PAV?$basic_string@DU?$char_traits@D@std@@V?$allocator@D@2@@std@@PAV12@@stdext@@YAPAV?$basic_string@DU?$char_traits@D@std@@V?$allocator@D@2@@std@@PAV12@00@Z 100e5f20 f i CIssSr.obj
 0002:00036fb0       ??$_Copy_opt@PAV?$basic_string@DU?$char_traits@D@std@@V?$allocator@D@2@@std@@PAV12@@std@@YAPAV?$basic_string@DU?$char_traits@D@std@@V?$allocator@D@2@@0@PAV10@00Urandom_access_iterator_tag@0@U_Nonscalar_ptr_iterator_tag@0@U_Range_checked_iterator_tag@0@@Z 100e5fb0 f i CIssSr.obj
 0002:00037030       ??$_Copy_opt@PAV?$basic_string@DU?$char_traits@D@std@@V?$allocator@D@2@@std@@PAV12@Uforward_iterator_tag@2@@std@@YAPAV?$basic_string@DU?$char_traits@D@std@@V?$allocator@D@2@@0@PAV10@00Uforward_iterator_tag@0@U_Nonscalar_ptr_iterator_tag@0@U_Range_checked_iterator_tag@0@@Z 100e6030 f i CIssSr.obj
 0002:00037080       ??$_Iter_cat@V?$_Const_iterator@$00@?$list@V?$basic_string@DU?$char_traits@D@std@@V?$allocator@D@2@@std@@V?$allocator@V?$basic_string@DU?$char_traits@D@std@@V?$allocator@D@2@@std@@@2@@std@@@std@@YA?AUbidirectional_iterator_tag@0@ABV?$_Const_iterator@$00@?$list@V?$basic_string@DU?$char_traits@D@std@@V?$allocator@D@2@@std@@V?$allocator@V?$basic_string@DU?$char_traits@D@std@@V?$allocator@D@2@@std@@@2@@0@@Z 100e6080 f i CIssSr.obj
 0002:000370a0       ??$_Insert@V?$_Const_iterator@$00@?$list@V?$basic_string@DU?$char_traits@D@std@@V?$allocator@D@2@@std@@V?$allocator@V?$basic_string@DU?$char_traits@D@std@@V?$allocator@D@2@@std@@@2@@std@@@?$list@V?$basic_string@DU?$char_traits@D@std@@V?$allocator@D@2@@std@@V?$allocator@V?$basic_string@DU?$char_traits@D@std@@V?$allocator@D@2@@std@@@2@@std@@QAEXV?$_Const_iterator@$00@01@00Uforward_iterator_tag@1@@Z 100e60a0 f i CIssSr.obj
 0002:000371e0       ??$_Destroy@V?$basic_string@DU?$char_traits@D@std@@V?$allocator@D@2@@std@@@std@@YAXPAV?$basic_string@DU?$char_traits@D@std@@V?$allocator@D@2@@0@@Z 100e61e0 f i CIssSr.obj
 0002:00037200       ??_G?$basic_string@DU?$char_traits@D@std@@V?$allocator@D@2@@std@@QAEPAXI@Z 100e6200 f i CIssSr.obj
 0002:00037250       ??F?$_Const_iterator@$00@?$list@V?$basic_string@DU?$char_traits@D@std@@V?$allocator@D@2@@std@@V?$allocator@V?$basic_string@DU?$char_traits@D@std@@V?$allocator@D@2@@std@@@2@@std@@QAEAAV012@XZ 100e6250 f i CIssSr.obj
 0002:000372f0       ??$find@V?$_Vector_iterator@V?$basic_string@DU?$char_traits@D@std@@V?$allocator@D@2@@std@@V?$allocator@V?$basic_string@DU?$char_traits@D@std@@V?$allocator@D@2@@std@@@2@@std@@V?$basic_string@DU?$char_traits@D@std@@V?$allocator@D@2@@2@@std@@YA?AV?$_Vector_iterator@V?$basic_string@DU?$char_traits@D@std@@V?$allocator@D@2@@std@@V?$allocator@V?$basic_string@DU?$char_traits@D@std@@V?$allocator@D@2@@std@@@2@@0@V10@0ABV?$basic_string@DU?$char_traits@D@std@@V?$allocator@D@2@@0@@Z 100e62f0 f i CIssSr.obj
 0002:00037360       ??$swap@DU?$char_traits@D@std@@V?$allocator@D@2@@std@@YAXAAV?$basic_string@DU?$char_traits@D@std@@V?$allocator@D@2@@0@0@Z 100e6360 f i CIssSr.obj
 0002:00037390       ??$_Checked_base@V?$_Vector_const_iterator@V?$basic_string@DU?$char_traits@D@std@@V?$allocator@D@2@@std@@V?$allocator@V?$basic_string@DU?$char_traits@D@std@@V?$allocator@D@2@@std@@@2@@std@@@std@@YAPBV?$basic_string@DU?$char_traits@D@std@@V?$allocator@D@2@@0@AAV?$_Vector_const_iterator@V?$basic_string@DU?$char_traits@D@std@@V?$allocator@D@2@@std@@V?$allocator@V?$basic_string@DU?$char_traits@D@std@@V?$allocator@D@2@@std@@@2@@0@@Z 100e6390 f i CIssSr.obj
 0002:000373c0       ??$_Ptr_cat@V?$_Vector_const_iterator@V?$basic_string@DU?$char_traits@D@std@@V?$allocator@D@2@@std@@V?$allocator@V?$basic_string@DU?$char_traits@D@std@@V?$allocator@D@2@@std@@@2@@std@@PAV?$basic_string@DU?$char_traits@D@std@@V?$allocator@D@2@@2@@std@@YA?AU_Nonscalar_ptr_iterator_tag@0@AAV?$_Vector_const_iterator@V?$basic_string@DU?$char_traits@D@std@@V?$allocator@D@2@@std@@V?$allocator@V?$basic_string@DU?$char_traits@D@std@@V?$allocator@D@2@@std@@@2@@0@AAPAV?$basic_string@DU?$char_traits@D@std@@V?$allocator@D@2@@0@@Z 100e63c0 f i CIssSr.obj
 0002:000373e0       ??$_Uninit_copy@PBV?$basic_string@DU?$char_traits@D@std@@V?$allocator@D@2@@std@@PAV12@V?$allocator@V?$basic_string@DU?$char_traits@D@std@@V?$allocator@D@2@@std@@@2@@std@@YAPAV?$basic_string@DU?$char_traits@D@std@@V?$allocator@D@2@@0@PBV10@0PAV10@AAV?$allocator@V?$basic_string@DU?$char_traits@D@std@@V?$allocator@D@2@@std@@@0@U_Nonscalar_ptr_iterator_tag@0@U_Range_checked_iterator_tag@0@@Z 100e63e0 f i CIssSr.obj
 0002:000374d0       ??$insert@V?$_Vector_const_iterator@V?$basic_string@DU?$char_traits@D@std@@V?$allocator@D@2@@std@@V?$allocator@V?$basic_string@DU?$char_traits@D@std@@V?$allocator@D@2@@std@@@2@@std@@@?$vector@V?$basic_string@DU?$char_traits@D@std@@V?$allocator@D@2@@std@@V?$allocator@V?$basic_string@DU?$char_traits@D@std@@V?$allocator@D@2@@std@@@2@@std@@QAEXV?$_Vector_const_iterator@V?$basic_string@DU?$char_traits@D@std@@V?$allocator@D@2@@std@@V?$allocator@V?$basic_string@DU?$char_traits@D@std@@V?$allocator@D@2@@std@@@2@@1@00@Z 100e64d0 f i CIssSr.obj
 0002:00037530       ??$_Checked_base@V?$_Vector_iterator@V?$basic_string@DU?$char_traits@D@std@@V?$allocator@D@2@@std@@V?$allocator@V?$basic_string@DU?$char_traits@D@std@@V?$allocator@D@2@@std@@@2@@std@@@std@@YAPAV?$basic_string@DU?$char_traits@D@std@@V?$allocator@D@2@@0@AAV?$_Vector_iterator@V?$basic_string@DU?$char_traits@D@std@@V?$allocator@D@2@@std@@V?$allocator@V?$basic_string@DU?$char_traits@D@std@@V?$allocator@D@2@@std@@@2@@0@@Z 100e6530 f i CIssSr.obj
 0002:00037560       ??$_Find@PAV?$basic_string@DU?$char_traits@D@std@@V?$allocator@D@2@@std@@V12@@std@@YAPAV?$basic_string@DU?$char_traits@D@std@@V?$allocator@D@2@@0@PAV10@0ABV10@@Z 100e6560 f i CIssSr.obj
 0002:000375c0       ??$_Checked_assign_from_base@V?$_Vector_iterator@V?$basic_string@DU?$char_traits@D@std@@V?$allocator@D@2@@std@@V?$allocator@V?$basic_string@DU?$char_traits@D@std@@V?$allocator@D@2@@std@@@2@@std@@PAV?$basic_string@DU?$char_traits@D@std@@V?$allocator@D@2@@2@@std@@YAXAAV?$_Vector_iterator@V?$basic_string@DU?$char_traits@D@std@@V?$allocator@D@2@@std@@V?$allocator@V?$basic_string@DU?$char_traits@D@std@@V?$allocator@D@2@@std@@@2@@0@ABQAV?$basic_string@DU?$char_traits@D@std@@V?$allocator@D@2@@0@@Z 100e65c0 f i CIssSr.obj
 0002:000375f0       ??$_Checked_base@V?$_Vector_const_iterator@V?$basic_string@DU?$char_traits@D@std@@V?$allocator@D@2@@std@@V?$allocator@V?$basic_string@DU?$char_traits@D@std@@V?$allocator@D@2@@std@@@2@@std@@U_Different_checked_iterator_base_type_tag@2@@std@@YAPBV?$basic_string@DU?$char_traits@D@std@@V?$allocator@D@2@@0@AAV?$_Vector_const_iterator@V?$basic_string@DU?$char_traits@D@std@@V?$allocator@D@2@@std@@V?$allocator@V?$basic_string@DU?$char_traits@D@std@@V?$allocator@D@2@@std@@@2@@0@U_Different_checked_iterator_base_type_tag@0@@Z 100e65f0 f i CIssSr.obj
 0002:00037610       ??$_Insert@V?$_Vector_const_iterator@V?$basic_string@DU?$char_traits@D@std@@V?$allocator@D@2@@std@@V?$allocator@V?$basic_string@DU?$char_traits@D@std@@V?$allocator@D@2@@std@@@2@@std@@@?$vector@V?$basic_string@DU?$char_traits@D@std@@V?$allocator@D@2@@std@@V?$allocator@V?$basic_string@DU?$char_traits@D@std@@V?$allocator@D@2@@std@@@2@@std@@QAEXV?$_Vector_const_iterator@V?$basic_string@DU?$char_traits@D@std@@V?$allocator@D@2@@std@@V?$allocator@V?$basic_string@DU?$char_traits@D@std@@V?$allocator@D@2@@std@@@2@@1@00Uforward_iterator_tag@1@@Z 100e6610 f i CIssSr.obj
 0002:00037970       ?_Reverse@?$vector@V?$basic_string@DU?$char_traits@D@std@@V?$allocator@D@2@@std@@V?$allocator@V?$basic_string@DU?$char_traits@D@std@@V?$allocator@D@2@@std@@@2@@std@@QAEXPAV?$basic_string@DU?$char_traits@D@std@@V?$allocator@D@2@@2@0@Z 100e6970 f i CIssSr.obj
 0002:00037a50       ?_Checked_iterator_assign_from_base@?$_Vector_iterator@V?$basic_string@DU?$char_traits@D@std@@V?$allocator@D@2@@std@@V?$allocator@V?$basic_string@DU?$char_traits@D@std@@V?$allocator@D@2@@std@@@2@@std@@QAEXPAV?$basic_string@DU?$char_traits@D@std@@V?$allocator@D@2@@2@@Z 100e6a50 f i CIssSr.obj
 0002:00037a80       ?_Checked_iterator_base@?$_Vector_const_iterator@V?$basic_string@DU?$char_traits@D@std@@V?$allocator@D@2@@std@@V?$allocator@V?$basic_string@DU?$char_traits@D@std@@V?$allocator@D@2@@std@@@2@@std@@QBEPBV?$basic_string@DU?$char_traits@D@std@@V?$allocator@D@2@@2@XZ 100e6a80 f i CIssSr.obj
 0002:00037aa0       ??$_Checked_base@V?$_Vector_iterator@V?$basic_string@DU?$char_traits@D@std@@V?$allocator@D@2@@std@@V?$allocator@V?$basic_string@DU?$char_traits@D@std@@V?$allocator@D@2@@std@@@2@@std@@U_Different_checked_iterator_base_type_tag@2@@std@@YAPAV?$basic_string@DU?$char_traits@D@std@@V?$allocator@D@2@@0@AAV?$_Vector_iterator@V?$basic_string@DU?$char_traits@D@std@@V?$allocator@D@2@@std@@V?$allocator@V?$basic_string@DU?$char_traits@D@std@@V?$allocator@D@2@@std@@@2@@0@U_Different_checked_iterator_base_type_tag@0@@Z 100e6aa0 f i CIssSr.obj
 0002:00037ac0       ??$_Distance@V?$_Vector_const_iterator@V?$basic_string@DU?$char_traits@D@std@@V?$allocator@D@2@@std@@V?$allocator@V?$basic_string@DU?$char_traits@D@std@@V?$allocator@D@2@@std@@@2@@std@@I@std@@YAXV?$_Vector_const_iterator@V?$basic_string@DU?$char_traits@D@std@@V?$allocator@D@2@@std@@V?$allocator@V?$basic_string@DU?$char_traits@D@std@@V?$allocator@D@2@@std@@@2@@0@0AAI@Z 100e6ac0 f i CIssSr.obj
 0002:00037b10       ?_Checked_iterator_base@?$_Vector_iterator@V?$basic_string@DU?$char_traits@D@std@@V?$allocator@D@2@@std@@V?$allocator@V?$basic_string@DU?$char_traits@D@std@@V?$allocator@D@2@@std@@@2@@std@@QBEPAV?$basic_string@DU?$char_traits@D@std@@V?$allocator@D@2@@2@XZ 100e6b10 f i CIssSr.obj
 0002:00037b30       ??$_Distance2@V?$_Vector_const_iterator@V?$basic_string@DU?$char_traits@D@std@@V?$allocator@D@2@@std@@V?$allocator@V?$basic_string@DU?$char_traits@D@std@@V?$allocator@D@2@@std@@@2@@std@@I@std@@YAXV?$_Vector_const_iterator@V?$basic_string@DU?$char_traits@D@std@@V?$allocator@D@2@@std@@V?$allocator@V?$basic_string@DU?$char_traits@D@std@@V?$allocator@D@2@@std@@@2@@0@0AAIUrandom_access_iterator_tag@0@@Z 100e6b30 f i CIssSr.obj
 0002:00037b60       _DllMain@12                100e6b60 f   libisssr.obj
 0002:00037b90       _ISSSRCreate@20            100e6b90 f   libisssr.obj
 0002:00037dc0       _ISSSRCreateW@20           100e6dc0 f   libisssr.obj
 0002:00037e90       _ISSSRCreateEx@20          100e6e90 f   libisssr.obj
 0002:000380c0       _ISSSRCreateWEx@20         100e70c0 f   libisssr.obj
 0002:00038190       _ISSSRDestroy@4            100e7190 f   libisssr.obj
 0002:00038350       ??_GCIssSr@VA@@QAEPAXI@Z   100e7350 f i libisssr.obj
 0002:000383a0       _ISSSRSetParam@12          100e73a0 f   libisssr.obj
 0002:000384e0       ?ISSSRLoadBigSrRes@@YGHPAX@Z 100e74e0 f   libisssr.obj
 0002:00038620       _ISSSRStart@16             100e7620 f   libisssr.obj
 0002:00038770       _ISSSRAppendAudioData@16   100e7770 f   libisssr.obj
 0002:000388c0       _ISSSREndAudioData@4       100e78c0 f   libisssr.obj
 0002:00038a00       _ISSSRStop@4               100e7a00 f   libisssr.obj
 0002:00038b40       _ISSSRUpLoadDict@12        100e7b40 f   libisssr.obj
 0002:00038c80       _ISSGetRevisionNum@0       100e7c80 f   libisssr.obj
 0002:00038ca0       _ISSSRMspSearch@16         100e7ca0 f   libisssr.obj
 0002:00038e00       _ISSSRLocalNli@16          100e7e00 f   libisssr.obj
 0002:00038f60       _ISSSRCheckGrmBuilding@16  100e7f60 f   libisssr.obj
 0002:000390b0       _ISSSRSetLogCfgParam@8     100e80b0 f   libisssr.obj
 0002:00039370       _ISSSRSetMvwKeyWords@12    100e8370 f   libisssr.obj
 0002:000394d0       ?Init@AitalkResult@VA@@AAEXXZ 100e84d0 f   AitalkResult.obj
 0002:00039550       ?UnInit@AitalkResult@VA@@AAEXXZ 100e8550 f   AitalkResult.obj
 0002:00039570       ??0AitalkResult@VA@@QAE@XZ 100e8570 f   AitalkResult.obj
 0002:00039650       ??_EAitalkResult@VA@@UAEPAXI@Z 100e8650 f i AitalkResult.obj
 0002:00039650       ??_GAitalkResult@VA@@UAEPAXI@Z 100e8650 f i AitalkResult.obj
 0002:000396a0       ??0AitalkResult@VA@@QAE@ABV01@@Z 100e86a0 f   AitalkResult.obj
 0002:00039810       ??4AitalkResult@VA@@QAEAAV01@ABV01@@Z 100e8810 f   AitalkResult.obj
 0002:00039910       ??1AitalkResult@VA@@UAE@XZ 100e8910 f   AitalkResult.obj
 0002:000399d0       ?Reset@AitalkResult@VA@@QAEXXZ 100e89d0 f   AitalkResult.obj
 0002:00039a60       ?ToString@AitalkResult@VA@@QAE?AV?$basic_string@DU?$char_traits@D@std@@V?$allocator@D@2@@std@@XZ 100e8a60 f   AitalkResult.obj
 0002:00039cc0       ?CorrectLocalSrResult@AitalkResult@VA@@CAHAAV?$basic_string@DU?$char_traits@D@std@@V?$allocator@D@2@@std@@ABV34@@Z 100e8cc0 f   AitalkResult.obj
 0002:0003a020       ?StripPYFlag@AitalkResult@VA@@AAEXAAV?$basic_string@DU?$char_traits@D@std@@V?$allocator@D@2@@std@@@Z 100e9020 f   AitalkResult.obj
 0002:0003a240       ?parse@AitalkResult@VA@@QAEXIPBX@Z 100e9240 f   AitalkResult.obj
 0002:0003ab70       ?ToUserCmdJsonStr@AitalkResult@VA@@QAE?AV?$basic_string@DU?$char_traits@D@std@@V?$allocator@D@2@@std@@XZ 100e9b70 f   AitalkResult.obj
 0002:0003b530       ?GetText@AitalkResult@VA@@QAE?AV?$basic_string@DU?$char_traits@D@std@@V?$allocator@D@2@@std@@XZ 100ea530 f   AitalkResult.obj
 0002:0003b5e0       ?GetPinYin@AitalkResult@VA@@QAE?AV?$basic_string@DU?$char_traits@D@std@@V?$allocator@D@2@@std@@XZ 100ea5e0 f   AitalkResult.obj
 0002:0003b690       ?HasUserCmd@AitalkResult@VA@@QAE_NXZ 100ea690 f   AitalkResult.obj
 0002:0003b730       ?GetConfidenceScore@AitalkResult@VA@@QAEHXZ 100ea730 f   AitalkResult.obj
 0002:0003b750       ?GetListResults@AitalkResult@VA@@QAE?AV?$list@V?$basic_string@DU?$char_traits@D@std@@V?$allocator@D@2@@std@@V?$allocator@V?$basic_string@DU?$char_traits@D@std@@V?$allocator@D@2@@std@@@2@@std@@XZ 100ea750 f   AitalkResult.obj
 0002:0003b800       ??0?$list@V?$basic_string@DU?$char_traits@D@std@@V?$allocator@D@2@@std@@V?$allocator@V?$basic_string@DU?$char_traits@D@std@@V?$allocator@D@2@@std@@@2@@std@@QAE@ABV01@@Z 100ea800 f i AitalkResult.obj
 0002:0003b960       ??4?$list@V?$basic_string@DU?$char_traits@D@std@@V?$allocator@D@2@@std@@V?$allocator@V?$basic_string@DU?$char_traits@D@std@@V?$allocator@D@2@@std@@@2@@std@@QAEAAV01@ABV01@@Z 100ea960 f i AitalkResult.obj
 0002:0003b9d0       ?end@?$_Tree@V?$_Tmap_traits@V?$basic_string@DU?$char_traits@D@std@@V?$allocator@D@2@@std@@HU?$less@V?$basic_string@DU?$char_traits@D@std@@V?$allocator@D@2@@std@@@2@V?$allocator@U?$pair@$$CBV?$basic_string@DU?$char_traits@D@std@@V?$allocator@D@2@@std@@H@std@@@2@$0A@@std@@@std@@QAE?AViterator@12@XZ 100ea9d0 f i AitalkResult.obj
 0002:0003ba10       ?find@?$_Tree@V?$_Tmap_traits@V?$basic_string@DU?$char_traits@D@std@@V?$allocator@D@2@@std@@HU?$less@V?$basic_string@DU?$char_traits@D@std@@V?$allocator@D@2@@std@@@2@V?$allocator@U?$pair@$$CBV?$basic_string@DU?$char_traits@D@std@@V?$allocator@D@2@@std@@H@std@@@2@$0A@@std@@@std@@QAE?AViterator@12@ABV?$basic_string@DU?$char_traits@D@std@@V?$allocator@D@2@@2@@Z 100eaa10 f i AitalkResult.obj
 0002:0003bad0       ?size@?$vector@V?$list@UOutPutText2SubStrOfDictItem@VA@@V?$allocator@UOutPutText2SubStrOfDictItem@VA@@@std@@@std@@V?$allocator@V?$list@UOutPutText2SubStrOfDictItem@VA@@V?$allocator@UOutPutText2SubStrOfDictItem@VA@@@std@@@std@@@2@@std@@QBEIXZ 100eaad0 f i AitalkResult.obj
 0002:0003bb00       ??A?$vector@V?$list@UOutPutText2SubStrOfDictItem@VA@@V?$allocator@UOutPutText2SubStrOfDictItem@VA@@@std@@@std@@V?$allocator@V?$list@UOutPutText2SubStrOfDictItem@VA@@V?$allocator@UOutPutText2SubStrOfDictItem@VA@@@std@@@std@@@2@@std@@QAEAAV?$list@UOutPutText2SubStrOfDictItem@VA@@V?$allocator@UOutPutText2SubStrOfDictItem@VA@@@std@@@1@I@Z 100eab00 f i AitalkResult.obj
 0002:0003bb50       ??Citerator@?$_Tree@V?$_Tmap_traits@V?$basic_string@DU?$char_traits@D@std@@V?$allocator@D@2@@std@@HU?$less@V?$basic_string@DU?$char_traits@D@std@@V?$allocator@D@2@@std@@@2@V?$allocator@U?$pair@$$CBV?$basic_string@DU?$char_traits@D@std@@V?$allocator@D@2@@std@@H@std@@@2@$0A@@std@@@std@@QBEPAU?$pair@$$CBV?$basic_string@DU?$char_traits@D@std@@V?$allocator@D@2@@std@@H@2@XZ 100eab50 f i AitalkResult.obj
 0002:0003bb80       ??8const_iterator@?$_Tree@V?$_Tmap_traits@V?$basic_string@DU?$char_traits@D@std@@V?$allocator@D@2@@std@@HU?$less@V?$basic_string@DU?$char_traits@D@std@@V?$allocator@D@2@@std@@@2@V?$allocator@U?$pair@$$CBV?$basic_string@DU?$char_traits@D@std@@V?$allocator@D@2@@std@@H@std@@@2@$0A@@std@@@std@@QBE_NABV012@@Z 100eab80 f i AitalkResult.obj
 0002:0003bbf0       ?begin@?$list@UOutPutText2SubStrOfDictItem@VA@@V?$allocator@UOutPutText2SubStrOfDictItem@VA@@@std@@@std@@QAE?AV?$_Iterator@$00@12@XZ 100eabf0 f i AitalkResult.obj
 0002:0003bc40       ?end@?$list@UOutPutText2SubStrOfDictItem@VA@@V?$allocator@UOutPutText2SubStrOfDictItem@VA@@@std@@@std@@QAE?AV?$_Iterator@$00@12@XZ 100eac40 f i AitalkResult.obj
 0002:0003bc80       ??C?$_Iterator@$00@?$list@UOutPutText2SubStrOfDictItem@VA@@V?$allocator@UOutPutText2SubStrOfDictItem@VA@@@std@@@std@@QBEPAUOutPutText2SubStrOfDictItem@VA@@XZ 100eac80 f i AitalkResult.obj
 0002:0003bcb0       ??E?$_Iterator@$00@?$list@UOutPutText2SubStrOfDictItem@VA@@V?$allocator@UOutPutText2SubStrOfDictItem@VA@@@std@@@std@@QAEAAV012@XZ 100eacb0 f i AitalkResult.obj
 0002:0003bce0       ??9?$_Const_iterator@$00@?$list@UOutPutText2SubStrOfDictItem@VA@@V?$allocator@UOutPutText2SubStrOfDictItem@VA@@@std@@@std@@QBE_NABV012@@Z 100eace0 f i AitalkResult.obj
 0002:0003bd20       ?begin@?$list@V?$basic_string@DU?$char_traits@D@std@@V?$allocator@D@2@@std@@V?$allocator@V?$basic_string@DU?$char_traits@D@std@@V?$allocator@D@2@@std@@@2@@std@@QBE?AV?$_Const_iterator@$00@12@XZ 100ead20 f i AitalkResult.obj
 0002:0003bd70       ?end@?$list@V?$basic_string@DU?$char_traits@D@std@@V?$allocator@D@2@@std@@V?$allocator@V?$basic_string@DU?$char_traits@D@std@@V?$allocator@D@2@@std@@@2@@std@@QBE?AV?$_Const_iterator@$00@12@XZ 100ead70 f i AitalkResult.obj
 0002:0003bdb0       ?_Key@?$_Tree@V?$_Tmap_traits@V?$basic_string@DU?$char_traits@D@std@@V?$allocator@D@2@@std@@HU?$less@V?$basic_string@DU?$char_traits@D@std@@V?$allocator@D@2@@std@@@2@V?$allocator@U?$pair@$$CBV?$basic_string@DU?$char_traits@D@std@@V?$allocator@D@2@@std@@H@std@@@2@$0A@@std@@@std@@KAABV?$basic_string@DU?$char_traits@D@std@@V?$allocator@D@2@@2@PAU_Node@?$_Tree_nod@V?$_Tmap_traits@V?$basic_string@DU?$char_traits@D@std@@V?$allocator@D@2@@std@@HU?$less@V?$basic_string@DU?$char_traits@D@std@@V?$allocator@D@2@@std@@@2@V?$allocator@U?$pair@$$CBV?$basic_string@DU?$char_traits@D@std@@V?$allocator@D@2@@std@@H@std@@@2@$0A@@std@@@2@@Z 100eadb0 f i AitalkResult.obj
 0002:0003bde0       ?lower_bound@?$_Tree@V?$_Tmap_traits@V?$basic_string@DU?$char_traits@D@std@@V?$allocator@D@2@@std@@HU?$less@V?$basic_string@DU?$char_traits@D@std@@V?$allocator@D@2@@std@@@2@V?$allocator@U?$pair@$$CBV?$basic_string@DU?$char_traits@D@std@@V?$allocator@D@2@@std@@H@std@@@2@$0A@@std@@@std@@QAE?AViterator@12@ABV?$basic_string@DU?$char_traits@D@std@@V?$allocator@D@2@@2@@Z 100eade0 f i AitalkResult.obj
 0002:0003be20       ??0iterator@?$_Tree@V?$_Tmap_traits@V?$basic_string@DU?$char_traits@D@std@@V?$allocator@D@2@@std@@HU?$less@V?$basic_string@DU?$char_traits@D@std@@V?$allocator@D@2@@std@@@2@V?$allocator@U?$pair@$$CBV?$basic_string@DU?$char_traits@D@std@@V?$allocator@D@2@@std@@H@std@@@2@$0A@@std@@@std@@QAE@PAU_Node@?$_Tree_nod@V?$_Tmap_traits@V?$basic_string@DU?$char_traits@D@std@@V?$allocator@D@2@@std@@HU?$less@V?$basic_string@DU?$char_traits@D@std@@V?$allocator@D@2@@std@@@2@V?$allocator@U?$pair@$$CBV?$basic_string@DU?$char_traits@D@std@@V?$allocator@D@2@@std@@H@std@@@2@$0A@@std@@@2@PBV12@@Z 100eae20 f i AitalkResult.obj
 0002:0003be60       ??Diterator@?$_Tree@V?$_Tmap_traits@V?$basic_string@DU?$char_traits@D@std@@V?$allocator@D@2@@std@@HU?$less@V?$basic_string@DU?$char_traits@D@std@@V?$allocator@D@2@@std@@@2@V?$allocator@U?$pair@$$CBV?$basic_string@DU?$char_traits@D@std@@V?$allocator@D@2@@std@@H@std@@@2@$0A@@std@@@std@@QBEAAU?$pair@$$CBV?$basic_string@DU?$char_traits@D@std@@V?$allocator@D@2@@std@@H@2@XZ 100eae60 f i AitalkResult.obj
 0002:0003be90       ?_Mynode@const_iterator@?$_Tree@V?$_Tmap_traits@V?$basic_string@DU?$char_traits@D@std@@V?$allocator@D@2@@std@@HU?$less@V?$basic_string@DU?$char_traits@D@std@@V?$allocator@D@2@@std@@@2@V?$allocator@U?$pair@$$CBV?$basic_string@DU?$char_traits@D@std@@V?$allocator@D@2@@std@@H@std@@@2@$0A@@std@@@std@@QBEPAU_Node@?$_Tree_nod@V?$_Tmap_traits@V?$basic_string@DU?$char_traits@D@std@@V?$allocator@D@2@@std@@HU?$less@V?$basic_string@DU?$char_traits@D@std@@V?$allocator@D@2@@std@@@2@V?$allocator@U?$pair@$$CBV?$basic_string@DU?$char_traits@D@std@@V?$allocator@D@2@@std@@H@std@@@2@$0A@@std@@@3@XZ 100eae90 f i AitalkResult.obj
 0002:0003beb0       ?_Nextnode@?$list@UOutPutText2SubStrOfDictItem@VA@@V?$allocator@UOutPutText2SubStrOfDictItem@VA@@@std@@@std@@KAAAPAU_Node@?$_List_nod@UOutPutText2SubStrOfDictItem@VA@@V?$allocator@UOutPutText2SubStrOfDictItem@VA@@@std@@@2@PAU342@@Z 100eaeb0 f i AitalkResult.obj
 0002:0003bed0       ??0?$_Iterator@$00@?$list@UOutPutText2SubStrOfDictItem@VA@@V?$allocator@UOutPutText2SubStrOfDictItem@VA@@@std@@@std@@QAE@PAU_Node@?$_List_nod@UOutPutText2SubStrOfDictItem@VA@@V?$allocator@UOutPutText2SubStrOfDictItem@VA@@@std@@@2@PBV12@@Z 100eaed0 f i AitalkResult.obj
 0002:0003bf10       ??D?$_Iterator@$00@?$list@UOutPutText2SubStrOfDictItem@VA@@V?$allocator@UOutPutText2SubStrOfDictItem@VA@@@std@@@std@@QBEAAUOutPutText2SubStrOfDictItem@VA@@XZ 100eaf10 f i AitalkResult.obj
 0002:0003bf40       ??E?$_Const_iterator@$00@?$list@UOutPutText2SubStrOfDictItem@VA@@V?$allocator@UOutPutText2SubStrOfDictItem@VA@@@std@@@std@@QAEAAV012@XZ 100eaf40 f i AitalkResult.obj
 0002:0003bfd0       ??8?$_Const_iterator@$00@?$list@UOutPutText2SubStrOfDictItem@VA@@V?$allocator@UOutPutText2SubStrOfDictItem@VA@@@std@@@std@@QBE_NABV012@@Z 100eafd0 f i AitalkResult.obj
 0002:0003c040       ?_Myval@?$_Tree@V?$_Tmap_traits@V?$basic_string@DU?$char_traits@D@std@@V?$allocator@D@2@@std@@HU?$less@V?$basic_string@DU?$char_traits@D@std@@V?$allocator@D@2@@std@@@2@V?$allocator@U?$pair@$$CBV?$basic_string@DU?$char_traits@D@std@@V?$allocator@D@2@@std@@H@std@@@2@$0A@@std@@@std@@KAAAU?$pair@$$CBV?$basic_string@DU?$char_traits@D@std@@V?$allocator@D@2@@std@@H@2@PAU_Node@?$_Tree_nod@V?$_Tmap_traits@V?$basic_string@DU?$char_traits@D@std@@V?$allocator@D@2@@std@@HU?$less@V?$basic_string@DU?$char_traits@D@std@@V?$allocator@D@2@@std@@@2@V?$allocator@U?$pair@$$CBV?$basic_string@DU?$char_traits@D@std@@V?$allocator@D@2@@std@@H@std@@@2@$0A@@std@@@2@@Z 100eb040 f i AitalkResult.obj
 0002:0003c060       ?_Lbound@?$_Tree@V?$_Tmap_traits@V?$basic_string@DU?$char_traits@D@std@@V?$allocator@D@2@@std@@HU?$less@V?$basic_string@DU?$char_traits@D@std@@V?$allocator@D@2@@std@@@2@V?$allocator@U?$pair@$$CBV?$basic_string@DU?$char_traits@D@std@@V?$allocator@D@2@@std@@H@std@@@2@$0A@@std@@@std@@IBEPAU_Node@?$_Tree_nod@V?$_Tmap_traits@V?$basic_string@DU?$char_traits@D@std@@V?$allocator@D@2@@std@@HU?$less@V?$basic_string@DU?$char_traits@D@std@@V?$allocator@D@2@@std@@@2@V?$allocator@U?$pair@$$CBV?$basic_string@DU?$char_traits@D@std@@V?$allocator@D@2@@std@@H@std@@@2@$0A@@std@@@2@ABV?$basic_string@DU?$char_traits@D@std@@V?$allocator@D@2@@2@@Z 100eb060 f i AitalkResult.obj
 0002:0003c120       ?_Kfn@?$_Tmap_traits@V?$basic_string@DU?$char_traits@D@std@@V?$allocator@D@2@@std@@HU?$less@V?$basic_string@DU?$char_traits@D@std@@V?$allocator@D@2@@std@@@2@V?$allocator@U?$pair@$$CBV?$basic_string@DU?$char_traits@D@std@@V?$allocator@D@2@@std@@H@std@@@2@$0A@@std@@SAABV?$basic_string@DU?$char_traits@D@std@@V?$allocator@D@2@@2@ABU?$pair@$$CBV?$basic_string@DU?$char_traits@D@std@@V?$allocator@D@2@@std@@H@2@@Z 100eb120 f i AitalkResult.obj
 0002:0003c140       ??0const_iterator@?$_Tree@V?$_Tmap_traits@V?$basic_string@DU?$char_traits@D@std@@V?$allocator@D@2@@std@@HU?$less@V?$basic_string@DU?$char_traits@D@std@@V?$allocator@D@2@@std@@@2@V?$allocator@U?$pair@$$CBV?$basic_string@DU?$char_traits@D@std@@V?$allocator@D@2@@std@@H@std@@@2@$0A@@std@@@std@@QAE@PAU_Node@?$_Tree_nod@V?$_Tmap_traits@V?$basic_string@DU?$char_traits@D@std@@V?$allocator@D@2@@std@@HU?$less@V?$basic_string@DU?$char_traits@D@std@@V?$allocator@D@2@@std@@@2@V?$allocator@U?$pair@$$CBV?$basic_string@DU?$char_traits@D@std@@V?$allocator@D@2@@std@@H@std@@@2@$0A@@std@@@2@PBV12@@Z 100eb140 f i AitalkResult.obj
 0002:0003c1a0       ??Dconst_iterator@?$_Tree@V?$_Tmap_traits@V?$basic_string@DU?$char_traits@D@std@@V?$allocator@D@2@@std@@HU?$less@V?$basic_string@DU?$char_traits@D@std@@V?$allocator@D@2@@std@@@2@V?$allocator@U?$pair@$$CBV?$basic_string@DU?$char_traits@D@std@@V?$allocator@D@2@@std@@H@std@@@2@$0A@@std@@@std@@QBEABU?$pair@$$CBV?$basic_string@DU?$char_traits@D@std@@V?$allocator@D@2@@std@@H@2@XZ 100eb1a0 f i AitalkResult.obj
 0002:0003c210       ??0?$_Const_iterator@$00@?$list@UOutPutText2SubStrOfDictItem@VA@@V?$allocator@UOutPutText2SubStrOfDictItem@VA@@@std@@@std@@QAE@PAU_Node@?$_List_nod@UOutPutText2SubStrOfDictItem@VA@@V?$allocator@UOutPutText2SubStrOfDictItem@VA@@@std@@@2@PBV12@@Z 100eb210 f i AitalkResult.obj
 0002:0003c270       ??D?$_Const_iterator@$00@?$list@UOutPutText2SubStrOfDictItem@VA@@V?$allocator@UOutPutText2SubStrOfDictItem@VA@@@std@@@std@@QBEABUOutPutText2SubStrOfDictItem@VA@@XZ 100eb270 f i AitalkResult.obj
 0002:0003c2f0       ??0?$_Bidit@U?$pair@$$CBV?$basic_string@DU?$char_traits@D@std@@V?$allocator@D@2@@std@@H@std@@HPBU12@ABU12@@std@@QAE@XZ 100eb2f0 f i AitalkResult.obj
 0002:0003c320       ??0?$_Bidit@UOutPutText2SubStrOfDictItem@VA@@HPBU12@ABU12@@std@@QAE@XZ 100eb320 f i AitalkResult.obj
 0002:0003c350       ??0?$_Iterator_with_base@Ubidirectional_iterator_tag@std@@U?$pair@$$CBV?$basic_string@DU?$char_traits@D@std@@V?$allocator@D@2@@std@@H@2@HPBU32@ABU32@V_Iterator_base_aux@2@@std@@QAE@XZ 100eb350 f i AitalkResult.obj
 0002:0003c380       ??0?$_Iterator_with_base@Ubidirectional_iterator_tag@std@@UOutPutText2SubStrOfDictItem@VA@@HPBU34@ABU34@V_Iterator_base_aux@2@@std@@QAE@XZ 100eb380 f i AitalkResult.obj
 0002:0003c3b0       ?_Isnil@?$_Tree@V?$_Tmap_traits@V?$basic_string@DU?$char_traits@D@std@@V?$allocator@D@2@@std@@HU?$less@V?$basic_string@DU?$char_traits@D@std@@V?$allocator@D@2@@std@@@2@V?$allocator@U?$pair@$$CBV?$basic_string@DU?$char_traits@D@std@@V?$allocator@D@2@@std@@H@std@@@2@$0A@@std@@@std@@KAAADPAU_Node@?$_Tree_nod@V?$_Tmap_traits@V?$basic_string@DU?$char_traits@D@std@@V?$allocator@D@2@@std@@HU?$less@V?$basic_string@DU?$char_traits@D@std@@V?$allocator@D@2@@std@@@2@V?$allocator@U?$pair@$$CBV?$basic_string@DU?$char_traits@D@std@@V?$allocator@D@2@@std@@H@std@@@2@$0A@@std@@@2@@Z 100eb3b0 f i AitalkResult.obj
 0002:0003c3d0       ?_Left@?$_Tree@V?$_Tmap_traits@V?$basic_string@DU?$char_traits@D@std@@V?$allocator@D@2@@std@@HU?$less@V?$basic_string@DU?$char_traits@D@std@@V?$allocator@D@2@@std@@@2@V?$allocator@U?$pair@$$CBV?$basic_string@DU?$char_traits@D@std@@V?$allocator@D@2@@std@@H@std@@@2@$0A@@std@@@std@@KAAAPAU_Node@?$_Tree_nod@V?$_Tmap_traits@V?$basic_string@DU?$char_traits@D@std@@V?$allocator@D@2@@std@@HU?$less@V?$basic_string@DU?$char_traits@D@std@@V?$allocator@D@2@@std@@@2@V?$allocator@U?$pair@$$CBV?$basic_string@DU?$char_traits@D@std@@V?$allocator@D@2@@std@@H@std@@@2@$0A@@std@@@2@PAU342@@Z 100eb3d0 f i AitalkResult.obj
 0002:0003c3f0       ?_Right@?$_Tree@V?$_Tmap_traits@V?$basic_string@DU?$char_traits@D@std@@V?$allocator@D@2@@std@@HU?$less@V?$basic_string@DU?$char_traits@D@std@@V?$allocator@D@2@@std@@@2@V?$allocator@U?$pair@$$CBV?$basic_string@DU?$char_traits@D@std@@V?$allocator@D@2@@std@@H@std@@@2@$0A@@std@@@std@@KAAAPAU_Node@?$_Tree_nod@V?$_Tmap_traits@V?$basic_string@DU?$char_traits@D@std@@V?$allocator@D@2@@std@@HU?$less@V?$basic_string@DU?$char_traits@D@std@@V?$allocator@D@2@@std@@@2@V?$allocator@U?$pair@$$CBV?$basic_string@DU?$char_traits@D@std@@V?$allocator@D@2@@std@@H@std@@@2@$0A@@std@@@2@PAU342@@Z 100eb3f0 f i AitalkResult.obj
 0002:0003c410       ?_Root@?$_Tree@V?$_Tmap_traits@V?$basic_string@DU?$char_traits@D@std@@V?$allocator@D@2@@std@@HU?$less@V?$basic_string@DU?$char_traits@D@std@@V?$allocator@D@2@@std@@@2@V?$allocator@U?$pair@$$CBV?$basic_string@DU?$char_traits@D@std@@V?$allocator@D@2@@std@@H@std@@@2@$0A@@std@@@std@@IBEAAPAU_Node@?$_Tree_nod@V?$_Tmap_traits@V?$basic_string@DU?$char_traits@D@std@@V?$allocator@D@2@@std@@HU?$less@V?$basic_string@DU?$char_traits@D@std@@V?$allocator@D@2@@std@@@2@V?$allocator@U?$pair@$$CBV?$basic_string@DU?$char_traits@D@std@@V?$allocator@D@2@@std@@H@std@@@2@$0A@@std@@@2@XZ 100eb410 f i AitalkResult.obj
 0002:0003c440       ?_Myval@?$list@UOutPutText2SubStrOfDictItem@VA@@V?$allocator@UOutPutText2SubStrOfDictItem@VA@@@std@@@std@@KAAAUOutPutText2SubStrOfDictItem@VA@@PAU_Node@?$_List_nod@UOutPutText2SubStrOfDictItem@VA@@V?$allocator@UOutPutText2SubStrOfDictItem@VA@@@std@@@2@@Z 100eb440 f i AitalkResult.obj
 0002:0003c460       ?_Parent@?$_Tree@V?$_Tmap_traits@V?$basic_string@DU?$char_traits@D@std@@V?$allocator@D@2@@std@@HU?$less@V?$basic_string@DU?$char_traits@D@std@@V?$allocator@D@2@@std@@@2@V?$allocator@U?$pair@$$CBV?$basic_string@DU?$char_traits@D@std@@V?$allocator@D@2@@std@@H@std@@@2@$0A@@std@@@std@@KAAAPAU_Node@?$_Tree_nod@V?$_Tmap_traits@V?$basic_string@DU?$char_traits@D@std@@V?$allocator@D@2@@std@@HU?$less@V?$basic_string@DU?$char_traits@D@std@@V?$allocator@D@2@@std@@@2@V?$allocator@U?$pair@$$CBV?$basic_string@DU?$char_traits@D@std@@V?$allocator@D@2@@std@@H@std@@@2@$0A@@std@@@2@PAU342@@Z 100eb460 f i AitalkResult.obj
 0002:0003c480       ??$assign@V?$_Const_iterator@$00@?$list@V?$basic_string@DU?$char_traits@D@std@@V?$allocator@D@2@@std@@V?$allocator@V?$basic_string@DU?$char_traits@D@std@@V?$allocator@D@2@@std@@@2@@std@@@?$list@V?$basic_string@DU?$char_traits@D@std@@V?$allocator@D@2@@std@@V?$allocator@V?$basic_string@DU?$char_traits@D@std@@V?$allocator@D@2@@std@@@2@@std@@QAEXV?$_Const_iterator@$00@01@0@Z 100eb480 f i AitalkResult.obj
 0002:0003c4e0       ??$_Assign@V?$_Const_iterator@$00@?$list@V?$basic_string@DU?$char_traits@D@std@@V?$allocator@D@2@@std@@V?$allocator@V?$basic_string@DU?$char_traits@D@std@@V?$allocator@D@2@@std@@@2@@std@@@?$list@V?$basic_string@DU?$char_traits@D@std@@V?$allocator@D@2@@std@@V?$allocator@V?$basic_string@DU?$char_traits@D@std@@V?$allocator@D@2@@std@@@2@@std@@QAEXV?$_Const_iterator@$00@01@0Uinput_iterator_tag@1@@Z 100eb4e0 f i AitalkResult.obj
 0002:0003c550       ?m_pcbOnGrmProc@CGrmBuilder@VA@@CAXPBXII0@Z 100eb550 f   Grm.obj
 0002:0003c780       ?Init@CGrmBuilder@VA@@AAEXXZ 100eb780 f   Grm.obj
 0002:0003c890       ?UnInit@CGrmBuilder@VA@@AAEXXZ 100eb890 f   Grm.obj
 0002:0003ca00       ??0CGrmBuilder@VA@@QAE@XZ  100eba00 f   Grm.obj
 0002:0003d040       ??_ECGrmBuilder@VA@@UAEPAXI@Z 100ec040 f i Grm.obj
 0002:0003d040       ??_GCGrmBuilder@VA@@UAEPAXI@Z 100ec040 f i Grm.obj
 0002:0003d090       ??1?$map@V?$basic_string@DU?$char_traits@D@std@@V?$allocator@D@2@@std@@VDictConstructor@VA@@U?$less@V?$basic_string@DU?$char_traits@D@std@@V?$allocator@D@2@@std@@@2@V?$allocator@U?$pair@$$CBV?$basic_string@DU?$char_traits@D@std@@V?$allocator@D@2@@std@@VDictConstructor@VA@@@std@@@2@@std@@QAE@XZ 100ec090 f i Grm.obj
 0002:0003d0c0       ??1?$queue@V?$basic_string@DU?$char_traits@D@std@@V?$allocator@D@2@@std@@V?$deque@V?$basic_string@DU?$char_traits@D@std@@V?$allocator@D@2@@std@@V?$allocator@V?$basic_string@DU?$char_traits@D@std@@V?$allocator@D@2@@std@@@2@@2@@std@@QAE@XZ 100ec0c0 f i Grm.obj
 0002:0003d0f0       ??1CGrmBuilder@VA@@UAE@XZ  100ec0f0 f   Grm.obj
 0002:0003d310       ?IsGrmWorking@CGrmBuilder@VA@@QAE_NXZ 100ec310 f   Grm.obj
 0002:0003d340       ?GrmBuild@CGrmBuilder@VA@@QAEHABV?$basic_string@DU?$char_traits@D@std@@V?$allocator@D@2@@std@@@Z 100ec340 f   Grm.obj
 0002:0003d4f0       ?GetDictBuildStatus@CGrmBuilder@VA@@QAEHPBD@Z 100ec4f0 f   Grm.obj
 0002:0003d610       ?GrmQueueIsEmpty@CGrmBuilder@VA@@AAE_NXZ 100ec610 f   Grm.obj
 0002:0003d670       ?InitMapDictBuilders@CGrmBuilder@VA@@AAEXXZ 100ec670 f   Grm.obj
 0002:0003eba0       ??0DictConstructor@VA@@QAE@ABV?$basic_string@DU?$char_traits@D@std@@V?$allocator@D@2@@std@@0@Z 100edba0 f i Grm.obj
 0002:0003ebe0       ??0DictBuilder@VA@@QAE@ABV?$basic_string@DU?$char_traits@D@std@@V?$allocator@D@2@@std@@0@Z 100edbe0 f i Grm.obj
 0002:0003eca0       ??1BuildData@VA@@QAE@XZ    100edca0 f i Grm.obj
 0002:0003ed50       ??1?$pair@PBDVDictConstructor@VA@@@std@@QAE@XZ 100edd50 f i Grm.obj
 0002:0003ed80       ??1DictConstructor@VA@@QAE@XZ 100edd80 f i Grm.obj
 0002:0003edb0       ??1DictBuilder@VA@@QAE@XZ  100eddb0 f i Grm.obj
 0002:0003ee60       ??1?$pair@$$CBV?$basic_string@DU?$char_traits@D@std@@V?$allocator@D@2@@std@@VDictConstructor@VA@@@std@@QAE@XZ 100ede60 f i Grm.obj
 0002:0003eee0       ?WorkingProc@CGrmBuilder@VA@@EAEXXZ 100edee0 f   Grm.obj
 0002:0003efc0       ?RunLoop@CGrmBuilder@VA@@AAEXXZ 100edfc0 f   Grm.obj
 0002:0003f370       ?BuildGrm@CGrmBuilder@VA@@AAEHXZ 100ee370 f   Grm.obj
 0002:00040130       ??0GrmBuildStatus@VA@@QAE@XZ 100ef130 f i Grm.obj
 0002:000401e0       ??1GrmBuildStatus@VA@@QAE@XZ 100ef1e0 f i Grm.obj
 0002:00040270       ??1?$map@V?$basic_string@DU?$char_traits@D@std@@V?$allocator@D@2@@std@@HU?$less@V?$basic_string@DU?$char_traits@D@std@@V?$allocator@D@2@@std@@@2@V?$allocator@U?$pair@$$CBV?$basic_string@DU?$char_traits@D@std@@V?$allocator@D@2@@std@@H@std@@@2@@std@@QAE@XZ 100ef270 f i Grm.obj
 0002:000402a0       ??0DictParser@VA@@QAE@H@Z  100ef2a0 f i Grm.obj
 0002:00040350       ??1DictParser@VA@@QAE@XZ   100ef350 f i Grm.obj
 0002:000403e0       ??1?$map@V?$basic_string@DU?$char_traits@D@std@@V?$allocator@D@2@@std@@VValue@Json@VA@@U?$less@V?$basic_string@DU?$char_traits@D@std@@V?$allocator@D@2@@std@@@2@V?$allocator@U?$pair@$$CBV?$basic_string@DU?$char_traits@D@std@@V?$allocator@D@2@@std@@VValue@Json@VA@@@std@@@2@@std@@QAE@XZ 100ef3e0 f i Grm.obj
 0002:00040410       ??0?$map@V?$basic_string@DU?$char_traits@D@std@@V?$allocator@D@2@@std@@HU?$less@V?$basic_string@DU?$char_traits@D@std@@V?$allocator@D@2@@std@@@2@V?$allocator@U?$pair@$$CBV?$basic_string@DU?$char_traits@D@std@@V?$allocator@D@2@@std@@H@std@@@2@@std@@QAE@XZ 100ef410 f i Grm.obj
 0002:00040450       ??A?$map@V?$basic_string@DU?$char_traits@D@std@@V?$allocator@D@2@@std@@HU?$less@V?$basic_string@DU?$char_traits@D@std@@V?$allocator@D@2@@std@@@2@V?$allocator@U?$pair@$$CBV?$basic_string@DU?$char_traits@D@std@@V?$allocator@D@2@@std@@H@std@@@2@@std@@QAEAAHABV?$basic_string@DU?$char_traits@D@std@@V?$allocator@D@2@@1@@Z 100ef450 f i Grm.obj
 0002:000405c0       ??1?$_Tree@V?$_Tmap_traits@V?$basic_string@DU?$char_traits@D@std@@V?$allocator@D@2@@std@@HU?$less@V?$basic_string@DU?$char_traits@D@std@@V?$allocator@D@2@@std@@@2@V?$allocator@U?$pair@$$CBV?$basic_string@DU?$char_traits@D@std@@V?$allocator@D@2@@std@@H@std@@@2@$0A@@std@@@std@@QAE@XZ 100ef5c0 f i Grm.obj
 0002:00040640       ?size@?$_Tree@V?$_Tmap_traits@V?$basic_string@DU?$char_traits@D@std@@V?$allocator@D@2@@std@@HU?$less@V?$basic_string@DU?$char_traits@D@std@@V?$allocator@D@2@@std@@@2@V?$allocator@U?$pair@$$CBV?$basic_string@DU?$char_traits@D@std@@V?$allocator@D@2@@std@@H@std@@@2@$0A@@std@@@std@@QBEIXZ 100ef640 f i Grm.obj
 0002:00040660       ??0?$map@V?$basic_string@DU?$char_traits@D@std@@V?$allocator@D@2@@std@@VDictConstructor@VA@@U?$less@V?$basic_string@DU?$char_traits@D@std@@V?$allocator@D@2@@std@@@2@V?$allocator@U?$pair@$$CBV?$basic_string@DU?$char_traits@D@std@@V?$allocator@D@2@@std@@VDictConstructor@VA@@@std@@@2@@std@@QAE@XZ 100ef660 f i Grm.obj
 0002:000406a0       ??A?$map@V?$basic_string@DU?$char_traits@D@std@@V?$allocator@D@2@@std@@VDictConstructor@VA@@U?$less@V?$basic_string@DU?$char_traits@D@std@@V?$allocator@D@2@@std@@@2@V?$allocator@U?$pair@$$CBV?$basic_string@DU?$char_traits@D@std@@V?$allocator@D@2@@std@@VDictConstructor@VA@@@std@@@2@@std@@QAEAAVDictConstructor@VA@@ABV?$basic_string@DU?$char_traits@D@std@@V?$allocator@D@2@@1@@Z 100ef6a0 f i Grm.obj
 0002:00040840       ??0DictConstructor@VA@@QAE@XZ 100ef840 f i Grm.obj
 0002:00040870       ??0DictBuilder@VA@@QAE@XZ  100ef870 f i Grm.obj
 0002:00040920       ??1?$_Tree@V?$_Tmap_traits@V?$basic_string@DU?$char_traits@D@std@@V?$allocator@D@2@@std@@VDictConstructor@VA@@U?$less@V?$basic_string@DU?$char_traits@D@std@@V?$allocator@D@2@@std@@@2@V?$allocator@U?$pair@$$CBV?$basic_string@DU?$char_traits@D@std@@V?$allocator@D@2@@std@@VDictConstructor@VA@@@std@@@2@$0A@@std@@@std@@QAE@XZ 100ef920 f i Grm.obj
 0002:000409a0       ?begin@?$_Tree@V?$_Tmap_traits@V?$basic_string@DU?$char_traits@D@std@@V?$allocator@D@2@@std@@VDictConstructor@VA@@U?$less@V?$basic_string@DU?$char_traits@D@std@@V?$allocator@D@2@@std@@@2@V?$allocator@U?$pair@$$CBV?$basic_string@DU?$char_traits@D@std@@V?$allocator@D@2@@std@@VDictConstructor@VA@@@std@@@2@$0A@@std@@@std@@QAE?AViterator@12@XZ 100ef9a0 f i Grm.obj
 0002:000409e0       ?end@?$_Tree@V?$_Tmap_traits@V?$basic_string@DU?$char_traits@D@std@@V?$allocator@D@2@@std@@VDictConstructor@VA@@U?$less@V?$basic_string@DU?$char_traits@D@std@@V?$allocator@D@2@@std@@@2@V?$allocator@U?$pair@$$CBV?$basic_string@DU?$char_traits@D@std@@V?$allocator@D@2@@std@@VDictConstructor@VA@@@std@@@2@$0A@@std@@@std@@QAE?AViterator@12@XZ 100ef9e0 f i Grm.obj
 0002:00040a20       ?insert@?$_Tree@V?$_Tmap_traits@V?$basic_string@DU?$char_traits@D@std@@V?$allocator@D@2@@std@@VDictConstructor@VA@@U?$less@V?$basic_string@DU?$char_traits@D@std@@V?$allocator@D@2@@std@@@2@V?$allocator@U?$pair@$$CBV?$basic_string@DU?$char_traits@D@std@@V?$allocator@D@2@@std@@VDictConstructor@VA@@@std@@@2@$0A@@std@@@std@@QAE?AU?$pair@Viterator@?$_Tree@V?$_Tmap_traits@V?$basic_string@DU?$char_traits@D@std@@V?$allocator@D@2@@std@@VDictConstructor@VA@@U?$less@V?$basic_string@DU?$char_traits@D@std@@V?$allocator@D@2@@std@@@2@V?$allocator@U?$pair@$$CBV?$basic_string@DU?$char_traits@D@std@@V?$allocator@D@2@@std@@VDictConstructor@VA@@@std@@@2@$0A@@std@@@std@@_N@2@ABU?$pair@$$CBV?$basic_string@DU?$char_traits@D@std@@V?$allocator@D@2@@std@@VDictConstructor@VA@@@2@@Z 100efa20 f i Grm.obj
 0002:00040c80       ?count@?$_Tree@V?$_Tmap_traits@V?$basic_string@DU?$char_traits@D@std@@V?$allocator@D@2@@std@@VDictConstructor@VA@@U?$less@V?$basic_string@DU?$char_traits@D@std@@V?$allocator@D@2@@std@@@2@V?$allocator@U?$pair@$$CBV?$basic_string@DU?$char_traits@D@std@@V?$allocator@D@2@@std@@VDictConstructor@VA@@@std@@@2@$0A@@std@@@std@@QBEIABV?$basic_string@DU?$char_traits@D@std@@V?$allocator@D@2@@2@@Z 100efc80 f i Grm.obj
 0002:00040ce0       ??0?$queue@V?$basic_string@DU?$char_traits@D@std@@V?$allocator@D@2@@std@@V?$deque@V?$basic_string@DU?$char_traits@D@std@@V?$allocator@D@2@@std@@V?$allocator@V?$basic_string@DU?$char_traits@D@std@@V?$allocator@D@2@@std@@@2@@2@@std@@QAE@XZ 100efce0 f i Grm.obj
 0002:00040d10       ?empty@?$queue@V?$basic_string@DU?$char_traits@D@std@@V?$allocator@D@2@@std@@V?$deque@V?$basic_string@DU?$char_traits@D@std@@V?$allocator@D@2@@std@@V?$allocator@V?$basic_string@DU?$char_traits@D@std@@V?$allocator@D@2@@std@@@2@@2@@std@@QBE_NXZ 100efd10 f i Grm.obj
 0002:00040d40       ?front@?$queue@V?$basic_string@DU?$char_traits@D@std@@V?$allocator@D@2@@std@@V?$deque@V?$basic_string@DU?$char_traits@D@std@@V?$allocator@D@2@@std@@V?$allocator@V?$basic_string@DU?$char_traits@D@std@@V?$allocator@D@2@@std@@@2@@2@@std@@QAEAAV?$basic_string@DU?$char_traits@D@std@@V?$allocator@D@2@@2@XZ 100efd40 f i Grm.obj
 0002:00040d70       ?push@?$queue@V?$basic_string@DU?$char_traits@D@std@@V?$allocator@D@2@@std@@V?$deque@V?$basic_string@DU?$char_traits@D@std@@V?$allocator@D@2@@std@@V?$allocator@V?$basic_string@DU?$char_traits@D@std@@V?$allocator@D@2@@std@@@2@@2@@std@@QAEXABV?$basic_string@DU?$char_traits@D@std@@V?$allocator@D@2@@2@@Z 100efd70 f i Grm.obj
 0002:00040da0       ?pop@?$queue@V?$basic_string@DU?$char_traits@D@std@@V?$allocator@D@2@@std@@V?$deque@V?$basic_string@DU?$char_traits@D@std@@V?$allocator@D@2@@std@@V?$allocator@V?$basic_string@DU?$char_traits@D@std@@V?$allocator@D@2@@std@@@2@@2@@std@@QAEXXZ 100efda0 f i Grm.obj
 0002:00040dd0       ??1?$deque@V?$basic_string@DU?$char_traits@D@std@@V?$allocator@D@2@@std@@V?$allocator@V?$basic_string@DU?$char_traits@D@std@@V?$allocator@D@2@@std@@@2@@std@@QAE@XZ 100efdd0 f i Grm.obj
 0002:00040e50       ??0?$map@V?$basic_string@DU?$char_traits@D@std@@V?$allocator@D@2@@std@@VValue@Json@VA@@U?$less@V?$basic_string@DU?$char_traits@D@std@@V?$allocator@D@2@@std@@@2@V?$allocator@U?$pair@$$CBV?$basic_string@DU?$char_traits@D@std@@V?$allocator@D@2@@std@@VValue@Json@VA@@@std@@@2@@std@@QAE@XZ 100efe50 f i Grm.obj
 0002:00040e90       ??1?$_Tree@V?$_Tmap_traits@V?$basic_string@DU?$char_traits@D@std@@V?$allocator@D@2@@std@@VValue@Json@VA@@U?$less@V?$basic_string@DU?$char_traits@D@std@@V?$allocator@D@2@@std@@@2@V?$allocator@U?$pair@$$CBV?$basic_string@DU?$char_traits@D@std@@V?$allocator@D@2@@std@@VValue@Json@VA@@@std@@@2@$0A@@std@@@std@@QAE@XZ 100efe90 f i Grm.obj
 0002:00040f10       ??0iterator@?$_Tree@V?$_Tmap_traits@V?$basic_string@DU?$char_traits@D@std@@V?$allocator@D@2@@std@@VValue@Json@VA@@U?$less@V?$basic_string@DU?$char_traits@D@std@@V?$allocator@D@2@@std@@@2@V?$allocator@U?$pair@$$CBV?$basic_string@DU?$char_traits@D@std@@V?$allocator@D@2@@std@@VValue@Json@VA@@@std@@@2@$0A@@std@@@std@@QAE@XZ 100eff10 f i Grm.obj
 0002:00040f40       ??0iterator@?$_Tree@V?$_Tmap_traits@V?$basic_string@DU?$char_traits@D@std@@V?$allocator@D@2@@std@@VDictConstructor@VA@@U?$less@V?$basic_string@DU?$char_traits@D@std@@V?$allocator@D@2@@std@@@2@V?$allocator@U?$pair@$$CBV?$basic_string@DU?$char_traits@D@std@@V?$allocator@D@2@@std@@VDictConstructor@VA@@@std@@@2@$0A@@std@@@std@@QAE@XZ 100eff40 f i Grm.obj
 0002:00040f70       ??Citerator@?$_Tree@V?$_Tmap_traits@V?$basic_string@DU?$char_traits@D@std@@V?$allocator@D@2@@std@@VDictConstructor@VA@@U?$less@V?$basic_string@DU?$char_traits@D@std@@V?$allocator@D@2@@std@@@2@V?$allocator@U?$pair@$$CBV?$basic_string@DU?$char_traits@D@std@@V?$allocator@D@2@@std@@VDictConstructor@VA@@@std@@@2@$0A@@std@@@std@@QBEPAU?$pair@$$CBV?$basic_string@DU?$char_traits@D@std@@V?$allocator@D@2@@std@@VDictConstructor@VA@@@2@XZ 100eff70 f i Grm.obj
 0002:00040fa0       ??Eiterator@?$_Tree@V?$_Tmap_traits@V?$basic_string@DU?$char_traits@D@std@@V?$allocator@D@2@@std@@VDictConstructor@VA@@U?$less@V?$basic_string@DU?$char_traits@D@std@@V?$allocator@D@2@@std@@@2@V?$allocator@U?$pair@$$CBV?$basic_string@DU?$char_traits@D@std@@V?$allocator@D@2@@std@@VDictConstructor@VA@@@std@@@2@$0A@@std@@@std@@QAEAAV012@XZ 100effa0 f i Grm.obj
 0002:00040fd0       ??9const_iterator@?$_Tree@V?$_Tmap_traits@V?$basic_string@DU?$char_traits@D@std@@V?$allocator@D@2@@std@@VDictConstructor@VA@@U?$less@V?$basic_string@DU?$char_traits@D@std@@V?$allocator@D@2@@std@@@2@V?$allocator@U?$pair@$$CBV?$basic_string@DU?$char_traits@D@std@@V?$allocator@D@2@@std@@VDictConstructor@VA@@@std@@@2@$0A@@std@@@std@@QBE_NABV012@@Z 100effd0 f i Grm.obj
 0002:00041010       ??0?$_Vector_iterator@V?$basic_string@DU?$char_traits@D@std@@V?$allocator@D@2@@std@@V?$allocator@V?$basic_string@DU?$char_traits@D@std@@V?$allocator@D@2@@std@@@2@@std@@QAE@XZ 100f0010 f i Grm.obj
 0002:00041040       ??D?$_Vector_iterator@V?$basic_string@DU?$char_traits@D@std@@V?$allocator@D@2@@std@@V?$allocator@V?$basic_string@DU?$char_traits@D@std@@V?$allocator@D@2@@std@@@2@@std@@QBEAAV?$basic_string@DU?$char_traits@D@std@@V?$allocator@D@2@@1@XZ 100f0040 f i Grm.obj
 0002:00041070       ??E?$_Vector_iterator@V?$basic_string@DU?$char_traits@D@std@@V?$allocator@D@2@@std@@V?$allocator@V?$basic_string@DU?$char_traits@D@std@@V?$allocator@D@2@@std@@@2@@std@@QAEAAV01@XZ 100f0070 f i Grm.obj
 0002:000410a0       ??1?$pair@$$CBV?$basic_string@DU?$char_traits@D@std@@V?$allocator@D@2@@std@@H@std@@QAE@XZ 100f00a0 f i Grm.obj
 0002:000410d0       ??1?$_Tree_val@V?$_Tmap_traits@V?$basic_string@DU?$char_traits@D@std@@V?$allocator@D@2@@std@@HU?$less@V?$basic_string@DU?$char_traits@D@std@@V?$allocator@D@2@@std@@@2@V?$allocator@U?$pair@$$CBV?$basic_string@DU?$char_traits@D@std@@V?$allocator@D@2@@std@@H@std@@@2@$0A@@std@@@std@@QAE@XZ 100f00d0 f i Grm.obj
 0002:00041100       ??1?$_Tree_val@V?$_Tmap_traits@V?$basic_string@DU?$char_traits@D@std@@V?$allocator@D@2@@std@@VDictConstructor@VA@@U?$less@V?$basic_string@DU?$char_traits@D@std@@V?$allocator@D@2@@std@@@2@V?$allocator@U?$pair@$$CBV?$basic_string@DU?$char_traits@D@std@@V?$allocator@D@2@@std@@VDictConstructor@VA@@@std@@@2@$0A@@std@@@std@@QAE@XZ 100f0100 f i Grm.obj
 0002:00041130       ??1?$_Deque_val@V?$basic_string@DU?$char_traits@D@std@@V?$allocator@D@2@@std@@V?$allocator@V?$basic_string@DU?$char_traits@D@std@@V?$allocator@D@2@@std@@@2@@std@@QAE@XZ 100f0130 f i Grm.obj
 0002:00041160       ??1?$_Tree_val@V?$_Tmap_traits@V?$basic_string@DU?$char_traits@D@std@@V?$allocator@D@2@@std@@VValue@Json@VA@@U?$less@V?$basic_string@DU?$char_traits@D@std@@V?$allocator@D@2@@std@@@2@V?$allocator@U?$pair@$$CBV?$basic_string@DU?$char_traits@D@std@@V?$allocator@D@2@@std@@VValue@Json@VA@@@std@@@2@$0A@@std@@@std@@QAE@XZ 100f0160 f i Grm.obj
 0002:00041190       ??1?$_Tree_ptr@V?$_Tmap_traits@V?$basic_string@DU?$char_traits@D@std@@V?$allocator@D@2@@std@@HU?$less@V?$basic_string@DU?$char_traits@D@std@@V?$allocator@D@2@@std@@@2@V?$allocator@U?$pair@$$CBV?$basic_string@DU?$char_traits@D@std@@V?$allocator@D@2@@std@@H@std@@@2@$0A@@std@@@std@@QAE@XZ 100f0190 f i Grm.obj
 0002:000411c0       ??1?$_Tree_ptr@V?$_Tmap_traits@V?$basic_string@DU?$char_traits@D@std@@V?$allocator@D@2@@std@@VDictConstructor@VA@@U?$less@V?$basic_string@DU?$char_traits@D@std@@V?$allocator@D@2@@std@@@2@V?$allocator@U?$pair@$$CBV?$basic_string@DU?$char_traits@D@std@@V?$allocator@D@2@@std@@VDictConstructor@VA@@@std@@@2@$0A@@std@@@std@@QAE@XZ 100f01c0 f i Grm.obj
 0002:000411f0       ??1?$_Deque_map@V?$basic_string@DU?$char_traits@D@std@@V?$allocator@D@2@@std@@V?$allocator@V?$basic_string@DU?$char_traits@D@std@@V?$allocator@D@2@@std@@@2@@std@@QAE@XZ 100f01f0 f i Grm.obj
 0002:00041220       ??1?$_Tree_ptr@V?$_Tmap_traits@V?$basic_string@DU?$char_traits@D@std@@V?$allocator@D@2@@std@@VValue@Json@VA@@U?$less@V?$basic_string@DU?$char_traits@D@std@@V?$allocator@D@2@@std@@@2@V?$allocator@U?$pair@$$CBV?$basic_string@DU?$char_traits@D@std@@V?$allocator@D@2@@std@@VValue@Json@VA@@@std@@@2@$0A@@std@@@std@@QAE@XZ 100f0220 f i Grm.obj
 0002:00041250       ??1?$_Tree_nod@V?$_Tmap_traits@V?$basic_string@DU?$char_traits@D@std@@V?$allocator@D@2@@std@@HU?$less@V?$basic_string@DU?$char_traits@D@std@@V?$allocator@D@2@@std@@@2@V?$allocator@U?$pair@$$CBV?$basic_string@DU?$char_traits@D@std@@V?$allocator@D@2@@std@@H@std@@@2@$0A@@std@@@std@@QAE@XZ 100f0250 f i Grm.obj
 0002:00041280       ??1?$_Tree_nod@V?$_Tmap_traits@V?$basic_string@DU?$char_traits@D@std@@V?$allocator@D@2@@std@@VDictConstructor@VA@@U?$less@V?$basic_string@DU?$char_traits@D@std@@V?$allocator@D@2@@std@@@2@V?$allocator@U?$pair@$$CBV?$basic_string@DU?$char_traits@D@std@@V?$allocator@D@2@@std@@VDictConstructor@VA@@@std@@@2@$0A@@std@@@std@@QAE@XZ 100f0280 f i Grm.obj
 0002:000412b0       ??1?$_Tree_nod@V?$_Tmap_traits@V?$basic_string@DU?$char_traits@D@std@@V?$allocator@D@2@@std@@VValue@Json@VA@@U?$less@V?$basic_string@DU?$char_traits@D@std@@V?$allocator@D@2@@std@@@2@V?$allocator@U?$pair@$$CBV?$basic_string@DU?$char_traits@D@std@@V?$allocator@D@2@@std@@VValue@Json@VA@@@std@@@2@$0A@@std@@@std@@QAE@XZ 100f02b0 f i Grm.obj
 0002:000412e0       ??1?$_Tmap_traits@V?$basic_string@DU?$char_traits@D@std@@V?$allocator@D@2@@std@@HU?$less@V?$basic_string@DU?$char_traits@D@std@@V?$allocator@D@2@@std@@@2@V?$allocator@U?$pair@$$CBV?$basic_string@DU?$char_traits@D@std@@V?$allocator@D@2@@std@@H@std@@@2@$0A@@std@@QAE@XZ 100f02e0 f i Grm.obj
 0002:00041310       ??1?$_Tmap_traits@V?$basic_string@DU?$char_traits@D@std@@V?$allocator@D@2@@std@@VDictConstructor@VA@@U?$less@V?$basic_string@DU?$char_traits@D@std@@V?$allocator@D@2@@std@@@2@V?$allocator@U?$pair@$$CBV?$basic_string@DU?$char_traits@D@std@@V?$allocator@D@2@@std@@VDictConstructor@VA@@@std@@@2@$0A@@std@@QAE@XZ 100f0310 f i Grm.obj
 0002:00041340       ??1?$_Tmap_traits@V?$basic_string@DU?$char_traits@D@std@@V?$allocator@D@2@@std@@VValue@Json@VA@@U?$less@V?$basic_string@DU?$char_traits@D@std@@V?$allocator@D@2@@std@@@2@V?$allocator@U?$pair@$$CBV?$basic_string@DU?$char_traits@D@std@@V?$allocator@D@2@@std@@VValue@Json@VA@@@std@@@2@$0A@@std@@QAE@XZ 100f0340 f i Grm.obj
 0002:00041370       ??0?$_Tree@V?$_Tmap_traits@V?$basic_string@DU?$char_traits@D@std@@V?$allocator@D@2@@std@@HU?$less@V?$basic_string@DU?$char_traits@D@std@@V?$allocator@D@2@@std@@@2@V?$allocator@U?$pair@$$CBV?$basic_string@DU?$char_traits@D@std@@V?$allocator@D@2@@std@@H@std@@@2@$0A@@std@@@std@@QAE@ABU?$less@V?$basic_string@DU?$char_traits@D@std@@V?$allocator@D@2@@std@@@1@ABV?$allocator@U?$pair@$$CBV?$basic_string@DU?$char_traits@D@std@@V?$allocator@D@2@@std@@H@std@@@1@@Z 100f0370 f i Grm.obj
 0002:00041400       ?insert@?$_Tree@V?$_Tmap_traits@V?$basic_string@DU?$char_traits@D@std@@V?$allocator@D@2@@std@@HU?$less@V?$basic_string@DU?$char_traits@D@std@@V?$allocator@D@2@@std@@@2@V?$allocator@U?$pair@$$CBV?$basic_string@DU?$char_traits@D@std@@V?$allocator@D@2@@std@@H@std@@@2@$0A@@std@@@std@@QAE?AViterator@12@Vconst_iterator@12@ABU?$pair@$$CBV?$basic_string@DU?$char_traits@D@std@@V?$allocator@D@2@@std@@H@2@@Z 100f0400 f i Grm.obj
 0002:00041bc0       ?_Tidy@?$_Tree@V?$_Tmap_traits@V?$basic_string@DU?$char_traits@D@std@@V?$allocator@D@2@@std@@HU?$less@V?$basic_string@DU?$char_traits@D@std@@V?$allocator@D@2@@std@@@2@V?$allocator@U?$pair@$$CBV?$basic_string@DU?$char_traits@D@std@@V?$allocator@D@2@@std@@H@std@@@2@$0A@@std@@@std@@IAEXXZ 100f0bc0 f i Grm.obj
 0002:00041cd0       ??1?$_Container_base_aux_alloc_real@V?$allocator@U?$pair@$$CBV?$basic_string@DU?$char_traits@D@std@@V?$allocator@D@2@@std@@H@std@@@std@@@std@@IAE@XZ 100f0cd0 f i Grm.obj
 0002:00041d50       ??0?$allocator@U?$pair@$$CBV?$basic_string@DU?$char_traits@D@std@@V?$allocator@D@2@@std@@H@std@@@std@@QAE@XZ 100f0d50 f i Grm.obj
 0002:00041d70       ?_Isnil@?$_Tree@V?$_Tmap_traits@V?$basic_string@DU?$char_traits@D@std@@V?$allocator@D@2@@std@@VDictConstructor@VA@@U?$less@V?$basic_string@DU?$char_traits@D@std@@V?$allocator@D@2@@std@@@2@V?$allocator@U?$pair@$$CBV?$basic_string@DU?$char_traits@D@std@@V?$allocator@D@2@@std@@VDictConstructor@VA@@@std@@@2@$0A@@std@@@std@@KAAADPAU_Node@?$_Tree_nod@V?$_Tmap_traits@V?$basic_string@DU?$char_traits@D@std@@V?$allocator@D@2@@std@@VDictConstructor@VA@@U?$less@V?$basic_string@DU?$char_traits@D@std@@V?$allocator@D@2@@std@@@2@V?$allocator@U?$pair@$$CBV?$basic_string@DU?$char_traits@D@std@@V?$allocator@D@2@@std@@VDictConstructor@VA@@@std@@@2@$0A@@std@@@2@@Z 100f0d70 f i Grm.obj
 0002:00041d90       ?_Key@?$_Tree@V?$_Tmap_traits@V?$basic_string@DU?$char_traits@D@std@@V?$allocator@D@2@@std@@VDictConstructor@VA@@U?$less@V?$basic_string@DU?$char_traits@D@std@@V?$allocator@D@2@@std@@@2@V?$allocator@U?$pair@$$CBV?$basic_string@DU?$char_traits@D@std@@V?$allocator@D@2@@std@@VDictConstructor@VA@@@std@@@2@$0A@@std@@@std@@KAABV?$basic_string@DU?$char_traits@D@std@@V?$allocator@D@2@@2@PAU_Node@?$_Tree_nod@V?$_Tmap_traits@V?$basic_string@DU?$char_traits@D@std@@V?$allocator@D@2@@std@@VDictConstructor@VA@@U?$less@V?$basic_string@DU?$char_traits@D@std@@V?$allocator@D@2@@std@@@2@V?$allocator@U?$pair@$$CBV?$basic_string@DU?$char_traits@D@std@@V?$allocator@D@2@@std@@VDictConstructor@VA@@@std@@@2@$0A@@std@@@2@@Z 100f0d90 f i Grm.obj
 0002:00041dc0       ?_Left@?$_Tree@V?$_Tmap_traits@V?$basic_string@DU?$char_traits@D@std@@V?$allocator@D@2@@std@@VDictConstructor@VA@@U?$less@V?$basic_string@DU?$char_traits@D@std@@V?$allocator@D@2@@std@@@2@V?$allocator@U?$pair@$$CBV?$basic_string@DU?$char_traits@D@std@@V?$allocator@D@2@@std@@VDictConstructor@VA@@@std@@@2@$0A@@std@@@std@@KAAAPAU_Node@?$_Tree_nod@V?$_Tmap_traits@V?$basic_string@DU?$char_traits@D@std@@V?$allocator@D@2@@std@@VDictConstructor@VA@@U?$less@V?$basic_string@DU?$char_traits@D@std@@V?$allocator@D@2@@std@@@2@V?$allocator@U?$pair@$$CBV?$basic_string@DU?$char_traits@D@std@@V?$allocator@D@2@@std@@VDictConstructor@VA@@@std@@@2@$0A@@std@@@2@PAU342@@Z 100f0dc0 f i Grm.obj
 0002:00041de0       ?_Right@?$_Tree@V?$_Tmap_traits@V?$basic_string@DU?$char_traits@D@std@@V?$allocator@D@2@@std@@VDictConstructor@VA@@U?$less@V?$basic_string@DU?$char_traits@D@std@@V?$allocator@D@2@@std@@@2@V?$allocator@U?$pair@$$CBV?$basic_string@DU?$char_traits@D@std@@V?$allocator@D@2@@std@@VDictConstructor@VA@@@std@@@2@$0A@@std@@@std@@KAAAPAU_Node@?$_Tree_nod@V?$_Tmap_traits@V?$basic_string@DU?$char_traits@D@std@@V?$allocator@D@2@@std@@VDictConstructor@VA@@U?$less@V?$basic_string@DU?$char_traits@D@std@@V?$allocator@D@2@@std@@@2@V?$allocator@U?$pair@$$CBV?$basic_string@DU?$char_traits@D@std@@V?$allocator@D@2@@std@@VDictConstructor@VA@@@std@@@2@$0A@@std@@@2@PAU342@@Z 100f0de0 f i Grm.obj
 0002:00041e00       ??0?$_Tree@V?$_Tmap_traits@V?$basic_string@DU?$char_traits@D@std@@V?$allocator@D@2@@std@@VDictConstructor@VA@@U?$less@V?$basic_string@DU?$char_traits@D@std@@V?$allocator@D@2@@std@@@2@V?$allocator@U?$pair@$$CBV?$basic_string@DU?$char_traits@D@std@@V?$allocator@D@2@@std@@VDictConstructor@VA@@@std@@@2@$0A@@std@@@std@@QAE@ABU?$less@V?$basic_string@DU?$char_traits@D@std@@V?$allocator@D@2@@std@@@1@ABV?$allocator@U?$pair@$$CBV?$basic_string@DU?$char_traits@D@std@@V?$allocator@D@2@@std@@VDictConstructor@VA@@@std@@@1@@Z 100f0e00 f i Grm.obj
 0002:00041e90       ?insert@?$_Tree@V?$_Tmap_traits@V?$basic_string@DU?$char_traits@D@std@@V?$allocator@D@2@@std@@VDictConstructor@VA@@U?$less@V?$basic_string@DU?$char_traits@D@std@@V?$allocator@D@2@@std@@@2@V?$allocator@U?$pair@$$CBV?$basic_string@DU?$char_traits@D@std@@V?$allocator@D@2@@std@@VDictConstructor@VA@@@std@@@2@$0A@@std@@@std@@QAE?AViterator@12@Vconst_iterator@12@ABU?$pair@$$CBV?$basic_string@DU?$char_traits@D@std@@V?$allocator@D@2@@std@@VDictConstructor@VA@@@2@@Z 100f0e90 f i Grm.obj
 0002:00042650       ?lower_bound@?$_Tree@V?$_Tmap_traits@V?$basic_string@DU?$char_traits@D@std@@V?$allocator@D@2@@std@@VDictConstructor@VA@@U?$less@V?$basic_string@DU?$char_traits@D@std@@V?$allocator@D@2@@std@@@2@V?$allocator@U?$pair@$$CBV?$basic_string@DU?$char_traits@D@std@@V?$allocator@D@2@@std@@VDictConstructor@VA@@@std@@@2@$0A@@std@@@std@@QAE?AViterator@12@ABV?$basic_string@DU?$char_traits@D@std@@V?$allocator@D@2@@2@@Z 100f1650 f i Grm.obj
 0002:00042690       ?equal_range@?$_Tree@V?$_Tmap_traits@V?$basic_string@DU?$char_traits@D@std@@V?$allocator@D@2@@std@@VDictConstructor@VA@@U?$less@V?$basic_string@DU?$char_traits@D@std@@V?$allocator@D@2@@std@@@2@V?$allocator@U?$pair@$$CBV?$basic_string@DU?$char_traits@D@std@@V?$allocator@D@2@@std@@VDictConstructor@VA@@@std@@@2@$0A@@std@@@std@@QBE?AU?$pair@Vconst_iterator@?$_Tree@V?$_Tmap_traits@V?$basic_string@DU?$char_traits@D@std@@V?$allocator@D@2@@std@@VDictConstructor@VA@@U?$less@V?$basic_string@DU?$char_traits@D@std@@V?$allocator@D@2@@std@@@2@V?$allocator@U?$pair@$$CBV?$basic_string@DU?$char_traits@D@std@@V?$allocator@D@2@@std@@VDictConstructor@VA@@@std@@@2@$0A@@std@@@std@@V123@@2@ABV?$basic_string@DU?$char_traits@D@std@@V?$allocator@D@2@@2@@Z 100f1690 f i Grm.obj
 0002:000426d0       ?_Insert@?$_Tree@V?$_Tmap_traits@V?$basic_string@DU?$char_traits@D@std@@V?$allocator@D@2@@std@@VDictConstructor@VA@@U?$less@V?$basic_string@DU?$char_traits@D@std@@V?$allocator@D@2@@std@@@2@V?$allocator@U?$pair@$$CBV?$basic_string@DU?$char_traits@D@std@@V?$allocator@D@2@@std@@VDictConstructor@VA@@@std@@@2@$0A@@std@@@std@@IAE?AViterator@12@_NPAU_Node@?$_Tree_nod@V?$_Tmap_traits@V?$basic_string@DU?$char_traits@D@std@@V?$allocator@D@2@@std@@VDictConstructor@VA@@U?$less@V?$basic_string@DU?$char_traits@D@std@@V?$allocator@D@2@@std@@@2@V?$allocator@U?$pair@$$CBV?$basic_string@DU?$char_traits@D@std@@V?$allocator@D@2@@std@@VDictConstructor@VA@@@std@@@2@$0A@@std@@@2@ABU?$pair@$$CBV?$basic_string@DU?$char_traits@D@std@@V?$allocator@D@2@@std@@VDictConstructor@VA@@@2@@Z 100f16d0 f i Grm.obj
 0002:00042c80       ?_Lmost@?$_Tree@V?$_Tmap_traits@V?$basic_string@DU?$char_traits@D@std@@V?$allocator@D@2@@std@@VDictConstructor@VA@@U?$less@V?$basic_string@DU?$char_traits@D@std@@V?$allocator@D@2@@std@@@2@V?$allocator@U?$pair@$$CBV?$basic_string@DU?$char_traits@D@std@@V?$allocator@D@2@@std@@VDictConstructor@VA@@@std@@@2@$0A@@std@@@std@@IBEAAPAU_Node@?$_Tree_nod@V?$_Tmap_traits@V?$basic_string@DU?$char_traits@D@std@@V?$allocator@D@2@@std@@VDictConstructor@VA@@U?$less@V?$basic_string@DU?$char_traits@D@std@@V?$allocator@D@2@@std@@@2@V?$allocator@U?$pair@$$CBV?$basic_string@DU?$char_traits@D@std@@V?$allocator@D@2@@std@@VDictConstructor@VA@@@std@@@2@$0A@@std@@@2@XZ 100f1c80 f i Grm.obj
 0002:00042cb0       ?_Root@?$_Tree@V?$_Tmap_traits@V?$basic_string@DU?$char_traits@D@std@@V?$allocator@D@2@@std@@VDictConstructor@VA@@U?$less@V?$basic_string@DU?$char_traits@D@std@@V?$allocator@D@2@@std@@@2@V?$allocator@U?$pair@$$CBV?$basic_string@DU?$char_traits@D@std@@V?$allocator@D@2@@std@@VDictConstructor@VA@@@std@@@2@$0A@@std@@@std@@IBEAAPAU_Node@?$_Tree_nod@V?$_Tmap_traits@V?$basic_string@DU?$char_traits@D@std@@V?$allocator@D@2@@std@@VDictConstructor@VA@@U?$less@V?$basic_string@DU?$char_traits@D@std@@V?$allocator@D@2@@std@@@2@V?$allocator@U?$pair@$$CBV?$basic_string@DU?$char_traits@D@std@@V?$allocator@D@2@@std@@VDictConstructor@VA@@@std@@@2@$0A@@std@@@2@XZ 100f1cb0 f i Grm.obj
 0002:00042ce0       ?_Tidy@?$_Tree@V?$_Tmap_traits@V?$basic_string@DU?$char_traits@D@std@@V?$allocator@D@2@@std@@VDictConstructor@VA@@U?$less@V?$basic_string@DU?$char_traits@D@std@@V?$allocator@D@2@@std@@@2@V?$allocator@U?$pair@$$CBV?$basic_string@DU?$char_traits@D@std@@V?$allocator@D@2@@std@@VDictConstructor@VA@@@std@@@2@$0A@@std@@@std@@IAEXXZ 100f1ce0 f i Grm.obj
 0002:00042df0       ?_Kfn@?$_Tmap_traits@V?$basic_string@DU?$char_traits@D@std@@V?$allocator@D@2@@std@@VDictConstructor@VA@@U?$less@V?$basic_string@DU?$char_traits@D@std@@V?$allocator@D@2@@std@@@2@V?$allocator@U?$pair@$$CBV?$basic_string@DU?$char_traits@D@std@@V?$allocator@D@2@@std@@VDictConstructor@VA@@@std@@@2@$0A@@std@@SAABV?$basic_string@DU?$char_traits@D@std@@V?$allocator@D@2@@2@ABU?$pair@$$CBV?$basic_string@DU?$char_traits@D@std@@V?$allocator@D@2@@std@@VDictConstructor@VA@@@2@@Z 100f1df0 f i Grm.obj
 0002:00042e10       ??1?$_Container_base_aux_alloc_real@V?$allocator@U?$pair@$$CBV?$basic_string@DU?$char_traits@D@std@@V?$allocator@D@2@@std@@VDictConstructor@VA@@@std@@@std@@@std@@IAE@XZ 100f1e10 f i Grm.obj
 0002:00042e90       ??0?$allocator@U?$pair@$$CBV?$basic_string@DU?$char_traits@D@std@@V?$allocator@D@2@@std@@VDictConstructor@VA@@@std@@@std@@QAE@XZ 100f1e90 f i Grm.obj
 0002:00042eb0       ??0?$deque@V?$basic_string@DU?$char_traits@D@std@@V?$allocator@D@2@@std@@V?$allocator@V?$basic_string@DU?$char_traits@D@std@@V?$allocator@D@2@@std@@@2@@std@@QAE@XZ 100f1eb0 f i Grm.obj
 0002:00042f20       ?empty@?$deque@V?$basic_string@DU?$char_traits@D@std@@V?$allocator@D@2@@std@@V?$allocator@V?$basic_string@DU?$char_traits@D@std@@V?$allocator@D@2@@std@@@2@@std@@QBE_NXZ 100f1f20 f i Grm.obj
 0002:00042f50       ?front@?$deque@V?$basic_string@DU?$char_traits@D@std@@V?$allocator@D@2@@std@@V?$allocator@V?$basic_string@DU?$char_traits@D@std@@V?$allocator@D@2@@std@@@2@@std@@QAEAAV?$basic_string@DU?$char_traits@D@std@@V?$allocator@D@2@@2@XZ 100f1f50 f i Grm.obj
 0002:00042f80       ?pop_front@?$deque@V?$basic_string@DU?$char_traits@D@std@@V?$allocator@D@2@@std@@V?$allocator@V?$basic_string@DU?$char_traits@D@std@@V?$allocator@D@2@@std@@@2@@std@@QAEXXZ 100f1f80 f i Grm.obj
 0002:00043050       ?push_back@?$deque@V?$basic_string@DU?$char_traits@D@std@@V?$allocator@D@2@@std@@V?$allocator@V?$basic_string@DU?$char_traits@D@std@@V?$allocator@D@2@@std@@@2@@std@@QAEXABV?$basic_string@DU?$char_traits@D@std@@V?$allocator@D@2@@2@@Z 100f2050 f i Grm.obj
 0002:00043160       ?_Tidy@?$deque@V?$basic_string@DU?$char_traits@D@std@@V?$allocator@D@2@@std@@V?$allocator@V?$basic_string@DU?$char_traits@D@std@@V?$allocator@D@2@@std@@@2@@std@@IAEXXZ 100f2160 f i Grm.obj
 0002:00043250       ??0?$_Tree@V?$_Tmap_traits@V?$basic_string@DU?$char_traits@D@std@@V?$allocator@D@2@@std@@VValue@Json@VA@@U?$less@V?$basic_string@DU?$char_traits@D@std@@V?$allocator@D@2@@std@@@2@V?$allocator@U?$pair@$$CBV?$basic_string@DU?$char_traits@D@std@@V?$allocator@D@2@@std@@VValue@Json@VA@@@std@@@2@$0A@@std@@@std@@QAE@ABU?$less@V?$basic_string@DU?$char_traits@D@std@@V?$allocator@D@2@@std@@@1@ABV?$allocator@U?$pair@$$CBV?$basic_string@DU?$char_traits@D@std@@V?$allocator@D@2@@std@@VValue@Json@VA@@@std@@@1@@Z 100f2250 f i Grm.obj
 0002:000432e0       ?_Tidy@?$_Tree@V?$_Tmap_traits@V?$basic_string@DU?$char_traits@D@std@@V?$allocator@D@2@@std@@VValue@Json@VA@@U?$less@V?$basic_string@DU?$char_traits@D@std@@V?$allocator@D@2@@std@@@2@V?$allocator@U?$pair@$$CBV?$basic_string@DU?$char_traits@D@std@@V?$allocator@D@2@@std@@VValue@Json@VA@@@std@@@2@$0A@@std@@@std@@IAEXXZ 100f22e0 f i Grm.obj
 0002:000433f0       ??1?$_Container_base_aux_alloc_real@V?$allocator@U?$pair@$$CBV?$basic_string@DU?$char_traits@D@std@@V?$allocator@D@2@@std@@VValue@Json@VA@@@std@@@std@@@std@@IAE@XZ 100f23f0 f i Grm.obj
 0002:00043470       ??0?$allocator@U?$pair@$$CBV?$basic_string@DU?$char_traits@D@std@@V?$allocator@D@2@@std@@VValue@Json@VA@@@std@@@std@@QAE@XZ 100f2470 f i Grm.obj
 0002:00043490       ??0const_iterator@?$_Tree@V?$_Tmap_traits@V?$basic_string@DU?$char_traits@D@std@@V?$allocator@D@2@@std@@VValue@Json@VA@@U?$less@V?$basic_string@DU?$char_traits@D@std@@V?$allocator@D@2@@std@@@2@V?$allocator@U?$pair@$$CBV?$basic_string@DU?$char_traits@D@std@@V?$allocator@D@2@@std@@VValue@Json@VA@@@std@@@2@$0A@@std@@@std@@QAE@XZ 100f2490 f i Grm.obj
 0002:000434d0       ??0iterator@?$_Tree@V?$_Tmap_traits@V?$basic_string@DU?$char_traits@D@std@@V?$allocator@D@2@@std@@VDictConstructor@VA@@U?$less@V?$basic_string@DU?$char_traits@D@std@@V?$allocator@D@2@@std@@@2@V?$allocator@U?$pair@$$CBV?$basic_string@DU?$char_traits@D@std@@V?$allocator@D@2@@std@@VDictConstructor@VA@@@std@@@2@$0A@@std@@@std@@QAE@PAU_Node@?$_Tree_nod@V?$_Tmap_traits@V?$basic_string@DU?$char_traits@D@std@@V?$allocator@D@2@@std@@VDictConstructor@VA@@U?$less@V?$basic_string@DU?$char_traits@D@std@@V?$allocator@D@2@@std@@@2@V?$allocator@U?$pair@$$CBV?$basic_string@DU?$char_traits@D@std@@V?$allocator@D@2@@std@@VDictConstructor@VA@@@std@@@2@$0A@@std@@@2@PBV12@@Z 100f24d0 f i Grm.obj
 0002:00043510       ??Diterator@?$_Tree@V?$_Tmap_traits@V?$basic_string@DU?$char_traits@D@std@@V?$allocator@D@2@@std@@VDictConstructor@VA@@U?$less@V?$basic_string@DU?$char_traits@D@std@@V?$allocator@D@2@@std@@@2@V?$allocator@U?$pair@$$CBV?$basic_string@DU?$char_traits@D@std@@V?$allocator@D@2@@std@@VDictConstructor@VA@@@std@@@2@$0A@@std@@@std@@QBEAAU?$pair@$$CBV?$basic_string@DU?$char_traits@D@std@@V?$allocator@D@2@@std@@VDictConstructor@VA@@@2@XZ 100f2510 f i Grm.obj
 0002:00043540       ??Fiterator@?$_Tree@V?$_Tmap_traits@V?$basic_string@DU?$char_traits@D@std@@V?$allocator@D@2@@std@@VDictConstructor@VA@@U?$less@V?$basic_string@DU?$char_traits@D@std@@V?$allocator@D@2@@std@@@2@V?$allocator@U?$pair@$$CBV?$basic_string@DU?$char_traits@D@std@@V?$allocator@D@2@@std@@VDictConstructor@VA@@@std@@@2@$0A@@std@@@std@@QAEAAV012@XZ 100f2540 f i Grm.obj
 0002:00043570       ??0const_iterator@?$_Tree@V?$_Tmap_traits@V?$basic_string@DU?$char_traits@D@std@@V?$allocator@D@2@@std@@VDictConstructor@VA@@U?$less@V?$basic_string@DU?$char_traits@D@std@@V?$allocator@D@2@@std@@@2@V?$allocator@U?$pair@$$CBV?$basic_string@DU?$char_traits@D@std@@V?$allocator@D@2@@std@@VDictConstructor@VA@@@std@@@2@$0A@@std@@@std@@QAE@XZ 100f2570 f i Grm.obj
 0002:000435b0       ??Econst_iterator@?$_Tree@V?$_Tmap_traits@V?$basic_string@DU?$char_traits@D@std@@V?$allocator@D@2@@std@@VDictConstructor@VA@@U?$less@V?$basic_string@DU?$char_traits@D@std@@V?$allocator@D@2@@std@@@2@V?$allocator@U?$pair@$$CBV?$basic_string@DU?$char_traits@D@std@@V?$allocator@D@2@@std@@VDictConstructor@VA@@@std@@@2@$0A@@std@@@std@@QAEAAV012@XZ 100f25b0 f i Grm.obj
 0002:000435e0       ??8const_iterator@?$_Tree@V?$_Tmap_traits@V?$basic_string@DU?$char_traits@D@std@@V?$allocator@D@2@@std@@VDictConstructor@VA@@U?$less@V?$basic_string@DU?$char_traits@D@std@@V?$allocator@D@2@@std@@@2@V?$allocator@U?$pair@$$CBV?$basic_string@DU?$char_traits@D@std@@V?$allocator@D@2@@std@@VDictConstructor@VA@@@std@@@2@$0A@@std@@@std@@QBE_NABV012@@Z 100f25e0 f i Grm.obj
 0002:00043650       ?_Mynode@const_iterator@?$_Tree@V?$_Tmap_traits@V?$basic_string@DU?$char_traits@D@std@@V?$allocator@D@2@@std@@VDictConstructor@VA@@U?$less@V?$basic_string@DU?$char_traits@D@std@@V?$allocator@D@2@@std@@@2@V?$allocator@U?$pair@$$CBV?$basic_string@DU?$char_traits@D@std@@V?$allocator@D@2@@std@@VDictConstructor@VA@@@std@@@2@$0A@@std@@@std@@QBEPAU_Node@?$_Tree_nod@V?$_Tmap_traits@V?$basic_string@DU?$char_traits@D@std@@V?$allocator@D@2@@std@@VDictConstructor@VA@@U?$less@V?$basic_string@DU?$char_traits@D@std@@V?$allocator@D@2@@std@@@2@V?$allocator@U?$pair@$$CBV?$basic_string@DU?$char_traits@D@std@@V?$allocator@D@2@@std@@VDictConstructor@VA@@@std@@@2@$0A@@std@@@3@XZ 100f2650 f i Grm.obj
 0002:00043670       ??0?$pair@$$CBV?$basic_string@DU?$char_traits@D@std@@V?$allocator@D@2@@std@@VDictConstructor@VA@@@std@@QAE@ABV?$basic_string@DU?$char_traits@D@std@@V?$allocator@D@2@@1@ABVDictConstructor@VA@@@Z 100f2670 f i Grm.obj
 0002:00043700       ??0?$pair@Viterator@?$_Tree@V?$_Tmap_traits@V?$basic_string@DU?$char_traits@D@std@@V?$allocator@D@2@@std@@VDictConstructor@VA@@U?$less@V?$basic_string@DU?$char_traits@D@std@@V?$allocator@D@2@@std@@@2@V?$allocator@U?$pair@$$CBV?$basic_string@DU?$char_traits@D@std@@V?$allocator@D@2@@std@@VDictConstructor@VA@@@std@@@2@$0A@@std@@@std@@_N@std@@QAE@ABViterator@?$_Tree@V?$_Tmap_traits@V?$basic_string@DU?$char_traits@D@std@@V?$allocator@D@2@@std@@VDictConstructor@VA@@U?$less@V?$basic_string@DU?$char_traits@D@std@@V?$allocator@D@2@@std@@@2@V?$allocator@U?$pair@$$CBV?$basic_string@DU?$char_traits@D@std@@V?$allocator@D@2@@std@@VDictConstructor@VA@@@std@@@2@$0A@@std@@@1@AB_N@Z 100f2700 f i Grm.obj
 0002:00043740       ??0?$_Vector_const_iterator@V?$basic_string@DU?$char_traits@D@std@@V?$allocator@D@2@@std@@V?$allocator@V?$basic_string@DU?$char_traits@D@std@@V?$allocator@D@2@@std@@@2@@std@@QAE@XZ 100f2740 f i Grm.obj
 0002:00043780       ??0?$pair@$$CBV?$basic_string@DU?$char_traits@D@std@@V?$allocator@D@2@@std@@H@std@@QAE@ABV?$basic_string@DU?$char_traits@D@std@@V?$allocator@D@2@@1@ABH@Z 100f2780 f i Grm.obj
 0002:000437c0       ??0?$_Bidit@U?$pair@$$CBV?$basic_string@DU?$char_traits@D@std@@V?$allocator@D@2@@std@@VValue@Json@VA@@@std@@HPBU12@ABU12@@std@@QAE@XZ 100f27c0 f i Grm.obj
 0002:000437f0       ??0?$_Bidit@U?$pair@$$CBV?$basic_string@DU?$char_traits@D@std@@V?$allocator@D@2@@std@@VDictConstructor@VA@@@std@@HPBU12@ABU12@@std@@QAE@XZ 100f27f0 f i Grm.obj
 0002:00043820       ??0DictConstructor@VA@@QAE@ABV01@@Z 100f2820 f i Grm.obj
 0002:00043850       ??0?$_Iterator_with_base@Ubidirectional_iterator_tag@std@@U?$pair@$$CBV?$basic_string@DU?$char_traits@D@std@@V?$allocator@D@2@@std@@VValue@Json@VA@@@2@HPBU32@ABU32@V_Iterator_base_aux@2@@std@@QAE@XZ 100f2850 f i Grm.obj
 0002:00043880       ??0?$_Iterator_with_base@Ubidirectional_iterator_tag@std@@U?$pair@$$CBV?$basic_string@DU?$char_traits@D@std@@V?$allocator@D@2@@std@@VDictConstructor@VA@@@2@HPBU32@ABU32@V_Iterator_base_aux@2@@std@@QAE@XZ 100f2880 f i Grm.obj
 0002:000438b0       ??0DictBuilder@VA@@QAE@ABV01@@Z 100f28b0 f i Grm.obj
 0002:000439a0       ??0BuildData@VA@@QAE@ABV01@@Z 100f29a0 f i Grm.obj
 0002:00043ae0       ?begin@?$_Tree@V?$_Tmap_traits@V?$basic_string@DU?$char_traits@D@std@@V?$allocator@D@2@@std@@HU?$less@V?$basic_string@DU?$char_traits@D@std@@V?$allocator@D@2@@std@@@2@V?$allocator@U?$pair@$$CBV?$basic_string@DU?$char_traits@D@std@@V?$allocator@D@2@@std@@H@std@@@2@$0A@@std@@@std@@QAE?AViterator@12@XZ 100f2ae0 f i Grm.obj
 0002:00043b20       ?insert@?$_Tree@V?$_Tmap_traits@V?$basic_string@DU?$char_traits@D@std@@V?$allocator@D@2@@std@@HU?$less@V?$basic_string@DU?$char_traits@D@std@@V?$allocator@D@2@@std@@@2@V?$allocator@U?$pair@$$CBV?$basic_string@DU?$char_traits@D@std@@V?$allocator@D@2@@std@@H@std@@@2@$0A@@std@@@std@@QAE?AU?$pair@Viterator@?$_Tree@V?$_Tmap_traits@V?$basic_string@DU?$char_traits@D@std@@V?$allocator@D@2@@std@@HU?$less@V?$basic_string@DU?$char_traits@D@std@@V?$allocator@D@2@@std@@@2@V?$allocator@U?$pair@$$CBV?$basic_string@DU?$char_traits@D@std@@V?$allocator@D@2@@std@@H@std@@@2@$0A@@std@@@std@@_N@2@ABU?$pair@$$CBV?$basic_string@DU?$char_traits@D@std@@V?$allocator@D@2@@std@@H@2@@Z 100f2b20 f i Grm.obj
 0002:00043d80       ?erase@?$_Tree@V?$_Tmap_traits@V?$basic_string@DU?$char_traits@D@std@@V?$allocator@D@2@@std@@HU?$less@V?$basic_string@DU?$char_traits@D@std@@V?$allocator@D@2@@std@@@2@V?$allocator@U?$pair@$$CBV?$basic_string@DU?$char_traits@D@std@@V?$allocator@D@2@@std@@H@std@@@2@$0A@@std@@@std@@QAE?AViterator@12@Vconst_iterator@12@0@Z 100f2d80 f i Grm.obj
 0002:00043e70       ?_Init@?$_Tree@V?$_Tmap_traits@V?$basic_string@DU?$char_traits@D@std@@V?$allocator@D@2@@std@@HU?$less@V?$basic_string@DU?$char_traits@D@std@@V?$allocator@D@2@@std@@@2@V?$allocator@U?$pair@$$CBV?$basic_string@DU?$char_traits@D@std@@V?$allocator@D@2@@std@@H@std@@@2@$0A@@std@@@std@@IAEXXZ 100f2e70 f i Grm.obj
 0002:00043f00       ?_Insert@?$_Tree@V?$_Tmap_traits@V?$basic_string@DU?$char_traits@D@std@@V?$allocator@D@2@@std@@HU?$less@V?$basic_string@DU?$char_traits@D@std@@V?$allocator@D@2@@std@@@2@V?$allocator@U?$pair@$$CBV?$basic_string@DU?$char_traits@D@std@@V?$allocator@D@2@@std@@H@std@@@2@$0A@@std@@@std@@IAE?AViterator@12@_NPAU_Node@?$_Tree_nod@V?$_Tmap_traits@V?$basic_string@DU?$char_traits@D@std@@V?$allocator@D@2@@std@@HU?$less@V?$basic_string@DU?$char_traits@D@std@@V?$allocator@D@2@@std@@@2@V?$allocator@U?$pair@$$CBV?$basic_string@DU?$char_traits@D@std@@V?$allocator@D@2@@std@@H@std@@@2@$0A@@std@@@2@ABU?$pair@$$CBV?$basic_string@DU?$char_traits@D@std@@V?$allocator@D@2@@std@@H@2@@Z 100f2f00 f i Grm.obj
 0002:000444b0       ?_Rmost@?$_Tree@V?$_Tmap_traits@V?$basic_string@DU?$char_traits@D@std@@V?$allocator@D@2@@std@@HU?$less@V?$basic_string@DU?$char_traits@D@std@@V?$allocator@D@2@@std@@@2@V?$allocator@U?$pair@$$CBV?$basic_string@DU?$char_traits@D@std@@V?$allocator@D@2@@std@@H@std@@@2@$0A@@std@@@std@@IBEAAPAU_Node@?$_Tree_nod@V?$_Tmap_traits@V?$basic_string@DU?$char_traits@D@std@@V?$allocator@D@2@@std@@HU?$less@V?$basic_string@DU?$char_traits@D@std@@V?$allocator@D@2@@std@@@2@V?$allocator@U?$pair@$$CBV?$basic_string@DU?$char_traits@D@std@@V?$allocator@D@2@@std@@H@std@@@2@$0A@@std@@@2@XZ 100f34b0 f i Grm.obj
 0002:000444e0       ??0?$_Tree_val@V?$_Tmap_traits@V?$basic_string@DU?$char_traits@D@std@@V?$allocator@D@2@@std@@HU?$less@V?$basic_string@DU?$char_traits@D@std@@V?$allocator@D@2@@std@@@2@V?$allocator@U?$pair@$$CBV?$basic_string@DU?$char_traits@D@std@@V?$allocator@D@2@@std@@H@std@@@2@$0A@@std@@@std@@IAE@ABU?$less@V?$basic_string@DU?$char_traits@D@std@@V?$allocator@D@2@@std@@@1@V?$allocator@U?$pair@$$CBV?$basic_string@DU?$char_traits@D@std@@V?$allocator@D@2@@std@@H@std@@@1@@Z 100f34e0 f i Grm.obj
 0002:00044540       ??0?$allocator@U?$pair@$$CBV?$basic_string@DU?$char_traits@D@std@@V?$allocator@D@2@@std@@H@std@@@std@@QAE@ABV01@@Z 100f3540 f i Grm.obj
 0002:00044560       ?deallocate@?$allocator@U_Node@?$_Tree_nod@V?$_Tmap_traits@V?$basic_string@DU?$char_traits@D@std@@V?$allocator@D@2@@std@@HU?$less@V?$basic_string@DU?$char_traits@D@std@@V?$allocator@D@2@@std@@@2@V?$allocator@U?$pair@$$CBV?$basic_string@DU?$char_traits@D@std@@V?$allocator@D@2@@std@@H@std@@@2@$0A@@std@@@std@@@std@@QAEXPAU_Node@?$_Tree_nod@V?$_Tmap_traits@V?$basic_string@DU?$char_traits@D@std@@V?$allocator@D@2@@std@@HU?$less@V?$basic_string@DU?$char_traits@D@std@@V?$allocator@D@2@@std@@@2@V?$allocator@U?$pair@$$CBV?$basic_string@DU?$char_traits@D@std@@V?$allocator@D@2@@std@@H@std@@@2@$0A@@std@@@2@I@Z 100f3560 f i Grm.obj
 0002:00044590       ?destroy@?$allocator@PAU_Node@?$_Tree_nod@V?$_Tmap_traits@V?$basic_string@DU?$char_traits@D@std@@V?$allocator@D@2@@std@@HU?$less@V?$basic_string@DU?$char_traits@D@std@@V?$allocator@D@2@@std@@@2@V?$allocator@U?$pair@$$CBV?$basic_string@DU?$char_traits@D@std@@V?$allocator@D@2@@std@@H@std@@@2@$0A@@std@@@std@@@std@@QAEXPAPAU_Node@?$_Tree_nod@V?$_Tmap_traits@V?$basic_string@DU?$char_traits@D@std@@V?$allocator@D@2@@std@@HU?$less@V?$basic_string@DU?$char_traits@D@std@@V?$allocator@D@2@@std@@@2@V?$allocator@U?$pair@$$CBV?$basic_string@DU?$char_traits@D@std@@V?$allocator@D@2@@std@@H@std@@@2@$0A@@std@@@2@@Z 100f3590 f i Grm.obj
 0002:000445c0       ?_Color@?$_Tree@V?$_Tmap_traits@V?$basic_string@DU?$char_traits@D@std@@V?$allocator@D@2@@std@@VDictConstructor@VA@@U?$less@V?$basic_string@DU?$char_traits@D@std@@V?$allocator@D@2@@std@@@2@V?$allocator@U?$pair@$$CBV?$basic_string@DU?$char_traits@D@std@@V?$allocator@D@2@@std@@VDictConstructor@VA@@@std@@@2@$0A@@std@@@std@@KAAADPAU_Node@?$_Tree_nod@V?$_Tmap_traits@V?$basic_string@DU?$char_traits@D@std@@V?$allocator@D@2@@std@@VDictConstructor@VA@@U?$less@V?$basic_string@DU?$char_traits@D@std@@V?$allocator@D@2@@std@@@2@V?$allocator@U?$pair@$$CBV?$basic_string@DU?$char_traits@D@std@@V?$allocator@D@2@@std@@VDictConstructor@VA@@@std@@@2@$0A@@std@@@2@@Z 100f35c0 f i Grm.obj
 0002:000445e0       ?_Parent@?$_Tree@V?$_Tmap_traits@V?$basic_string@DU?$char_traits@D@std@@V?$allocator@D@2@@std@@VDictConstructor@VA@@U?$less@V?$basic_string@DU?$char_traits@D@std@@V?$allocator@D@2@@std@@@2@V?$allocator@U?$pair@$$CBV?$basic_string@DU?$char_traits@D@std@@V?$allocator@D@2@@std@@VDictConstructor@VA@@@std@@@2@$0A@@std@@@std@@KAAAPAU_Node@?$_Tree_nod@V?$_Tmap_traits@V?$basic_string@DU?$char_traits@D@std@@V?$allocator@D@2@@std@@VDictConstructor@VA@@U?$less@V?$basic_string@DU?$char_traits@D@std@@V?$allocator@D@2@@std@@@2@V?$allocator@U?$pair@$$CBV?$basic_string@DU?$char_traits@D@std@@V?$allocator@D@2@@std@@VDictConstructor@VA@@@std@@@2@$0A@@std@@@2@PAU342@@Z 100f35e0 f i Grm.obj
 0002:00044600       ?_Myval@?$_Tree@V?$_Tmap_traits@V?$basic_string@DU?$char_traits@D@std@@V?$allocator@D@2@@std@@VDictConstructor@VA@@U?$less@V?$basic_string@DU?$char_traits@D@std@@V?$allocator@D@2@@std@@@2@V?$allocator@U?$pair@$$CBV?$basic_string@DU?$char_traits@D@std@@V?$allocator@D@2@@std@@VDictConstructor@VA@@@std@@@2@$0A@@std@@@std@@KAAAU?$pair@$$CBV?$basic_string@DU?$char_traits@D@std@@V?$allocator@D@2@@std@@VDictConstructor@VA@@@2@PAU_Node@?$_Tree_nod@V?$_Tmap_traits@V?$basic_string@DU?$char_traits@D@std@@V?$allocator@D@2@@std@@VDictConstructor@VA@@U?$less@V?$basic_string@DU?$char_traits@D@std@@V?$allocator@D@2@@std@@@2@V?$allocator@U?$pair@$$CBV?$basic_string@DU?$char_traits@D@std@@V?$allocator@D@2@@std@@VDictConstructor@VA@@@std@@@2@$0A@@std@@@2@@Z 100f3600 f i Grm.obj
 0002:00044620       ?size@?$_Tree@V?$_Tmap_traits@V?$basic_string@DU?$char_traits@D@std@@V?$allocator@D@2@@std@@VDictConstructor@VA@@U?$less@V?$basic_string@DU?$char_traits@D@std@@V?$allocator@D@2@@std@@@2@V?$allocator@U?$pair@$$CBV?$basic_string@DU?$char_traits@D@std@@V?$allocator@D@2@@std@@VDictConstructor@VA@@@std@@@2@$0A@@std@@@std@@QBEIXZ 100f3620 f i Grm.obj
 0002:00044640       ?max_size@?$_Tree@V?$_Tmap_traits@V?$basic_string@DU?$char_traits@D@std@@V?$allocator@D@2@@std@@VDictConstructor@VA@@U?$less@V?$basic_string@DU?$char_traits@D@std@@V?$allocator@D@2@@std@@@2@V?$allocator@U?$pair@$$CBV?$basic_string@DU?$char_traits@D@std@@V?$allocator@D@2@@std@@VDictConstructor@VA@@@std@@@2@$0A@@std@@@std@@QBEIXZ 100f3640 f i Grm.obj
 0002:00044670       ?erase@?$_Tree@V?$_Tmap_traits@V?$basic_string@DU?$char_traits@D@std@@V?$allocator@D@2@@std@@VDictConstructor@VA@@U?$less@V?$basic_string@DU?$char_traits@D@std@@V?$allocator@D@2@@std@@@2@V?$allocator@U?$pair@$$CBV?$basic_string@DU?$char_traits@D@std@@V?$allocator@D@2@@std@@VDictConstructor@VA@@@std@@@2@$0A@@std@@@std@@QAE?AViterator@12@Vconst_iterator@12@0@Z 100f3670 f i Grm.obj
 0002:00044760       ?_Eqrange@?$_Tree@V?$_Tmap_traits@V?$basic_string@DU?$char_traits@D@std@@V?$allocator@D@2@@std@@VDictConstructor@VA@@U?$less@V?$basic_string@DU?$char_traits@D@std@@V?$allocator@D@2@@std@@@2@V?$allocator@U?$pair@$$CBV?$basic_string@DU?$char_traits@D@std@@V?$allocator@D@2@@std@@VDictConstructor@VA@@@std@@@2@$0A@@std@@@std@@IBE?AU?$pair@Vconst_iterator@?$_Tree@V?$_Tmap_traits@V?$basic_string@DU?$char_traits@D@std@@V?$allocator@D@2@@std@@VDictConstructor@VA@@U?$less@V?$basic_string@DU?$char_traits@D@std@@V?$allocator@D@2@@std@@@2@V?$allocator@U?$pair@$$CBV?$basic_string@DU?$char_traits@D@std@@V?$allocator@D@2@@std@@VDictConstructor@VA@@@std@@@2@$0A@@std@@@std@@V123@@2@ABV?$basic_string@DU?$char_traits@D@std@@V?$allocator@D@2@@2@@Z 100f3760 f i Grm.obj
 0002:00044970       ?_Init@?$_Tree@V?$_Tmap_traits@V?$basic_string@DU?$char_traits@D@std@@V?$allocator@D@2@@std@@VDictConstructor@VA@@U?$less@V?$basic_string@DU?$char_traits@D@std@@V?$allocator@D@2@@std@@@2@V?$allocator@U?$pair@$$CBV?$basic_string@DU?$char_traits@D@std@@V?$allocator@D@2@@std@@VDictConstructor@VA@@@std@@@2@$0A@@std@@@std@@IAEXXZ 100f3970 f i Grm.obj
 0002:00044a00       ?_Lbound@?$_Tree@V?$_Tmap_traits@V?$basic_string@DU?$char_traits@D@std@@V?$allocator@D@2@@std@@VDictConstructor@VA@@U?$less@V?$basic_string@DU?$char_traits@D@std@@V?$allocator@D@2@@std@@@2@V?$allocator@U?$pair@$$CBV?$basic_string@DU?$char_traits@D@std@@V?$allocator@D@2@@std@@VDictConstructor@VA@@@std@@@2@$0A@@std@@@std@@IBEPAU_Node@?$_Tree_nod@V?$_Tmap_traits@V?$basic_string@DU?$char_traits@D@std@@V?$allocator@D@2@@std@@VDictConstructor@VA@@U?$less@V?$basic_string@DU?$char_traits@D@std@@V?$allocator@D@2@@std@@@2@V?$allocator@U?$pair@$$CBV?$basic_string@DU?$char_traits@D@std@@V?$allocator@D@2@@std@@VDictConstructor@VA@@@std@@@2@$0A@@std@@@2@ABV?$basic_string@DU?$char_traits@D@std@@V?$allocator@D@2@@2@@Z 100f3a00 f i Grm.obj
 0002:00044ac0       ?_Lrotate@?$_Tree@V?$_Tmap_traits@V?$basic_string@DU?$char_traits@D@std@@V?$allocator@D@2@@std@@VDictConstructor@VA@@U?$less@V?$basic_string@DU?$char_traits@D@std@@V?$allocator@D@2@@std@@@2@V?$allocator@U?$pair@$$CBV?$basic_string@DU?$char_traits@D@std@@V?$allocator@D@2@@std@@VDictConstructor@VA@@@std@@@2@$0A@@std@@@std@@IAEXPAU_Node@?$_Tree_nod@V?$_Tmap_traits@V?$basic_string@DU?$char_traits@D@std@@V?$allocator@D@2@@std@@VDictConstructor@VA@@U?$less@V?$basic_string@DU?$char_traits@D@std@@V?$allocator@D@2@@std@@@2@V?$allocator@U?$pair@$$CBV?$basic_string@DU?$char_traits@D@std@@V?$allocator@D@2@@std@@VDictConstructor@VA@@@std@@@2@$0A@@std@@@2@@Z 100f3ac0 f i Grm.obj
 0002:00044c50       ?_Rmost@?$_Tree@V?$_Tmap_traits@V?$basic_string@DU?$char_traits@D@std@@V?$allocator@D@2@@std@@VDictConstructor@VA@@U?$less@V?$basic_string@DU?$char_traits@D@std@@V?$allocator@D@2@@std@@@2@V?$allocator@U?$pair@$$CBV?$basic_string@DU?$char_traits@D@std@@V?$allocator@D@2@@std@@VDictConstructor@VA@@@std@@@2@$0A@@std@@@std@@IBEAAPAU_Node@?$_Tree_nod@V?$_Tmap_traits@V?$basic_string@DU?$char_traits@D@std@@V?$allocator@D@2@@std@@VDictConstructor@VA@@U?$less@V?$basic_string@DU?$char_traits@D@std@@V?$allocator@D@2@@std@@@2@V?$allocator@U?$pair@$$CBV?$basic_string@DU?$char_traits@D@std@@V?$allocator@D@2@@std@@VDictConstructor@VA@@@std@@@2@$0A@@std@@@2@XZ 100f3c50 f i Grm.obj
 0002:00044c80       ?_Rrotate@?$_Tree@V?$_Tmap_traits@V?$basic_string@DU?$char_traits@D@std@@V?$allocator@D@2@@std@@VDictConstructor@VA@@U?$less@V?$basic_string@DU?$char_traits@D@std@@V?$allocator@D@2@@std@@@2@V?$allocator@U?$pair@$$CBV?$basic_string@DU?$char_traits@D@std@@V?$allocator@D@2@@std@@VDictConstructor@VA@@@std@@@2@$0A@@std@@@std@@IAEXPAU_Node@?$_Tree_nod@V?$_Tmap_traits@V?$basic_string@DU?$char_traits@D@std@@V?$allocator@D@2@@std@@VDictConstructor@VA@@U?$less@V?$basic_string@DU?$char_traits@D@std@@V?$allocator@D@2@@std@@@2@V?$allocator@U?$pair@$$CBV?$basic_string@DU?$char_traits@D@std@@V?$allocator@D@2@@std@@VDictConstructor@VA@@@std@@@2@$0A@@std@@@2@@Z 100f3c80 f i Grm.obj
 0002:00044e10       ?_Buynode@?$_Tree@V?$_Tmap_traits@V?$basic_string@DU?$char_traits@D@std@@V?$allocator@D@2@@std@@VDictConstructor@VA@@U?$less@V?$basic_string@DU?$char_traits@D@std@@V?$allocator@D@2@@std@@@2@V?$allocator@U?$pair@$$CBV?$basic_string@DU?$char_traits@D@std@@V?$allocator@D@2@@std@@VDictConstructor@VA@@@std@@@2@$0A@@std@@@std@@IAEPAU_Node@?$_Tree_nod@V?$_Tmap_traits@V?$basic_string@DU?$char_traits@D@std@@V?$allocator@D@2@@std@@VDictConstructor@VA@@U?$less@V?$basic_string@DU?$char_traits@D@std@@V?$allocator@D@2@@std@@@2@V?$allocator@U?$pair@$$CBV?$basic_string@DU?$char_traits@D@std@@V?$allocator@D@2@@std@@VDictConstructor@VA@@@std@@@2@$0A@@std@@@2@PAU342@00ABU?$pair@$$CBV?$basic_string@DU?$char_traits@D@std@@V?$allocator@D@2@@std@@VDictConstructor@VA@@@2@D@Z 100f3e10 f i Grm.obj
 0002:00044f30       ??0?$_Tree_val@V?$_Tmap_traits@V?$basic_string@DU?$char_traits@D@std@@V?$allocator@D@2@@std@@VDictConstructor@VA@@U?$less@V?$basic_string@DU?$char_traits@D@std@@V?$allocator@D@2@@std@@@2@V?$allocator@U?$pair@$$CBV?$basic_string@DU?$char_traits@D@std@@V?$allocator@D@2@@std@@VDictConstructor@VA@@@std@@@2@$0A@@std@@@std@@IAE@ABU?$less@V?$basic_string@DU?$char_traits@D@std@@V?$allocator@D@2@@std@@@1@V?$allocator@U?$pair@$$CBV?$basic_string@DU?$char_traits@D@std@@V?$allocator@D@2@@std@@VDictConstructor@VA@@@std@@@1@@Z 100f3f30 f i Grm.obj
 0002:00044f90       ??0?$allocator@U?$pair@$$CBV?$basic_string@DU?$char_traits@D@std@@V?$allocator@D@2@@std@@VDictConstructor@VA@@@std@@@std@@QAE@ABV01@@Z 100f3f90 f i Grm.obj
 0002:00044fb0       ?deallocate@?$allocator@U_Node@?$_Tree_nod@V?$_Tmap_traits@V?$basic_string@DU?$char_traits@D@std@@V?$allocator@D@2@@std@@VDictConstructor@VA@@U?$less@V?$basic_string@DU?$char_traits@D@std@@V?$allocator@D@2@@std@@@2@V?$allocator@U?$pair@$$CBV?$basic_string@DU?$char_traits@D@std@@V?$allocator@D@2@@std@@VDictConstructor@VA@@@std@@@2@$0A@@std@@@std@@@std@@QAEXPAU_Node@?$_Tree_nod@V?$_Tmap_traits@V?$basic_string@DU?$char_traits@D@std@@V?$allocator@D@2@@std@@VDictConstructor@VA@@U?$less@V?$basic_string@DU?$char_traits@D@std@@V?$allocator@D@2@@std@@@2@V?$allocator@U?$pair@$$CBV?$basic_string@DU?$char_traits@D@std@@V?$allocator@D@2@@std@@VDictConstructor@VA@@@std@@@2@$0A@@std@@@2@I@Z 100f3fb0 f i Grm.obj
 0002:00044fe0       ?destroy@?$allocator@PAU_Node@?$_Tree_nod@V?$_Tmap_traits@V?$basic_string@DU?$char_traits@D@std@@V?$allocator@D@2@@std@@VDictConstructor@VA@@U?$less@V?$basic_string@DU?$char_traits@D@std@@V?$allocator@D@2@@std@@@2@V?$allocator@U?$pair@$$CBV?$basic_string@DU?$char_traits@D@std@@V?$allocator@D@2@@std@@VDictConstructor@VA@@@std@@@2@$0A@@std@@@std@@@std@@QAEXPAPAU_Node@?$_Tree_nod@V?$_Tmap_traits@V?$basic_string@DU?$char_traits@D@std@@V?$allocator@D@2@@std@@VDictConstructor@VA@@U?$less@V?$basic_string@DU?$char_traits@D@std@@V?$allocator@D@2@@std@@@2@V?$allocator@U?$pair@$$CBV?$basic_string@DU?$char_traits@D@std@@V?$allocator@D@2@@std@@VDictConstructor@VA@@@std@@@2@$0A@@std@@@2@@Z 100f3fe0 f i Grm.obj
 0002:00045010       ?begin@?$deque@V?$basic_string@DU?$char_traits@D@std@@V?$allocator@D@2@@std@@V?$allocator@V?$basic_string@DU?$char_traits@D@std@@V?$allocator@D@2@@std@@@2@@std@@QAE?AV?$_Deque_iterator@V?$basic_string@DU?$char_traits@D@std@@V?$allocator@D@2@@std@@V?$allocator@V?$basic_string@DU?$char_traits@D@std@@V?$allocator@D@2@@std@@@2@$00@2@XZ 100f4010 f i Grm.obj
 0002:00045050       ?pop_back@?$deque@V?$basic_string@DU?$char_traits@D@std@@V?$allocator@D@2@@std@@V?$allocator@V?$basic_string@DU?$char_traits@D@std@@V?$allocator@D@2@@std@@@2@@std@@QAEXXZ 100f4050 f i Grm.obj
 0002:00045120       ?_Growmap@?$deque@V?$basic_string@DU?$char_traits@D@std@@V?$allocator@D@2@@std@@V?$allocator@V?$basic_string@DU?$char_traits@D@std@@V?$allocator@D@2@@std@@@2@@std@@IAEXI@Z 100f4120 f i Grm.obj
 0002:000453d0       ??0?$_Deque_val@V?$basic_string@DU?$char_traits@D@std@@V?$allocator@D@2@@std@@V?$allocator@V?$basic_string@DU?$char_traits@D@std@@V?$allocator@D@2@@std@@@2@@std@@IAE@V?$allocator@V?$basic_string@DU?$char_traits@D@std@@V?$allocator@D@2@@std@@@1@@Z 100f43d0 f i Grm.obj
 0002:00045420       ?deallocate@?$allocator@PAV?$basic_string@DU?$char_traits@D@std@@V?$allocator@D@2@@std@@@std@@QAEXPAPAV?$basic_string@DU?$char_traits@D@std@@V?$allocator@D@2@@2@I@Z 100f4420 f i Grm.obj
 0002:00045450       ?destroy@?$allocator@PAV?$basic_string@DU?$char_traits@D@std@@V?$allocator@D@2@@std@@@std@@QAEXPAPAV?$basic_string@DU?$char_traits@D@std@@V?$allocator@D@2@@2@@Z 100f4450 f i Grm.obj
 0002:00045480       ?_Left@?$_Tree@V?$_Tmap_traits@V?$basic_string@DU?$char_traits@D@std@@V?$allocator@D@2@@std@@VValue@Json@VA@@U?$less@V?$basic_string@DU?$char_traits@D@std@@V?$allocator@D@2@@std@@@2@V?$allocator@U?$pair@$$CBV?$basic_string@DU?$char_traits@D@std@@V?$allocator@D@2@@std@@VValue@Json@VA@@@std@@@2@$0A@@std@@@std@@KAAAPAU_Node@?$_Tree_nod@V?$_Tmap_traits@V?$basic_string@DU?$char_traits@D@std@@V?$allocator@D@2@@std@@VValue@Json@VA@@U?$less@V?$basic_string@DU?$char_traits@D@std@@V?$allocator@D@2@@std@@@2@V?$allocator@U?$pair@$$CBV?$basic_string@DU?$char_traits@D@std@@V?$allocator@D@2@@std@@VValue@Json@VA@@@std@@@2@$0A@@std@@@2@PAU342@@Z 100f4480 f i Grm.obj
 0002:000454a0       ?_Parent@?$_Tree@V?$_Tmap_traits@V?$basic_string@DU?$char_traits@D@std@@V?$allocator@D@2@@std@@VValue@Json@VA@@U?$less@V?$basic_string@DU?$char_traits@D@std@@V?$allocator@D@2@@std@@@2@V?$allocator@U?$pair@$$CBV?$basic_string@DU?$char_traits@D@std@@V?$allocator@D@2@@std@@VValue@Json@VA@@@std@@@2@$0A@@std@@@std@@KAAAPAU_Node@?$_Tree_nod@V?$_Tmap_traits@V?$basic_string@DU?$char_traits@D@std@@V?$allocator@D@2@@std@@VValue@Json@VA@@U?$less@V?$basic_string@DU?$char_traits@D@std@@V?$allocator@D@2@@std@@@2@V?$allocator@U?$pair@$$CBV?$basic_string@DU?$char_traits@D@std@@V?$allocator@D@2@@std@@VValue@Json@VA@@@std@@@2@$0A@@std@@@2@PAU342@@Z 100f44a0 f i Grm.obj
 0002:000454c0       ?_Right@?$_Tree@V?$_Tmap_traits@V?$basic_string@DU?$char_traits@D@std@@V?$allocator@D@2@@std@@VValue@Json@VA@@U?$less@V?$basic_string@DU?$char_traits@D@std@@V?$allocator@D@2@@std@@@2@V?$allocator@U?$pair@$$CBV?$basic_string@DU?$char_traits@D@std@@V?$allocator@D@2@@std@@VValue@Json@VA@@@std@@@2@$0A@@std@@@std@@KAAAPAU_Node@?$_Tree_nod@V?$_Tmap_traits@V?$basic_string@DU?$char_traits@D@std@@V?$allocator@D@2@@std@@VValue@Json@VA@@U?$less@V?$basic_string@DU?$char_traits@D@std@@V?$allocator@D@2@@std@@@2@V?$allocator@U?$pair@$$CBV?$basic_string@DU?$char_traits@D@std@@V?$allocator@D@2@@std@@VValue@Json@VA@@@std@@@2@$0A@@std@@@2@PAU342@@Z 100f44c0 f i Grm.obj
 0002:000454e0       ?begin@?$_Tree@V?$_Tmap_traits@V?$basic_string@DU?$char_traits@D@std@@V?$allocator@D@2@@std@@VValue@Json@VA@@U?$less@V?$basic_string@DU?$char_traits@D@std@@V?$allocator@D@2@@std@@@2@V?$allocator@U?$pair@$$CBV?$basic_string@DU?$char_traits@D@std@@V?$allocator@D@2@@std@@VValue@Json@VA@@@std@@@2@$0A@@std@@@std@@QAE?AViterator@12@XZ 100f44e0 f i Grm.obj
 0002:00045520       ?end@?$_Tree@V?$_Tmap_traits@V?$basic_string@DU?$char_traits@D@std@@V?$allocator@D@2@@std@@VValue@Json@VA@@U?$less@V?$basic_string@DU?$char_traits@D@std@@V?$allocator@D@2@@std@@@2@V?$allocator@U?$pair@$$CBV?$basic_string@DU?$char_traits@D@std@@V?$allocator@D@2@@std@@VValue@Json@VA@@@std@@@2@$0A@@std@@@std@@QAE?AViterator@12@XZ 100f4520 f i Grm.obj
 0002:00045560       ?erase@?$_Tree@V?$_Tmap_traits@V?$basic_string@DU?$char_traits@D@std@@V?$allocator@D@2@@std@@VValue@Json@VA@@U?$less@V?$basic_string@DU?$char_traits@D@std@@V?$allocator@D@2@@std@@@2@V?$allocator@U?$pair@$$CBV?$basic_string@DU?$char_traits@D@std@@V?$allocator@D@2@@std@@VValue@Json@VA@@@std@@@2@$0A@@std@@@std@@QAE?AViterator@12@Vconst_iterator@12@0@Z 100f4560 f i Grm.obj
 0002:00045650       ?_Init@?$_Tree@V?$_Tmap_traits@V?$basic_string@DU?$char_traits@D@std@@V?$allocator@D@2@@std@@VValue@Json@VA@@U?$less@V?$basic_string@DU?$char_traits@D@std@@V?$allocator@D@2@@std@@@2@V?$allocator@U?$pair@$$CBV?$basic_string@DU?$char_traits@D@std@@V?$allocator@D@2@@std@@VValue@Json@VA@@@std@@@2@$0A@@std@@@std@@IAEXXZ 100f4650 f i Grm.obj
 0002:000456e0       ??0?$_Tree_val@V?$_Tmap_traits@V?$basic_string@DU?$char_traits@D@std@@V?$allocator@D@2@@std@@VValue@Json@VA@@U?$less@V?$basic_string@DU?$char_traits@D@std@@V?$allocator@D@2@@std@@@2@V?$allocator@U?$pair@$$CBV?$basic_string@DU?$char_traits@D@std@@V?$allocator@D@2@@std@@VValue@Json@VA@@@std@@@2@$0A@@std@@@std@@IAE@ABU?$less@V?$basic_string@DU?$char_traits@D@std@@V?$allocator@D@2@@std@@@1@V?$allocator@U?$pair@$$CBV?$basic_string@DU?$char_traits@D@std@@V?$allocator@D@2@@std@@VValue@Json@VA@@@std@@@1@@Z 100f46e0 f i Grm.obj
 0002:00045740       ??0?$allocator@U?$pair@$$CBV?$basic_string@DU?$char_traits@D@std@@V?$allocator@D@2@@std@@VValue@Json@VA@@@std@@@std@@QAE@ABV01@@Z 100f4740 f i Grm.obj
 0002:00045760       ?deallocate@?$allocator@U_Node@?$_Tree_nod@V?$_Tmap_traits@V?$basic_string@DU?$char_traits@D@std@@V?$allocator@D@2@@std@@VValue@Json@VA@@U?$less@V?$basic_string@DU?$char_traits@D@std@@V?$allocator@D@2@@std@@@2@V?$allocator@U?$pair@$$CBV?$basic_string@DU?$char_traits@D@std@@V?$allocator@D@2@@std@@VValue@Json@VA@@@std@@@2@$0A@@std@@@std@@@std@@QAEXPAU_Node@?$_Tree_nod@V?$_Tmap_traits@V?$basic_string@DU?$char_traits@D@std@@V?$allocator@D@2@@std@@VValue@Json@VA@@U?$less@V?$basic_string@DU?$char_traits@D@std@@V?$allocator@D@2@@std@@@2@V?$allocator@U?$pair@$$CBV?$basic_string@DU?$char_traits@D@std@@V?$allocator@D@2@@std@@VValue@Json@VA@@@std@@@2@$0A@@std@@@2@I@Z 100f4760 f i Grm.obj
 0002:00045790       ?destroy@?$allocator@PAU_Node@?$_Tree_nod@V?$_Tmap_traits@V?$basic_string@DU?$char_traits@D@std@@V?$allocator@D@2@@std@@VValue@Json@VA@@U?$less@V?$basic_string@DU?$char_traits@D@std@@V?$allocator@D@2@@std@@@2@V?$allocator@U?$pair@$$CBV?$basic_string@DU?$char_traits@D@std@@V?$allocator@D@2@@std@@VValue@Json@VA@@@std@@@2@$0A@@std@@@std@@@std@@QAEXPAPAU_Node@?$_Tree_nod@V?$_Tmap_traits@V?$basic_string@DU?$char_traits@D@std@@V?$allocator@D@2@@std@@VValue@Json@VA@@U?$less@V?$basic_string@DU?$char_traits@D@std@@V?$allocator@D@2@@std@@@2@V?$allocator@U?$pair@$$CBV?$basic_string@DU?$char_traits@D@std@@V?$allocator@D@2@@std@@VValue@Json@VA@@@std@@@2@$0A@@std@@@2@@Z 100f4790 f i Grm.obj
 0002:000457c0       ??0const_iterator@?$_Tree@V?$_Tmap_traits@V?$basic_string@DU?$char_traits@D@std@@V?$allocator@D@2@@std@@VDictConstructor@VA@@U?$less@V?$basic_string@DU?$char_traits@D@std@@V?$allocator@D@2@@std@@@2@V?$allocator@U?$pair@$$CBV?$basic_string@DU?$char_traits@D@std@@V?$allocator@D@2@@std@@VDictConstructor@VA@@@std@@@2@$0A@@std@@@std@@QAE@PAU_Node@?$_Tree_nod@V?$_Tmap_traits@V?$basic_string@DU?$char_traits@D@std@@V?$allocator@D@2@@std@@VDictConstructor@VA@@U?$less@V?$basic_string@DU?$char_traits@D@std@@V?$allocator@D@2@@std@@@2@V?$allocator@U?$pair@$$CBV?$basic_string@DU?$char_traits@D@std@@V?$allocator@D@2@@std@@VDictConstructor@VA@@@std@@@2@$0A@@std@@@2@PBV12@@Z 100f47c0 f i Grm.obj
 0002:00045820       ??Dconst_iterator@?$_Tree@V?$_Tmap_traits@V?$basic_string@DU?$char_traits@D@std@@V?$allocator@D@2@@std@@VDictConstructor@VA@@U?$less@V?$basic_string@DU?$char_traits@D@std@@V?$allocator@D@2@@std@@@2@V?$allocator@U?$pair@$$CBV?$basic_string@DU?$char_traits@D@std@@V?$allocator@D@2@@std@@VDictConstructor@VA@@@std@@@2@$0A@@std@@@std@@QBEABU?$pair@$$CBV?$basic_string@DU?$char_traits@D@std@@V?$allocator@D@2@@std@@VDictConstructor@VA@@@2@XZ 100f4820 f i Grm.obj
 0002:00045890       ??Fconst_iterator@?$_Tree@V?$_Tmap_traits@V?$basic_string@DU?$char_traits@D@std@@V?$allocator@D@2@@std@@VDictConstructor@VA@@U?$less@V?$basic_string@DU?$char_traits@D@std@@V?$allocator@D@2@@std@@@2@V?$allocator@U?$pair@$$CBV?$basic_string@DU?$char_traits@D@std@@V?$allocator@D@2@@std@@VDictConstructor@VA@@@std@@@2@$0A@@std@@@std@@QAEAAV012@XZ 100f4890 f i Grm.obj
 0002:000458c0       ?_Inc@const_iterator@?$_Tree@V?$_Tmap_traits@V?$basic_string@DU?$char_traits@D@std@@V?$allocator@D@2@@std@@VDictConstructor@VA@@U?$less@V?$basic_string@DU?$char_traits@D@std@@V?$allocator@D@2@@std@@@2@V?$allocator@U?$pair@$$CBV?$basic_string@DU?$char_traits@D@std@@V?$allocator@D@2@@std@@VDictConstructor@VA@@@std@@@2@$0A@@std@@@std@@QAEXXZ 100f48c0 f i Grm.obj
 0002:000459e0       ??0const_iterator@?$_Tree@V?$_Tmap_traits@V?$basic_string@DU?$char_traits@D@std@@V?$allocator@D@2@@std@@HU?$less@V?$basic_string@DU?$char_traits@D@std@@V?$allocator@D@2@@std@@@2@V?$allocator@U?$pair@$$CBV?$basic_string@DU?$char_traits@D@std@@V?$allocator@D@2@@std@@H@std@@@2@$0A@@std@@@std@@QAE@XZ 100f49e0 f i Grm.obj
 0002:00045a20       ??Econst_iterator@?$_Tree@V?$_Tmap_traits@V?$basic_string@DU?$char_traits@D@std@@V?$allocator@D@2@@std@@HU?$less@V?$basic_string@DU?$char_traits@D@std@@V?$allocator@D@2@@std@@@2@V?$allocator@U?$pair@$$CBV?$basic_string@DU?$char_traits@D@std@@V?$allocator@D@2@@std@@H@std@@@2@$0A@@std@@@std@@QAEAAV012@XZ 100f4a20 f i Grm.obj
 0002:00045a50       ??Fconst_iterator@?$_Tree@V?$_Tmap_traits@V?$basic_string@DU?$char_traits@D@std@@V?$allocator@D@2@@std@@HU?$less@V?$basic_string@DU?$char_traits@D@std@@V?$allocator@D@2@@std@@@2@V?$allocator@U?$pair@$$CBV?$basic_string@DU?$char_traits@D@std@@V?$allocator@D@2@@std@@H@std@@@2@$0A@@std@@@std@@QAEAAV012@XZ 100f4a50 f i Grm.obj
 0002:00045a80       ??D?$_Deque_iterator@V?$basic_string@DU?$char_traits@D@std@@V?$allocator@D@2@@std@@V?$allocator@V?$basic_string@DU?$char_traits@D@std@@V?$allocator@D@2@@std@@@2@$00@std@@QBEAAV?$basic_string@DU?$char_traits@D@std@@V?$allocator@D@2@@1@XZ 100f4a80 f i Grm.obj
 0002:00045ab0       ?_Color@?$_Tree@V?$_Tmap_traits@V?$basic_string@DU?$char_traits@D@std@@V?$allocator@D@2@@std@@HU?$less@V?$basic_string@DU?$char_traits@D@std@@V?$allocator@D@2@@std@@@2@V?$allocator@U?$pair@$$CBV?$basic_string@DU?$char_traits@D@std@@V?$allocator@D@2@@std@@H@std@@@2@$0A@@std@@@std@@KAAADPAU_Node@?$_Tree_nod@V?$_Tmap_traits@V?$basic_string@DU?$char_traits@D@std@@V?$allocator@D@2@@std@@HU?$less@V?$basic_string@DU?$char_traits@D@std@@V?$allocator@D@2@@std@@@2@V?$allocator@U?$pair@$$CBV?$basic_string@DU?$char_traits@D@std@@V?$allocator@D@2@@std@@H@std@@@2@$0A@@std@@@2@@Z 100f4ab0 f i Grm.obj
 0002:00045ad0       ?_Make_iter@?$_Tree@V?$_Tmap_traits@V?$basic_string@DU?$char_traits@D@std@@V?$allocator@D@2@@std@@HU?$less@V?$basic_string@DU?$char_traits@D@std@@V?$allocator@D@2@@std@@@2@V?$allocator@U?$pair@$$CBV?$basic_string@DU?$char_traits@D@std@@V?$allocator@D@2@@std@@H@std@@@2@$0A@@std@@@std@@QBE?AViterator@12@Vconst_iterator@12@@Z 100f4ad0 f i Grm.obj
 0002:00045b20       ?max_size@?$_Tree@V?$_Tmap_traits@V?$basic_string@DU?$char_traits@D@std@@V?$allocator@D@2@@std@@HU?$less@V?$basic_string@DU?$char_traits@D@std@@V?$allocator@D@2@@std@@@2@V?$allocator@U?$pair@$$CBV?$basic_string@DU?$char_traits@D@std@@V?$allocator@D@2@@std@@H@std@@@2@$0A@@std@@@std@@QBEIXZ 100f4b20 f i Grm.obj
 0002:00045b50       ?erase@?$_Tree@V?$_Tmap_traits@V?$basic_string@DU?$char_traits@D@std@@V?$allocator@D@2@@std@@HU?$less@V?$basic_string@DU?$char_traits@D@std@@V?$allocator@D@2@@std@@@2@V?$allocator@U?$pair@$$CBV?$basic_string@DU?$char_traits@D@std@@V?$allocator@D@2@@std@@H@std@@@2@$0A@@std@@@std@@QAE?AViterator@12@Vconst_iterator@12@@Z 100f4b50 f i Grm.obj
 0002:00046540       ?clear@?$_Tree@V?$_Tmap_traits@V?$basic_string@DU?$char_traits@D@std@@V?$allocator@D@2@@std@@HU?$less@V?$basic_string@DU?$char_traits@D@std@@V?$allocator@D@2@@std@@@2@V?$allocator@U?$pair@$$CBV?$basic_string@DU?$char_traits@D@std@@V?$allocator@D@2@@std@@H@std@@@2@$0A@@std@@@std@@QAEXXZ 100f5540 f i Grm.obj
 0002:000465c0       ?_Lmost@?$_Tree@V?$_Tmap_traits@V?$basic_string@DU?$char_traits@D@std@@V?$allocator@D@2@@std@@HU?$less@V?$basic_string@DU?$char_traits@D@std@@V?$allocator@D@2@@std@@@2@V?$allocator@U?$pair@$$CBV?$basic_string@DU?$char_traits@D@std@@V?$allocator@D@2@@std@@H@std@@@2@$0A@@std@@@std@@IBEAAPAU_Node@?$_Tree_nod@V?$_Tmap_traits@V?$basic_string@DU?$char_traits@D@std@@V?$allocator@D@2@@std@@HU?$less@V?$basic_string@DU?$char_traits@D@std@@V?$allocator@D@2@@std@@@2@V?$allocator@U?$pair@$$CBV?$basic_string@DU?$char_traits@D@std@@V?$allocator@D@2@@std@@H@std@@@2@$0A@@std@@@2@XZ 100f55c0 f i Grm.obj
 0002:000465f0       ?_Lrotate@?$_Tree@V?$_Tmap_traits@V?$basic_string@DU?$char_traits@D@std@@V?$allocator@D@2@@std@@HU?$less@V?$basic_string@DU?$char_traits@D@std@@V?$allocator@D@2@@std@@@2@V?$allocator@U?$pair@$$CBV?$basic_string@DU?$char_traits@D@std@@V?$allocator@D@2@@std@@H@std@@@2@$0A@@std@@@std@@IAEXPAU_Node@?$_Tree_nod@V?$_Tmap_traits@V?$basic_string@DU?$char_traits@D@std@@V?$allocator@D@2@@std@@HU?$less@V?$basic_string@DU?$char_traits@D@std@@V?$allocator@D@2@@std@@@2@V?$allocator@U?$pair@$$CBV?$basic_string@DU?$char_traits@D@std@@V?$allocator@D@2@@std@@H@std@@@2@$0A@@std@@@2@@Z 100f55f0 f i Grm.obj
 0002:00046780       ?_Rrotate@?$_Tree@V?$_Tmap_traits@V?$basic_string@DU?$char_traits@D@std@@V?$allocator@D@2@@std@@HU?$less@V?$basic_string@DU?$char_traits@D@std@@V?$allocator@D@2@@std@@@2@V?$allocator@U?$pair@$$CBV?$basic_string@DU?$char_traits@D@std@@V?$allocator@D@2@@std@@H@std@@@2@$0A@@std@@@std@@IAEXPAU_Node@?$_Tree_nod@V?$_Tmap_traits@V?$basic_string@DU?$char_traits@D@std@@V?$allocator@D@2@@std@@HU?$less@V?$basic_string@DU?$char_traits@D@std@@V?$allocator@D@2@@std@@@2@V?$allocator@U?$pair@$$CBV?$basic_string@DU?$char_traits@D@std@@V?$allocator@D@2@@std@@H@std@@@2@$0A@@std@@@2@@Z 100f5780 f i Grm.obj
 0002:00046910       ?_Buynode@?$_Tree@V?$_Tmap_traits@V?$basic_string@DU?$char_traits@D@std@@V?$allocator@D@2@@std@@HU?$less@V?$basic_string@DU?$char_traits@D@std@@V?$allocator@D@2@@std@@@2@V?$allocator@U?$pair@$$CBV?$basic_string@DU?$char_traits@D@std@@V?$allocator@D@2@@std@@H@std@@@2@$0A@@std@@@std@@IAEPAU_Node@?$_Tree_nod@V?$_Tmap_traits@V?$basic_string@DU?$char_traits@D@std@@V?$allocator@D@2@@std@@HU?$less@V?$basic_string@DU?$char_traits@D@std@@V?$allocator@D@2@@std@@@2@V?$allocator@U?$pair@$$CBV?$basic_string@DU?$char_traits@D@std@@V?$allocator@D@2@@std@@H@std@@@2@$0A@@std@@@2@XZ 100f5910 f i Grm.obj
 0002:00046af0       ?_Buynode@?$_Tree@V?$_Tmap_traits@V?$basic_string@DU?$char_traits@D@std@@V?$allocator@D@2@@std@@HU?$less@V?$basic_string@DU?$char_traits@D@std@@V?$allocator@D@2@@std@@@2@V?$allocator@U?$pair@$$CBV?$basic_string@DU?$char_traits@D@std@@V?$allocator@D@2@@std@@H@std@@@2@$0A@@std@@@std@@IAEPAU_Node@?$_Tree_nod@V?$_Tmap_traits@V?$basic_string@DU?$char_traits@D@std@@V?$allocator@D@2@@std@@HU?$less@V?$basic_string@DU?$char_traits@D@std@@V?$allocator@D@2@@std@@@2@V?$allocator@U?$pair@$$CBV?$basic_string@DU?$char_traits@D@std@@V?$allocator@D@2@@std@@H@std@@@2@$0A@@std@@@2@PAU342@00ABU?$pair@$$CBV?$basic_string@DU?$char_traits@D@std@@V?$allocator@D@2@@std@@H@2@D@Z 100f5af0 f i Grm.obj
 0002:00046c10       ??0?$_Tree_ptr@V?$_Tmap_traits@V?$basic_string@DU?$char_traits@D@std@@V?$allocator@D@2@@std@@HU?$less@V?$basic_string@DU?$char_traits@D@std@@V?$allocator@D@2@@std@@@2@V?$allocator@U?$pair@$$CBV?$basic_string@DU?$char_traits@D@std@@V?$allocator@D@2@@std@@H@std@@@2@$0A@@std@@@std@@IAE@ABU?$less@V?$basic_string@DU?$char_traits@D@std@@V?$allocator@D@2@@std@@@1@V?$allocator@U?$pair@$$CBV?$basic_string@DU?$char_traits@D@std@@V?$allocator@D@2@@std@@H@std@@@1@@Z 100f5c10 f i Grm.obj
 0002:00046c70       ?_Make_iter@?$_Tree@V?$_Tmap_traits@V?$basic_string@DU?$char_traits@D@std@@V?$allocator@D@2@@std@@VDictConstructor@VA@@U?$less@V?$basic_string@DU?$char_traits@D@std@@V?$allocator@D@2@@std@@@2@V?$allocator@U?$pair@$$CBV?$basic_string@DU?$char_traits@D@std@@V?$allocator@D@2@@std@@VDictConstructor@VA@@@std@@@2@$0A@@std@@@std@@QBE?AViterator@12@Vconst_iterator@12@@Z 100f5c70 f i Grm.obj
 0002:00046cc0       ?erase@?$_Tree@V?$_Tmap_traits@V?$basic_string@DU?$char_traits@D@std@@V?$allocator@D@2@@std@@VDictConstructor@VA@@U?$less@V?$basic_string@DU?$char_traits@D@std@@V?$allocator@D@2@@std@@@2@V?$allocator@U?$pair@$$CBV?$basic_string@DU?$char_traits@D@std@@V?$allocator@D@2@@std@@VDictConstructor@VA@@@std@@@2@$0A@@std@@@std@@QAE?AViterator@12@Vconst_iterator@12@@Z 100f5cc0 f i Grm.obj
 0002:000476b0       ?clear@?$_Tree@V?$_Tmap_traits@V?$basic_string@DU?$char_traits@D@std@@V?$allocator@D@2@@std@@VDictConstructor@VA@@U?$less@V?$basic_string@DU?$char_traits@D@std@@V?$allocator@D@2@@std@@@2@V?$allocator@U?$pair@$$CBV?$basic_string@DU?$char_traits@D@std@@V?$allocator@D@2@@std@@VDictConstructor@VA@@@std@@@2@$0A@@std@@@std@@QAEXXZ 100f66b0 f i Grm.obj
 0002:00047730       ?_Min@?$_Tree@V?$_Tmap_traits@V?$basic_string@DU?$char_traits@D@std@@V?$allocator@D@2@@std@@VDictConstructor@VA@@U?$less@V?$basic_string@DU?$char_traits@D@std@@V?$allocator@D@2@@std@@@2@V?$allocator@U?$pair@$$CBV?$basic_string@DU?$char_traits@D@std@@V?$allocator@D@2@@std@@VDictConstructor@VA@@@std@@@2@$0A@@std@@@std@@KAPAU_Node@?$_Tree_nod@V?$_Tmap_traits@V?$basic_string@DU?$char_traits@D@std@@V?$allocator@D@2@@std@@VDictConstructor@VA@@U?$less@V?$basic_string@DU?$char_traits@D@std@@V?$allocator@D@2@@std@@@2@V?$allocator@U?$pair@$$CBV?$basic_string@DU?$char_traits@D@std@@V?$allocator@D@2@@std@@VDictConstructor@VA@@@std@@@2@$0A@@std@@@2@PAU342@@Z 100f6730 f i Grm.obj
 0002:00047790       ?_Buynode@?$_Tree@V?$_Tmap_traits@V?$basic_string@DU?$char_traits@D@std@@V?$allocator@D@2@@std@@VDictConstructor@VA@@U?$less@V?$basic_string@DU?$char_traits@D@std@@V?$allocator@D@2@@std@@@2@V?$allocator@U?$pair@$$CBV?$basic_string@DU?$char_traits@D@std@@V?$allocator@D@2@@std@@VDictConstructor@VA@@@std@@@2@$0A@@std@@@std@@IAEPAU_Node@?$_Tree_nod@V?$_Tmap_traits@V?$basic_string@DU?$char_traits@D@std@@V?$allocator@D@2@@std@@VDictConstructor@VA@@U?$less@V?$basic_string@DU?$char_traits@D@std@@V?$allocator@D@2@@std@@@2@V?$allocator@U?$pair@$$CBV?$basic_string@DU?$char_traits@D@std@@V?$allocator@D@2@@std@@VDictConstructor@VA@@@std@@@2@$0A@@std@@@2@XZ 100f6790 f i Grm.obj
 0002:00047970       ??0?$_Tree_ptr@V?$_Tmap_traits@V?$basic_string@DU?$char_traits@D@std@@V?$allocator@D@2@@std@@VDictConstructor@VA@@U?$less@V?$basic_string@DU?$char_traits@D@std@@V?$allocator@D@2@@std@@@2@V?$allocator@U?$pair@$$CBV?$basic_string@DU?$char_traits@D@std@@V?$allocator@D@2@@std@@VDictConstructor@VA@@@std@@@2@$0A@@std@@@std@@IAE@ABU?$less@V?$basic_string@DU?$char_traits@D@std@@V?$allocator@D@2@@std@@@1@V?$allocator@U?$pair@$$CBV?$basic_string@DU?$char_traits@D@std@@V?$allocator@D@2@@std@@VDictConstructor@VA@@@std@@@1@@Z 100f6970 f i Grm.obj
 0002:000479d0       ?max_size@?$allocator@U?$pair@$$CBV?$basic_string@DU?$char_traits@D@std@@V?$allocator@D@2@@std@@VDictConstructor@VA@@@std@@@std@@QBEIXZ 100f69d0 f i Grm.obj
 0002:00047a10       ?allocate@?$allocator@U_Node@?$_Tree_nod@V?$_Tmap_traits@V?$basic_string@DU?$char_traits@D@std@@V?$allocator@D@2@@std@@VDictConstructor@VA@@U?$less@V?$basic_string@DU?$char_traits@D@std@@V?$allocator@D@2@@std@@@2@V?$allocator@U?$pair@$$CBV?$basic_string@DU?$char_traits@D@std@@V?$allocator@D@2@@std@@VDictConstructor@VA@@@std@@@2@$0A@@std@@@std@@@std@@QAEPAU_Node@?$_Tree_nod@V?$_Tmap_traits@V?$basic_string@DU?$char_traits@D@std@@V?$allocator@D@2@@std@@VDictConstructor@VA@@U?$less@V?$basic_string@DU?$char_traits@D@std@@V?$allocator@D@2@@std@@@2@V?$allocator@U?$pair@$$CBV?$basic_string@DU?$char_traits@D@std@@V?$allocator@D@2@@std@@VDictConstructor@VA@@@std@@@2@$0A@@std@@@2@I@Z 100f6a10 f i Grm.obj
 0002:00047a40       ?max_size@?$deque@V?$basic_string@DU?$char_traits@D@std@@V?$allocator@D@2@@std@@V?$allocator@V?$basic_string@DU?$char_traits@D@std@@V?$allocator@D@2@@std@@@2@@std@@QBEIXZ 100f6a40 f i Grm.obj
 0002:00047a70       ?_Xlen@?$deque@V?$basic_string@DU?$char_traits@D@std@@V?$allocator@D@2@@std@@V?$allocator@V?$basic_string@DU?$char_traits@D@std@@V?$allocator@D@2@@std@@@2@@std@@KAXXZ 100f6a70 f i Grm.obj
 0002:00047b20       ??0?$_Deque_map@V?$basic_string@DU?$char_traits@D@std@@V?$allocator@D@2@@std@@V?$allocator@V?$basic_string@DU?$char_traits@D@std@@V?$allocator@D@2@@std@@@2@@std@@IAE@V?$allocator@V?$basic_string@DU?$char_traits@D@std@@V?$allocator@D@2@@std@@@1@@Z 100f6b20 f i Grm.obj
 0002:00047b70       ?allocate@?$allocator@PAV?$basic_string@DU?$char_traits@D@std@@V?$allocator@D@2@@std@@@std@@QAEPAPAV?$basic_string@DU?$char_traits@D@std@@V?$allocator@D@2@@2@I@Z 100f6b70 f i Grm.obj
 0002:00047ba0       ?_Isnil@?$_Tree@V?$_Tmap_traits@V?$basic_string@DU?$char_traits@D@std@@V?$allocator@D@2@@std@@VValue@Json@VA@@U?$less@V?$basic_string@DU?$char_traits@D@std@@V?$allocator@D@2@@std@@@2@V?$allocator@U?$pair@$$CBV?$basic_string@DU?$char_traits@D@std@@V?$allocator@D@2@@std@@VValue@Json@VA@@@std@@@2@$0A@@std@@@std@@KAAADPAU_Node@?$_Tree_nod@V?$_Tmap_traits@V?$basic_string@DU?$char_traits@D@std@@V?$allocator@D@2@@std@@VValue@Json@VA@@U?$less@V?$basic_string@DU?$char_traits@D@std@@V?$allocator@D@2@@std@@@2@V?$allocator@U?$pair@$$CBV?$basic_string@DU?$char_traits@D@std@@V?$allocator@D@2@@std@@VValue@Json@VA@@@std@@@2@$0A@@std@@@2@@Z 100f6ba0 f i Grm.obj
 0002:00047bc0       ?_Make_iter@?$_Tree@V?$_Tmap_traits@V?$basic_string@DU?$char_traits@D@std@@V?$allocator@D@2@@std@@VValue@Json@VA@@U?$less@V?$basic_string@DU?$char_traits@D@std@@V?$allocator@D@2@@std@@@2@V?$allocator@U?$pair@$$CBV?$basic_string@DU?$char_traits@D@std@@V?$allocator@D@2@@std@@VValue@Json@VA@@@std@@@2@$0A@@std@@@std@@QBE?AViterator@12@Vconst_iterator@12@@Z 100f6bc0 f i Grm.obj
 0002:00047c10       ?erase@?$_Tree@V?$_Tmap_traits@V?$basic_string@DU?$char_traits@D@std@@V?$allocator@D@2@@std@@VValue@Json@VA@@U?$less@V?$basic_string@DU?$char_traits@D@std@@V?$allocator@D@2@@std@@@2@V?$allocator@U?$pair@$$CBV?$basic_string@DU?$char_traits@D@std@@V?$allocator@D@2@@std@@VValue@Json@VA@@@std@@@2@$0A@@std@@@std@@QAE?AViterator@12@Vconst_iterator@12@@Z 100f6c10 f i Grm.obj
 0002:00048600       ?clear@?$_Tree@V?$_Tmap_traits@V?$basic_string@DU?$char_traits@D@std@@V?$allocator@D@2@@std@@VValue@Json@VA@@U?$less@V?$basic_string@DU?$char_traits@D@std@@V?$allocator@D@2@@std@@@2@V?$allocator@U?$pair@$$CBV?$basic_string@DU?$char_traits@D@std@@V?$allocator@D@2@@std@@VValue@Json@VA@@@std@@@2@$0A@@std@@@std@@QAEXXZ 100f7600 f i Grm.obj
 0002:00048680       ?_Lmost@?$_Tree@V?$_Tmap_traits@V?$basic_string@DU?$char_traits@D@std@@V?$allocator@D@2@@std@@VValue@Json@VA@@U?$less@V?$basic_string@DU?$char_traits@D@std@@V?$allocator@D@2@@std@@@2@V?$allocator@U?$pair@$$CBV?$basic_string@DU?$char_traits@D@std@@V?$allocator@D@2@@std@@VValue@Json@VA@@@std@@@2@$0A@@std@@@std@@IBEAAPAU_Node@?$_Tree_nod@V?$_Tmap_traits@V?$basic_string@DU?$char_traits@D@std@@V?$allocator@D@2@@std@@VValue@Json@VA@@U?$less@V?$basic_string@DU?$char_traits@D@std@@V?$allocator@D@2@@std@@@2@V?$allocator@U?$pair@$$CBV?$basic_string@DU?$char_traits@D@std@@V?$allocator@D@2@@std@@VValue@Json@VA@@@std@@@2@$0A@@std@@@2@XZ 100f7680 f i Grm.obj
 0002:000486b0       ?_Rmost@?$_Tree@V?$_Tmap_traits@V?$basic_string@DU?$char_traits@D@std@@V?$allocator@D@2@@std@@VValue@Json@VA@@U?$less@V?$basic_string@DU?$char_traits@D@std@@V?$allocator@D@2@@std@@@2@V?$allocator@U?$pair@$$CBV?$basic_string@DU?$char_traits@D@std@@V?$allocator@D@2@@std@@VValue@Json@VA@@@std@@@2@$0A@@std@@@std@@IBEAAPAU_Node@?$_Tree_nod@V?$_Tmap_traits@V?$basic_string@DU?$char_traits@D@std@@V?$allocator@D@2@@std@@VValue@Json@VA@@U?$less@V?$basic_string@DU?$char_traits@D@std@@V?$allocator@D@2@@std@@@2@V?$allocator@U?$pair@$$CBV?$basic_string@DU?$char_traits@D@std@@V?$allocator@D@2@@std@@VValue@Json@VA@@@std@@@2@$0A@@std@@@2@XZ 100f76b0 f i Grm.obj
 0002:000486e0       ?_Root@?$_Tree@V?$_Tmap_traits@V?$basic_string@DU?$char_traits@D@std@@V?$allocator@D@2@@std@@VValue@Json@VA@@U?$less@V?$basic_string@DU?$char_traits@D@std@@V?$allocator@D@2@@std@@@2@V?$allocator@U?$pair@$$CBV?$basic_string@DU?$char_traits@D@std@@V?$allocator@D@2@@std@@VValue@Json@VA@@@std@@@2@$0A@@std@@@std@@IBEAAPAU_Node@?$_Tree_nod@V?$_Tmap_traits@V?$basic_string@DU?$char_traits@D@std@@V?$allocator@D@2@@std@@VValue@Json@VA@@U?$less@V?$basic_string@DU?$char_traits@D@std@@V?$allocator@D@2@@std@@@2@V?$allocator@U?$pair@$$CBV?$basic_string@DU?$char_traits@D@std@@V?$allocator@D@2@@std@@VValue@Json@VA@@@std@@@2@$0A@@std@@@2@XZ 100f76e0 f i Grm.obj
 0002:00048710       ?_Buynode@?$_Tree@V?$_Tmap_traits@V?$basic_string@DU?$char_traits@D@std@@V?$allocator@D@2@@std@@VValue@Json@VA@@U?$less@V?$basic_string@DU?$char_traits@D@std@@V?$allocator@D@2@@std@@@2@V?$allocator@U?$pair@$$CBV?$basic_string@DU?$char_traits@D@std@@V?$allocator@D@2@@std@@VValue@Json@VA@@@std@@@2@$0A@@std@@@std@@IAEPAU_Node@?$_Tree_nod@V?$_Tmap_traits@V?$basic_string@DU?$char_traits@D@std@@V?$allocator@D@2@@std@@VValue@Json@VA@@U?$less@V?$basic_string@DU?$char_traits@D@std@@V?$allocator@D@2@@std@@@2@V?$allocator@U?$pair@$$CBV?$basic_string@DU?$char_traits@D@std@@V?$allocator@D@2@@std@@VValue@Json@VA@@@std@@@2@$0A@@std@@@2@XZ 100f7710 f i Grm.obj
 0002:000488f0       ??0?$_Tree_ptr@V?$_Tmap_traits@V?$basic_string@DU?$char_traits@D@std@@V?$allocator@D@2@@std@@VValue@Json@VA@@U?$less@V?$basic_string@DU?$char_traits@D@std@@V?$allocator@D@2@@std@@@2@V?$allocator@U?$pair@$$CBV?$basic_string@DU?$char_traits@D@std@@V?$allocator@D@2@@std@@VValue@Json@VA@@@std@@@2@$0A@@std@@@std@@IAE@ABU?$less@V?$basic_string@DU?$char_traits@D@std@@V?$allocator@D@2@@std@@@1@V?$allocator@U?$pair@$$CBV?$basic_string@DU?$char_traits@D@std@@V?$allocator@D@2@@std@@VValue@Json@VA@@@std@@@1@@Z 100f78f0 f i Grm.obj
 0002:00048950       ??0iterator@?$_Tree@V?$_Tmap_traits@V?$basic_string@DU?$char_traits@D@std@@V?$allocator@D@2@@std@@VValue@Json@VA@@U?$less@V?$basic_string@DU?$char_traits@D@std@@V?$allocator@D@2@@std@@@2@V?$allocator@U?$pair@$$CBV?$basic_string@DU?$char_traits@D@std@@V?$allocator@D@2@@std@@VValue@Json@VA@@@std@@@2@$0A@@std@@@std@@QAE@PAU_Node@?$_Tree_nod@V?$_Tmap_traits@V?$basic_string@DU?$char_traits@D@std@@V?$allocator@D@2@@std@@VValue@Json@VA@@U?$less@V?$basic_string@DU?$char_traits@D@std@@V?$allocator@D@2@@std@@@2@V?$allocator@U?$pair@$$CBV?$basic_string@DU?$char_traits@D@std@@V?$allocator@D@2@@std@@VValue@Json@VA@@@std@@@2@$0A@@std@@@2@PBV12@@Z 100f7950 f i Grm.obj
 0002:00048990       ??Econst_iterator@?$_Tree@V?$_Tmap_traits@V?$basic_string@DU?$char_traits@D@std@@V?$allocator@D@2@@std@@VValue@Json@VA@@U?$less@V?$basic_string@DU?$char_traits@D@std@@V?$allocator@D@2@@std@@@2@V?$allocator@U?$pair@$$CBV?$basic_string@DU?$char_traits@D@std@@V?$allocator@D@2@@std@@VValue@Json@VA@@@std@@@2@$0A@@std@@@std@@QAE?AV012@H@Z 100f7990 f i Grm.obj
 0002:000489e0       ??8const_iterator@?$_Tree@V?$_Tmap_traits@V?$basic_string@DU?$char_traits@D@std@@V?$allocator@D@2@@std@@VValue@Json@VA@@U?$less@V?$basic_string@DU?$char_traits@D@std@@V?$allocator@D@2@@std@@@2@V?$allocator@U?$pair@$$CBV?$basic_string@DU?$char_traits@D@std@@V?$allocator@D@2@@std@@VValue@Json@VA@@@std@@@2@$0A@@std@@@std@@QBE_NABV012@@Z 100f79e0 f i Grm.obj
 0002:00048a50       ??9const_iterator@?$_Tree@V?$_Tmap_traits@V?$basic_string@DU?$char_traits@D@std@@V?$allocator@D@2@@std@@VValue@Json@VA@@U?$less@V?$basic_string@DU?$char_traits@D@std@@V?$allocator@D@2@@std@@@2@V?$allocator@U?$pair@$$CBV?$basic_string@DU?$char_traits@D@std@@V?$allocator@D@2@@std@@VValue@Json@VA@@@std@@@2@$0A@@std@@@std@@QBE_NABV012@@Z 100f7a50 f i Grm.obj
 0002:00048a90       ??Econst_iterator@?$_Tree@V?$_Tmap_traits@V?$basic_string@DU?$char_traits@D@std@@V?$allocator@D@2@@std@@VDictConstructor@VA@@U?$less@V?$basic_string@DU?$char_traits@D@std@@V?$allocator@D@2@@std@@@2@V?$allocator@U?$pair@$$CBV?$basic_string@DU?$char_traits@D@std@@V?$allocator@D@2@@std@@VDictConstructor@VA@@@std@@@2@$0A@@std@@@std@@QAE?AV012@H@Z 100f7a90 f i Grm.obj
 0002:00048ae0       ?_Dec@const_iterator@?$_Tree@V?$_Tmap_traits@V?$basic_string@DU?$char_traits@D@std@@V?$allocator@D@2@@std@@VDictConstructor@VA@@U?$less@V?$basic_string@DU?$char_traits@D@std@@V?$allocator@D@2@@std@@@2@V?$allocator@U?$pair@$$CBV?$basic_string@DU?$char_traits@D@std@@V?$allocator@D@2@@std@@VDictConstructor@VA@@@std@@@2@$0A@@std@@@std@@QAEXXZ 100f7ae0 f i Grm.obj
 0002:00048c60       ??Fiterator@?$_Tree@V?$_Tmap_traits@V?$basic_string@DU?$char_traits@D@std@@V?$allocator@D@2@@std@@HU?$less@V?$basic_string@DU?$char_traits@D@std@@V?$allocator@D@2@@std@@@2@V?$allocator@U?$pair@$$CBV?$basic_string@DU?$char_traits@D@std@@V?$allocator@D@2@@std@@H@std@@@2@$0A@@std@@@std@@QAEAAV012@XZ 100f7c60 f i Grm.obj
 0002:00048c90       ??Econst_iterator@?$_Tree@V?$_Tmap_traits@V?$basic_string@DU?$char_traits@D@std@@V?$allocator@D@2@@std@@HU?$less@V?$basic_string@DU?$char_traits@D@std@@V?$allocator@D@2@@std@@@2@V?$allocator@U?$pair@$$CBV?$basic_string@DU?$char_traits@D@std@@V?$allocator@D@2@@std@@H@std@@@2@$0A@@std@@@std@@QAE?AV012@H@Z 100f7c90 f i Grm.obj
 0002:00048ce0       ??9const_iterator@?$_Tree@V?$_Tmap_traits@V?$basic_string@DU?$char_traits@D@std@@V?$allocator@D@2@@std@@HU?$less@V?$basic_string@DU?$char_traits@D@std@@V?$allocator@D@2@@std@@@2@V?$allocator@U?$pair@$$CBV?$basic_string@DU?$char_traits@D@std@@V?$allocator@D@2@@std@@H@std@@@2@$0A@@std@@@std@@QBE_NABV012@@Z 100f7ce0 f i Grm.obj
 0002:00048d20       ?_Dec@const_iterator@?$_Tree@V?$_Tmap_traits@V?$basic_string@DU?$char_traits@D@std@@V?$allocator@D@2@@std@@HU?$less@V?$basic_string@DU?$char_traits@D@std@@V?$allocator@D@2@@std@@@2@V?$allocator@U?$pair@$$CBV?$basic_string@DU?$char_traits@D@std@@V?$allocator@D@2@@std@@H@std@@@2@$0A@@std@@@std@@QAEXXZ 100f7d20 f i Grm.obj
 0002:00048ea0       ?_Inc@const_iterator@?$_Tree@V?$_Tmap_traits@V?$basic_string@DU?$char_traits@D@std@@V?$allocator@D@2@@std@@HU?$less@V?$basic_string@DU?$char_traits@D@std@@V?$allocator@D@2@@std@@@2@V?$allocator@U?$pair@$$CBV?$basic_string@DU?$char_traits@D@std@@V?$allocator@D@2@@std@@H@std@@@2@$0A@@std@@@std@@QAEXXZ 100f7ea0 f i Grm.obj
 0002:00048fc0       ??0?$pair@Vconst_iterator@?$_Tree@V?$_Tmap_traits@V?$basic_string@DU?$char_traits@D@std@@V?$allocator@D@2@@std@@VDictConstructor@VA@@U?$less@V?$basic_string@DU?$char_traits@D@std@@V?$allocator@D@2@@std@@@2@V?$allocator@U?$pair@$$CBV?$basic_string@DU?$char_traits@D@std@@V?$allocator@D@2@@std@@VDictConstructor@VA@@@std@@@2@$0A@@std@@@std@@V123@@std@@QAE@ABVconst_iterator@?$_Tree@V?$_Tmap_traits@V?$basic_string@DU?$char_traits@D@std@@V?$allocator@D@2@@std@@VDictConstructor@VA@@U?$less@V?$basic_string@DU?$char_traits@D@std@@V?$allocator@D@2@@std@@@2@V?$allocator@U?$pair@$$CBV?$basic_string@DU?$char_traits@D@std@@V?$allocator@D@2@@std@@VDictConstructor@VA@@@std@@@2@$0A@@std@@@1@0@Z 100f7fc0 f i Grm.obj
 0002:00049010       ??0?$pair@Viterator@?$_Tree@V?$_Tmap_traits@V?$basic_string@DU?$char_traits@D@std@@V?$allocator@D@2@@std@@HU?$less@V?$basic_string@DU?$char_traits@D@std@@V?$allocator@D@2@@std@@@2@V?$allocator@U?$pair@$$CBV?$basic_string@DU?$char_traits@D@std@@V?$allocator@D@2@@std@@H@std@@@2@$0A@@std@@@std@@_N@std@@QAE@ABViterator@?$_Tree@V?$_Tmap_traits@V?$basic_string@DU?$char_traits@D@std@@V?$allocator@D@2@@std@@HU?$less@V?$basic_string@DU?$char_traits@D@std@@V?$allocator@D@2@@std@@@2@V?$allocator@U?$pair@$$CBV?$basic_string@DU?$char_traits@D@std@@V?$allocator@D@2@@std@@H@std@@@2@$0A@@std@@@1@AB_N@Z 100f8010 f i Grm.obj
 0002:00049050       ??0_Node@?$_Tree_nod@V?$_Tmap_traits@V?$basic_string@DU?$char_traits@D@std@@V?$allocator@D@2@@std@@VDictConstructor@VA@@U?$less@V?$basic_string@DU?$char_traits@D@std@@V?$allocator@D@2@@std@@@2@V?$allocator@U?$pair@$$CBV?$basic_string@DU?$char_traits@D@std@@V?$allocator@D@2@@std@@VDictConstructor@VA@@@std@@@2@$0A@@std@@@std@@QAE@PAU012@00ABU?$pair@$$CBV?$basic_string@DU?$char_traits@D@std@@V?$allocator@D@2@@std@@VDictConstructor@VA@@@2@D@Z 100f8050 f i Grm.obj
 0002:000490c0       ??0?$_Deque_iterator@V?$basic_string@DU?$char_traits@D@std@@V?$allocator@D@2@@std@@V?$allocator@V?$basic_string@DU?$char_traits@D@std@@V?$allocator@D@2@@std@@@2@$00@std@@QAE@IPBV_Container_base_aux@1@@Z 100f80c0 f i Grm.obj
 0002:00049100       ??D?$_Deque_const_iterator@V?$basic_string@DU?$char_traits@D@std@@V?$allocator@D@2@@std@@V?$allocator@V?$basic_string@DU?$char_traits@D@std@@V?$allocator@D@2@@std@@@2@$00@std@@QBEABV?$basic_string@DU?$char_traits@D@std@@V?$allocator@D@2@@1@XZ 100f8100 f i Grm.obj
 0002:000491d0       ??0?$pair@$$CBV?$basic_string@DU?$char_traits@D@std@@V?$allocator@D@2@@std@@VDictConstructor@VA@@@std@@QAE@ABU01@@Z 100f81d0 f i Grm.obj
 0002:00049260       ?_Erase@?$_Tree@V?$_Tmap_traits@V?$basic_string@DU?$char_traits@D@std@@V?$allocator@D@2@@std@@HU?$less@V?$basic_string@DU?$char_traits@D@std@@V?$allocator@D@2@@std@@@2@V?$allocator@U?$pair@$$CBV?$basic_string@DU?$char_traits@D@std@@V?$allocator@D@2@@std@@H@std@@@2@$0A@@std@@@std@@IAEXPAU_Node@?$_Tree_nod@V?$_Tmap_traits@V?$basic_string@DU?$char_traits@D@std@@V?$allocator@D@2@@std@@HU?$less@V?$basic_string@DU?$char_traits@D@std@@V?$allocator@D@2@@std@@@2@V?$allocator@U?$pair@$$CBV?$basic_string@DU?$char_traits@D@std@@V?$allocator@D@2@@std@@H@std@@@2@$0A@@std@@@2@@Z 100f8260 f i Grm.obj
 0002:00049300       ?_Max@?$_Tree@V?$_Tmap_traits@V?$basic_string@DU?$char_traits@D@std@@V?$allocator@D@2@@std@@HU?$less@V?$basic_string@DU?$char_traits@D@std@@V?$allocator@D@2@@std@@@2@V?$allocator@U?$pair@$$CBV?$basic_string@DU?$char_traits@D@std@@V?$allocator@D@2@@std@@H@std@@@2@$0A@@std@@@std@@KAPAU_Node@?$_Tree_nod@V?$_Tmap_traits@V?$basic_string@DU?$char_traits@D@std@@V?$allocator@D@2@@std@@HU?$less@V?$basic_string@DU?$char_traits@D@std@@V?$allocator@D@2@@std@@@2@V?$allocator@U?$pair@$$CBV?$basic_string@DU?$char_traits@D@std@@V?$allocator@D@2@@std@@H@std@@@2@$0A@@std@@@2@PAU342@@Z 100f8300 f i Grm.obj
 0002:00049360       ?_Min@?$_Tree@V?$_Tmap_traits@V?$basic_string@DU?$char_traits@D@std@@V?$allocator@D@2@@std@@HU?$less@V?$basic_string@DU?$char_traits@D@std@@V?$allocator@D@2@@std@@@2@V?$allocator@U?$pair@$$CBV?$basic_string@DU?$char_traits@D@std@@V?$allocator@D@2@@std@@H@std@@@2@$0A@@std@@@std@@KAPAU_Node@?$_Tree_nod@V?$_Tmap_traits@V?$basic_string@DU?$char_traits@D@std@@V?$allocator@D@2@@std@@HU?$less@V?$basic_string@DU?$char_traits@D@std@@V?$allocator@D@2@@std@@@2@V?$allocator@U?$pair@$$CBV?$basic_string@DU?$char_traits@D@std@@V?$allocator@D@2@@std@@H@std@@@2@$0A@@std@@@2@PAU342@@Z 100f8360 f i Grm.obj
 0002:000493c0       ??0?$_Tree_nod@V?$_Tmap_traits@V?$basic_string@DU?$char_traits@D@std@@V?$allocator@D@2@@std@@HU?$less@V?$basic_string@DU?$char_traits@D@std@@V?$allocator@D@2@@std@@@2@V?$allocator@U?$pair@$$CBV?$basic_string@DU?$char_traits@D@std@@V?$allocator@D@2@@std@@H@std@@@2@$0A@@std@@@std@@IAE@ABU?$less@V?$basic_string@DU?$char_traits@D@std@@V?$allocator@D@2@@std@@@1@V?$allocator@U?$pair@$$CBV?$basic_string@DU?$char_traits@D@std@@V?$allocator@D@2@@std@@H@std@@@1@@Z 100f83c0 f i Grm.obj
 0002:00049420       ?max_size@?$allocator@U?$pair@$$CBV?$basic_string@DU?$char_traits@D@std@@V?$allocator@D@2@@std@@H@std@@@std@@QBEIXZ 100f8420 f i Grm.obj
 0002:00049460       ?allocate@?$allocator@U_Node@?$_Tree_nod@V?$_Tmap_traits@V?$basic_string@DU?$char_traits@D@std@@V?$allocator@D@2@@std@@HU?$less@V?$basic_string@DU?$char_traits@D@std@@V?$allocator@D@2@@std@@@2@V?$allocator@U?$pair@$$CBV?$basic_string@DU?$char_traits@D@std@@V?$allocator@D@2@@std@@H@std@@@2@$0A@@std@@@std@@@std@@QAEPAU_Node@?$_Tree_nod@V?$_Tmap_traits@V?$basic_string@DU?$char_traits@D@std@@V?$allocator@D@2@@std@@HU?$less@V?$basic_string@DU?$char_traits@D@std@@V?$allocator@D@2@@std@@@2@V?$allocator@U?$pair@$$CBV?$basic_string@DU?$char_traits@D@std@@V?$allocator@D@2@@std@@H@std@@@2@$0A@@std@@@2@I@Z 100f8460 f i Grm.obj
 0002:00049490       ?destroy@?$allocator@U_Node@?$_Tree_nod@V?$_Tmap_traits@V?$basic_string@DU?$char_traits@D@std@@V?$allocator@D@2@@std@@HU?$less@V?$basic_string@DU?$char_traits@D@std@@V?$allocator@D@2@@std@@@2@V?$allocator@U?$pair@$$CBV?$basic_string@DU?$char_traits@D@std@@V?$allocator@D@2@@std@@H@std@@@2@$0A@@std@@@std@@@std@@QAEXPAU_Node@?$_Tree_nod@V?$_Tmap_traits@V?$basic_string@DU?$char_traits@D@std@@V?$allocator@D@2@@std@@HU?$less@V?$basic_string@DU?$char_traits@D@std@@V?$allocator@D@2@@std@@@2@V?$allocator@U?$pair@$$CBV?$basic_string@DU?$char_traits@D@std@@V?$allocator@D@2@@std@@H@std@@@2@$0A@@std@@@2@@Z 100f8490 f i Grm.obj
 0002:000494c0       ?construct@?$allocator@PAU_Node@?$_Tree_nod@V?$_Tmap_traits@V?$basic_string@DU?$char_traits@D@std@@V?$allocator@D@2@@std@@HU?$less@V?$basic_string@DU?$char_traits@D@std@@V?$allocator@D@2@@std@@@2@V?$allocator@U?$pair@$$CBV?$basic_string@DU?$char_traits@D@std@@V?$allocator@D@2@@std@@H@std@@@2@$0A@@std@@@std@@@std@@QAEXPAPAU_Node@?$_Tree_nod@V?$_Tmap_traits@V?$basic_string@DU?$char_traits@D@std@@V?$allocator@D@2@@std@@HU?$less@V?$basic_string@DU?$char_traits@D@std@@V?$allocator@D@2@@std@@@2@V?$allocator@U?$pair@$$CBV?$basic_string@DU?$char_traits@D@std@@V?$allocator@D@2@@std@@H@std@@@2@$0A@@std@@@2@ABQAU342@@Z 100f84c0 f i Grm.obj
 0002:000494f0       ?_Erase@?$_Tree@V?$_Tmap_traits@V?$basic_string@DU?$char_traits@D@std@@V?$allocator@D@2@@std@@VDictConstructor@VA@@U?$less@V?$basic_string@DU?$char_traits@D@std@@V?$allocator@D@2@@std@@@2@V?$allocator@U?$pair@$$CBV?$basic_string@DU?$char_traits@D@std@@V?$allocator@D@2@@std@@VDictConstructor@VA@@@std@@@2@$0A@@std@@@std@@IAEXPAU_Node@?$_Tree_nod@V?$_Tmap_traits@V?$basic_string@DU?$char_traits@D@std@@V?$allocator@D@2@@std@@VDictConstructor@VA@@U?$less@V?$basic_string@DU?$char_traits@D@std@@V?$allocator@D@2@@std@@@2@V?$allocator@U?$pair@$$CBV?$basic_string@DU?$char_traits@D@std@@V?$allocator@D@2@@std@@VDictConstructor@VA@@@std@@@2@$0A@@std@@@2@@Z 100f84f0 f i Grm.obj
 0002:00049590       ?_Max@?$_Tree@V?$_Tmap_traits@V?$basic_string@DU?$char_traits@D@std@@V?$allocator@D@2@@std@@VDictConstructor@VA@@U?$less@V?$basic_string@DU?$char_traits@D@std@@V?$allocator@D@2@@std@@@2@V?$allocator@U?$pair@$$CBV?$basic_string@DU?$char_traits@D@std@@V?$allocator@D@2@@std@@VDictConstructor@VA@@@std@@@2@$0A@@std@@@std@@KAPAU_Node@?$_Tree_nod@V?$_Tmap_traits@V?$basic_string@DU?$char_traits@D@std@@V?$allocator@D@2@@std@@VDictConstructor@VA@@U?$less@V?$basic_string@DU?$char_traits@D@std@@V?$allocator@D@2@@std@@@2@V?$allocator@U?$pair@$$CBV?$basic_string@DU?$char_traits@D@std@@V?$allocator@D@2@@std@@VDictConstructor@VA@@@std@@@2@$0A@@std@@@2@PAU342@@Z 100f8590 f i Grm.obj
 0002:000495f0       ??0?$_Tree_nod@V?$_Tmap_traits@V?$basic_string@DU?$char_traits@D@std@@V?$allocator@D@2@@std@@VDictConstructor@VA@@U?$less@V?$basic_string@DU?$char_traits@D@std@@V?$allocator@D@2@@std@@@2@V?$allocator@U?$pair@$$CBV?$basic_string@DU?$char_traits@D@std@@V?$allocator@D@2@@std@@VDictConstructor@VA@@@std@@@2@$0A@@std@@@std@@IAE@ABU?$less@V?$basic_string@DU?$char_traits@D@std@@V?$allocator@D@2@@std@@@1@V?$allocator@U?$pair@$$CBV?$basic_string@DU?$char_traits@D@std@@V?$allocator@D@2@@std@@VDictConstructor@VA@@@std@@@1@@Z 100f85f0 f i Grm.obj
 0002:00049650       ?destroy@?$allocator@U_Node@?$_Tree_nod@V?$_Tmap_traits@V?$basic_string@DU?$char_traits@D@std@@V?$allocator@D@2@@std@@VDictConstructor@VA@@U?$less@V?$basic_string@DU?$char_traits@D@std@@V?$allocator@D@2@@std@@@2@V?$allocator@U?$pair@$$CBV?$basic_string@DU?$char_traits@D@std@@V?$allocator@D@2@@std@@VDictConstructor@VA@@@std@@@2@$0A@@std@@@std@@@std@@QAEXPAU_Node@?$_Tree_nod@V?$_Tmap_traits@V?$basic_string@DU?$char_traits@D@std@@V?$allocator@D@2@@std@@VDictConstructor@VA@@U?$less@V?$basic_string@DU?$char_traits@D@std@@V?$allocator@D@2@@std@@@2@V?$allocator@U?$pair@$$CBV?$basic_string@DU?$char_traits@D@std@@V?$allocator@D@2@@std@@VDictConstructor@VA@@@std@@@2@$0A@@std@@@2@@Z 100f8650 f i Grm.obj
 0002:00049680       ?construct@?$allocator@PAU_Node@?$_Tree_nod@V?$_Tmap_traits@V?$basic_string@DU?$char_traits@D@std@@V?$allocator@D@2@@std@@VDictConstructor@VA@@U?$less@V?$basic_string@DU?$char_traits@D@std@@V?$allocator@D@2@@std@@@2@V?$allocator@U?$pair@$$CBV?$basic_string@DU?$char_traits@D@std@@V?$allocator@D@2@@std@@VDictConstructor@VA@@@std@@@2@$0A@@std@@@std@@@std@@QAEXPAPAU_Node@?$_Tree_nod@V?$_Tmap_traits@V?$basic_string@DU?$char_traits@D@std@@V?$allocator@D@2@@std@@VDictConstructor@VA@@U?$less@V?$basic_string@DU?$char_traits@D@std@@V?$allocator@D@2@@std@@@2@V?$allocator@U?$pair@$$CBV?$basic_string@DU?$char_traits@D@std@@V?$allocator@D@2@@std@@VDictConstructor@VA@@@std@@@2@$0A@@std@@@2@ABQAU342@@Z 100f8680 f i Grm.obj
 0002:000496b0       ?_Color@?$_Tree@V?$_Tmap_traits@V?$basic_string@DU?$char_traits@D@std@@V?$allocator@D@2@@std@@VValue@Json@VA@@U?$less@V?$basic_string@DU?$char_traits@D@std@@V?$allocator@D@2@@std@@@2@V?$allocator@U?$pair@$$CBV?$basic_string@DU?$char_traits@D@std@@V?$allocator@D@2@@std@@VValue@Json@VA@@@std@@@2@$0A@@std@@@std@@KAAADPAU_Node@?$_Tree_nod@V?$_Tmap_traits@V?$basic_string@DU?$char_traits@D@std@@V?$allocator@D@2@@std@@VValue@Json@VA@@U?$less@V?$basic_string@DU?$char_traits@D@std@@V?$allocator@D@2@@std@@@2@V?$allocator@U?$pair@$$CBV?$basic_string@DU?$char_traits@D@std@@V?$allocator@D@2@@std@@VValue@Json@VA@@@std@@@2@$0A@@std@@@2@@Z 100f86b0 f i Grm.obj
 0002:000496d0       ?_Erase@?$_Tree@V?$_Tmap_traits@V?$basic_string@DU?$char_traits@D@std@@V?$allocator@D@2@@std@@VValue@Json@VA@@U?$less@V?$basic_string@DU?$char_traits@D@std@@V?$allocator@D@2@@std@@@2@V?$allocator@U?$pair@$$CBV?$basic_string@DU?$char_traits@D@std@@V?$allocator@D@2@@std@@VValue@Json@VA@@@std@@@2@$0A@@std@@@std@@IAEXPAU_Node@?$_Tree_nod@V?$_Tmap_traits@V?$basic_string@DU?$char_traits@D@std@@V?$allocator@D@2@@std@@VValue@Json@VA@@U?$less@V?$basic_string@DU?$char_traits@D@std@@V?$allocator@D@2@@std@@@2@V?$allocator@U?$pair@$$CBV?$basic_string@DU?$char_traits@D@std@@V?$allocator@D@2@@std@@VValue@Json@VA@@@std@@@2@$0A@@std@@@2@@Z 100f86d0 f i Grm.obj
 0002:00049770       ?_Lrotate@?$_Tree@V?$_Tmap_traits@V?$basic_string@DU?$char_traits@D@std@@V?$allocator@D@2@@std@@VValue@Json@VA@@U?$less@V?$basic_string@DU?$char_traits@D@std@@V?$allocator@D@2@@std@@@2@V?$allocator@U?$pair@$$CBV?$basic_string@DU?$char_traits@D@std@@V?$allocator@D@2@@std@@VValue@Json@VA@@@std@@@2@$0A@@std@@@std@@IAEXPAU_Node@?$_Tree_nod@V?$_Tmap_traits@V?$basic_string@DU?$char_traits@D@std@@V?$allocator@D@2@@std@@VValue@Json@VA@@U?$less@V?$basic_string@DU?$char_traits@D@std@@V?$allocator@D@2@@std@@@2@V?$allocator@U?$pair@$$CBV?$basic_string@DU?$char_traits@D@std@@V?$allocator@D@2@@std@@VValue@Json@VA@@@std@@@2@$0A@@std@@@2@@Z 100f8770 f i Grm.obj
 0002:00049900       ?_Max@?$_Tree@V?$_Tmap_traits@V?$basic_string@DU?$char_traits@D@std@@V?$allocator@D@2@@std@@VValue@Json@VA@@U?$less@V?$basic_string@DU?$char_traits@D@std@@V?$allocator@D@2@@std@@@2@V?$allocator@U?$pair@$$CBV?$basic_string@DU?$char_traits@D@std@@V?$allocator@D@2@@std@@VValue@Json@VA@@@std@@@2@$0A@@std@@@std@@KAPAU_Node@?$_Tree_nod@V?$_Tmap_traits@V?$basic_string@DU?$char_traits@D@std@@V?$allocator@D@2@@std@@VValue@Json@VA@@U?$less@V?$basic_string@DU?$char_traits@D@std@@V?$allocator@D@2@@std@@@2@V?$allocator@U?$pair@$$CBV?$basic_string@DU?$char_traits@D@std@@V?$allocator@D@2@@std@@VValue@Json@VA@@@std@@@2@$0A@@std@@@2@PAU342@@Z 100f8900 f i Grm.obj
 0002:00049960       ?_Min@?$_Tree@V?$_Tmap_traits@V?$basic_string@DU?$char_traits@D@std@@V?$allocator@D@2@@std@@VValue@Json@VA@@U?$less@V?$basic_string@DU?$char_traits@D@std@@V?$allocator@D@2@@std@@@2@V?$allocator@U?$pair@$$CBV?$basic_string@DU?$char_traits@D@std@@V?$allocator@D@2@@std@@VValue@Json@VA@@@std@@@2@$0A@@std@@@std@@KAPAU_Node@?$_Tree_nod@V?$_Tmap_traits@V?$basic_string@DU?$char_traits@D@std@@V?$allocator@D@2@@std@@VValue@Json@VA@@U?$less@V?$basic_string@DU?$char_traits@D@std@@V?$allocator@D@2@@std@@@2@V?$allocator@U?$pair@$$CBV?$basic_string@DU?$char_traits@D@std@@V?$allocator@D@2@@std@@VValue@Json@VA@@@std@@@2@$0A@@std@@@2@PAU342@@Z 100f8960 f i Grm.obj
 0002:000499c0       ?_Rrotate@?$_Tree@V?$_Tmap_traits@V?$basic_string@DU?$char_traits@D@std@@V?$allocator@D@2@@std@@VValue@Json@VA@@U?$less@V?$basic_string@DU?$char_traits@D@std@@V?$allocator@D@2@@std@@@2@V?$allocator@U?$pair@$$CBV?$basic_string@DU?$char_traits@D@std@@V?$allocator@D@2@@std@@VValue@Json@VA@@@std@@@2@$0A@@std@@@std@@IAEXPAU_Node@?$_Tree_nod@V?$_Tmap_traits@V?$basic_string@DU?$char_traits@D@std@@V?$allocator@D@2@@std@@VValue@Json@VA@@U?$less@V?$basic_string@DU?$char_traits@D@std@@V?$allocator@D@2@@std@@@2@V?$allocator@U?$pair@$$CBV?$basic_string@DU?$char_traits@D@std@@V?$allocator@D@2@@std@@VValue@Json@VA@@@std@@@2@$0A@@std@@@2@@Z 100f89c0 f i Grm.obj
 0002:00049b50       ??0?$_Tree_nod@V?$_Tmap_traits@V?$basic_string@DU?$char_traits@D@std@@V?$allocator@D@2@@std@@VValue@Json@VA@@U?$less@V?$basic_string@DU?$char_traits@D@std@@V?$allocator@D@2@@std@@@2@V?$allocator@U?$pair@$$CBV?$basic_string@DU?$char_traits@D@std@@V?$allocator@D@2@@std@@VValue@Json@VA@@@std@@@2@$0A@@std@@@std@@IAE@ABU?$less@V?$basic_string@DU?$char_traits@D@std@@V?$allocator@D@2@@std@@@1@V?$allocator@U?$pair@$$CBV?$basic_string@DU?$char_traits@D@std@@V?$allocator@D@2@@std@@VValue@Json@VA@@@std@@@1@@Z 100f8b50 f i Grm.obj
 0002:00049bb0       ?allocate@?$allocator@U_Node@?$_Tree_nod@V?$_Tmap_traits@V?$basic_string@DU?$char_traits@D@std@@V?$allocator@D@2@@std@@VValue@Json@VA@@U?$less@V?$basic_string@DU?$char_traits@D@std@@V?$allocator@D@2@@std@@@2@V?$allocator@U?$pair@$$CBV?$basic_string@DU?$char_traits@D@std@@V?$allocator@D@2@@std@@VValue@Json@VA@@@std@@@2@$0A@@std@@@std@@@std@@QAEPAU_Node@?$_Tree_nod@V?$_Tmap_traits@V?$basic_string@DU?$char_traits@D@std@@V?$allocator@D@2@@std@@VValue@Json@VA@@U?$less@V?$basic_string@DU?$char_traits@D@std@@V?$allocator@D@2@@std@@@2@V?$allocator@U?$pair@$$CBV?$basic_string@DU?$char_traits@D@std@@V?$allocator@D@2@@std@@VValue@Json@VA@@@std@@@2@$0A@@std@@@2@I@Z 100f8bb0 f i Grm.obj
 0002:00049be0       ?destroy@?$allocator@U_Node@?$_Tree_nod@V?$_Tmap_traits@V?$basic_string@DU?$char_traits@D@std@@V?$allocator@D@2@@std@@VValue@Json@VA@@U?$less@V?$basic_string@DU?$char_traits@D@std@@V?$allocator@D@2@@std@@@2@V?$allocator@U?$pair@$$CBV?$basic_string@DU?$char_traits@D@std@@V?$allocator@D@2@@std@@VValue@Json@VA@@@std@@@2@$0A@@std@@@std@@@std@@QAEXPAU_Node@?$_Tree_nod@V?$_Tmap_traits@V?$basic_string@DU?$char_traits@D@std@@V?$allocator@D@2@@std@@VValue@Json@VA@@U?$less@V?$basic_string@DU?$char_traits@D@std@@V?$allocator@D@2@@std@@@2@V?$allocator@U?$pair@$$CBV?$basic_string@DU?$char_traits@D@std@@V?$allocator@D@2@@std@@VValue@Json@VA@@@std@@@2@$0A@@std@@@2@@Z 100f8be0 f i Grm.obj
 0002:00049c10       ?construct@?$allocator@PAU_Node@?$_Tree_nod@V?$_Tmap_traits@V?$basic_string@DU?$char_traits@D@std@@V?$allocator@D@2@@std@@VValue@Json@VA@@U?$less@V?$basic_string@DU?$char_traits@D@std@@V?$allocator@D@2@@std@@@2@V?$allocator@U?$pair@$$CBV?$basic_string@DU?$char_traits@D@std@@V?$allocator@D@2@@std@@VValue@Json@VA@@@std@@@2@$0A@@std@@@std@@@std@@QAEXPAPAU_Node@?$_Tree_nod@V?$_Tmap_traits@V?$basic_string@DU?$char_traits@D@std@@V?$allocator@D@2@@std@@VValue@Json@VA@@U?$less@V?$basic_string@DU?$char_traits@D@std@@V?$allocator@D@2@@std@@@2@V?$allocator@U?$pair@$$CBV?$basic_string@DU?$char_traits@D@std@@V?$allocator@D@2@@std@@VValue@Json@VA@@@std@@@2@$0A@@std@@@2@ABQAU342@@Z 100f8c10 f i Grm.obj
 0002:00049c40       ??0const_iterator@?$_Tree@V?$_Tmap_traits@V?$basic_string@DU?$char_traits@D@std@@V?$allocator@D@2@@std@@VValue@Json@VA@@U?$less@V?$basic_string@DU?$char_traits@D@std@@V?$allocator@D@2@@std@@@2@V?$allocator@U?$pair@$$CBV?$basic_string@DU?$char_traits@D@std@@V?$allocator@D@2@@std@@VValue@Json@VA@@@std@@@2@$0A@@std@@@std@@QAE@PAU_Node@?$_Tree_nod@V?$_Tmap_traits@V?$basic_string@DU?$char_traits@D@std@@V?$allocator@D@2@@std@@VValue@Json@VA@@U?$less@V?$basic_string@DU?$char_traits@D@std@@V?$allocator@D@2@@std@@@2@V?$allocator@U?$pair@$$CBV?$basic_string@DU?$char_traits@D@std@@V?$allocator@D@2@@std@@VValue@Json@VA@@@std@@@2@$0A@@std@@@2@PBV12@@Z 100f8c40 f i Grm.obj
 0002:00049ca0       ??Econst_iterator@?$_Tree@V?$_Tmap_traits@V?$basic_string@DU?$char_traits@D@std@@V?$allocator@D@2@@std@@VValue@Json@VA@@U?$less@V?$basic_string@DU?$char_traits@D@std@@V?$allocator@D@2@@std@@@2@V?$allocator@U?$pair@$$CBV?$basic_string@DU?$char_traits@D@std@@V?$allocator@D@2@@std@@VValue@Json@VA@@@std@@@2@$0A@@std@@@std@@QAEAAV012@XZ 100f8ca0 f i Grm.obj
 0002:00049cd0       ?_Mynode@const_iterator@?$_Tree@V?$_Tmap_traits@V?$basic_string@DU?$char_traits@D@std@@V?$allocator@D@2@@std@@VValue@Json@VA@@U?$less@V?$basic_string@DU?$char_traits@D@std@@V?$allocator@D@2@@std@@@2@V?$allocator@U?$pair@$$CBV?$basic_string@DU?$char_traits@D@std@@V?$allocator@D@2@@std@@VValue@Json@VA@@@std@@@2@$0A@@std@@@std@@QBEPAU_Node@?$_Tree_nod@V?$_Tmap_traits@V?$basic_string@DU?$char_traits@D@std@@V?$allocator@D@2@@std@@VValue@Json@VA@@U?$less@V?$basic_string@DU?$char_traits@D@std@@V?$allocator@D@2@@std@@@2@V?$allocator@U?$pair@$$CBV?$basic_string@DU?$char_traits@D@std@@V?$allocator@D@2@@std@@VValue@Json@VA@@@std@@@2@$0A@@std@@@3@XZ 100f8cd0 f i Grm.obj
 0002:00049cf0       ??0?$_Deque_const_iterator@V?$basic_string@DU?$char_traits@D@std@@V?$allocator@D@2@@std@@V?$allocator@V?$basic_string@DU?$char_traits@D@std@@V?$allocator@D@2@@std@@@2@$00@std@@QAE@IPBV_Container_base_aux@1@@Z 100f8cf0 f i Grm.obj
 0002:00049d80       ??0_Node@?$_Tree_nod@V?$_Tmap_traits@V?$basic_string@DU?$char_traits@D@std@@V?$allocator@D@2@@std@@HU?$less@V?$basic_string@DU?$char_traits@D@std@@V?$allocator@D@2@@std@@@2@V?$allocator@U?$pair@$$CBV?$basic_string@DU?$char_traits@D@std@@V?$allocator@D@2@@std@@H@std@@@2@$0A@@std@@@std@@QAE@PAU012@00ABU?$pair@$$CBV?$basic_string@DU?$char_traits@D@std@@V?$allocator@D@2@@std@@H@2@D@Z 100f8d80 f i Grm.obj
 0002:00049df0       ??0?$pair@$$CBV?$basic_string@DU?$char_traits@D@std@@V?$allocator@D@2@@std@@H@std@@QAE@ABU01@@Z 100f8df0 f i Grm.obj
 0002:00049e30       ??0?$_Tmap_traits@V?$basic_string@DU?$char_traits@D@std@@V?$allocator@D@2@@std@@HU?$less@V?$basic_string@DU?$char_traits@D@std@@V?$allocator@D@2@@std@@@2@V?$allocator@U?$pair@$$CBV?$basic_string@DU?$char_traits@D@std@@V?$allocator@D@2@@std@@H@std@@@2@$0A@@std@@QAE@U?$less@V?$basic_string@DU?$char_traits@D@std@@V?$allocator@D@2@@std@@@1@V?$allocator@U?$pair@$$CBV?$basic_string@DU?$char_traits@D@std@@V?$allocator@D@2@@std@@H@std@@@1@@Z 100f8e30 f i Grm.obj
 0002:00049e70       ??0?$_Tmap_traits@V?$basic_string@DU?$char_traits@D@std@@V?$allocator@D@2@@std@@VDictConstructor@VA@@U?$less@V?$basic_string@DU?$char_traits@D@std@@V?$allocator@D@2@@std@@@2@V?$allocator@U?$pair@$$CBV?$basic_string@DU?$char_traits@D@std@@V?$allocator@D@2@@std@@VDictConstructor@VA@@@std@@@2@$0A@@std@@QAE@U?$less@V?$basic_string@DU?$char_traits@D@std@@V?$allocator@D@2@@std@@@1@V?$allocator@U?$pair@$$CBV?$basic_string@DU?$char_traits@D@std@@V?$allocator@D@2@@std@@VDictConstructor@VA@@@std@@@1@@Z 100f8e70 f i Grm.obj
 0002:00049eb0       ??0?$_Tmap_traits@V?$basic_string@DU?$char_traits@D@std@@V?$allocator@D@2@@std@@VValue@Json@VA@@U?$less@V?$basic_string@DU?$char_traits@D@std@@V?$allocator@D@2@@std@@@2@V?$allocator@U?$pair@$$CBV?$basic_string@DU?$char_traits@D@std@@V?$allocator@D@2@@std@@VValue@Json@VA@@@std@@@2@$0A@@std@@QAE@U?$less@V?$basic_string@DU?$char_traits@D@std@@V?$allocator@D@2@@std@@@1@V?$allocator@U?$pair@$$CBV?$basic_string@DU?$char_traits@D@std@@V?$allocator@D@2@@std@@VValue@Json@VA@@@std@@@1@@Z 100f8eb0 f i Grm.obj
 0002:00049ef0       ?_Inc@const_iterator@?$_Tree@V?$_Tmap_traits@V?$basic_string@DU?$char_traits@D@std@@V?$allocator@D@2@@std@@VValue@Json@VA@@U?$less@V?$basic_string@DU?$char_traits@D@std@@V?$allocator@D@2@@std@@@2@V?$allocator@U?$pair@$$CBV?$basic_string@DU?$char_traits@D@std@@V?$allocator@D@2@@std@@VValue@Json@VA@@@std@@@2@$0A@@std@@@std@@QAEXXZ 100f8ef0 f i Grm.obj
 0002:0004a010       ??0?$_Container_base_aux_alloc_real@V?$allocator@U?$pair@$$CBV?$basic_string@DU?$char_traits@D@std@@V?$allocator@D@2@@std@@H@std@@@std@@@std@@IAE@V?$allocator@U?$pair@$$CBV?$basic_string@DU?$char_traits@D@std@@V?$allocator@D@2@@std@@H@std@@@1@@Z 100f9010 f i Grm.obj
 0002:0004a100       ??0?$_Container_base_aux_alloc_real@V?$allocator@U?$pair@$$CBV?$basic_string@DU?$char_traits@D@std@@V?$allocator@D@2@@std@@VDictConstructor@VA@@@std@@@std@@@std@@IAE@V?$allocator@U?$pair@$$CBV?$basic_string@DU?$char_traits@D@std@@V?$allocator@D@2@@std@@VDictConstructor@VA@@@std@@@1@@Z 100f9100 f i Grm.obj
 0002:0004a1f0       ??0?$_Container_base_aux_alloc_real@V?$allocator@U?$pair@$$CBV?$basic_string@DU?$char_traits@D@std@@V?$allocator@D@2@@std@@VValue@Json@VA@@@std@@@std@@@std@@IAE@V?$allocator@U?$pair@$$CBV?$basic_string@DU?$char_traits@D@std@@V?$allocator@D@2@@std@@VValue@Json@VA@@@std@@@1@@Z 100f91f0 f i Grm.obj
 0002:0004a2e0       ??$make_pair@PBDVDictConstructor@VA@@@std@@YA?AU?$pair@PBDVDictConstructor@VA@@@0@PBDVDictConstructor@VA@@@Z 100f92e0 f i Grm.obj
 0002:0004a370       ??$?0PBDVDictConstructor@VA@@@?$pair@$$CBV?$basic_string@DU?$char_traits@D@std@@V?$allocator@D@2@@std@@VDictConstructor@VA@@@std@@QAE@ABU?$pair@PBDVDictConstructor@VA@@@1@@Z 100f9370 f i Grm.obj
 0002:0004a400       ??$_Distance@Vconst_iterator@?$_Tree@V?$_Tmap_traits@V?$basic_string@DU?$char_traits@D@std@@V?$allocator@D@2@@std@@VDictConstructor@VA@@U?$less@V?$basic_string@DU?$char_traits@D@std@@V?$allocator@D@2@@std@@@2@V?$allocator@U?$pair@$$CBV?$basic_string@DU?$char_traits@D@std@@V?$allocator@D@2@@std@@VDictConstructor@VA@@@std@@@2@$0A@@std@@@std@@I@std@@YAXVconst_iterator@?$_Tree@V?$_Tmap_traits@V?$basic_string@DU?$char_traits@D@std@@V?$allocator@D@2@@std@@VDictConstructor@VA@@U?$less@V?$basic_string@DU?$char_traits@D@std@@V?$allocator@D@2@@std@@@2@V?$allocator@U?$pair@$$CBV?$basic_string@DU?$char_traits@D@std@@V?$allocator@D@2@@std@@VDictConstructor@VA@@@std@@@2@$0A@@std@@@0@0AAI@Z 100f9400 f i Grm.obj
 0002:0004a450       ??$_Destroy@PAU_Node@?$_Tree_nod@V?$_Tmap_traits@V?$basic_string@DU?$char_traits@D@std@@V?$allocator@D@2@@std@@HU?$less@V?$basic_string@DU?$char_traits@D@std@@V?$allocator@D@2@@std@@@2@V?$allocator@U?$pair@$$CBV?$basic_string@DU?$char_traits@D@std@@V?$allocator@D@2@@std@@H@std@@@2@$0A@@std@@@std@@@std@@YAXPAPAU_Node@?$_Tree_nod@V?$_Tmap_traits@V?$basic_string@DU?$char_traits@D@std@@V?$allocator@D@2@@std@@HU?$less@V?$basic_string@DU?$char_traits@D@std@@V?$allocator@D@2@@std@@@2@V?$allocator@U?$pair@$$CBV?$basic_string@DU?$char_traits@D@std@@V?$allocator@D@2@@std@@H@std@@@2@$0A@@std@@@0@@Z 100f9450 f i Grm.obj
 0002:0004a470       ??$_Destroy@PAU_Node@?$_Tree_nod@V?$_Tmap_traits@V?$basic_string@DU?$char_traits@D@std@@V?$allocator@D@2@@std@@VDictConstructor@VA@@U?$less@V?$basic_string@DU?$char_traits@D@std@@V?$allocator@D@2@@std@@@2@V?$allocator@U?$pair@$$CBV?$basic_string@DU?$char_traits@D@std@@V?$allocator@D@2@@std@@VDictConstructor@VA@@@std@@@2@$0A@@std@@@std@@@std@@YAXPAPAU_Node@?$_Tree_nod@V?$_Tmap_traits@V?$basic_string@DU?$char_traits@D@std@@V?$allocator@D@2@@std@@VDictConstructor@VA@@U?$less@V?$basic_string@DU?$char_traits@D@std@@V?$allocator@D@2@@std@@@2@V?$allocator@U?$pair@$$CBV?$basic_string@DU?$char_traits@D@std@@V?$allocator@D@2@@std@@VDictConstructor@VA@@@std@@@2@$0A@@std@@@0@@Z 100f9470 f i Grm.obj
 0002:0004a490       ??$unchecked_uninitialized_copy@PAPAV?$basic_string@DU?$char_traits@D@std@@V?$allocator@D@2@@std@@PAPAV12@V?$allocator@PAV?$basic_string@DU?$char_traits@D@std@@V?$allocator@D@2@@std@@@2@@stdext@@YAPAPAV?$basic_string@DU?$char_traits@D@std@@V?$allocator@D@2@@std@@PAPAV12@00AAV?$allocator@PAV?$basic_string@DU?$char_traits@D@std@@V?$allocator@D@2@@std@@@2@@Z 100f9490 f i Grm.obj
 0002:0004a510       ??$unchecked_uninitialized_fill_n@PAPAV?$basic_string@DU?$char_traits@D@std@@V?$allocator@D@2@@std@@IPAV12@V?$allocator@PAV?$basic_string@DU?$char_traits@D@std@@V?$allocator@D@2@@std@@@2@@stdext@@YAXPAPAV?$basic_string@DU?$char_traits@D@std@@V?$allocator@D@2@@std@@IABQAV12@AAV?$allocator@PAV?$basic_string@DU?$char_traits@D@std@@V?$allocator@D@2@@std@@@2@@Z 100f9510 f i Grm.obj
 0002:0004a570       ??$_Destroy_range@V?$allocator@PAV?$basic_string@DU?$char_traits@D@std@@V?$allocator@D@2@@std@@@std@@@std@@YAXPAPAV?$basic_string@DU?$char_traits@D@std@@V?$allocator@D@2@@0@0AAV?$allocator@PAV?$basic_string@DU?$char_traits@D@std@@V?$allocator@D@2@@std@@@0@@Z 100f9570 f i Grm.obj
 0002:0004a5c0       ??$_Destroy@PAV?$basic_string@DU?$char_traits@D@std@@V?$allocator@D@2@@std@@@std@@YAXPAPAV?$basic_string@DU?$char_traits@D@std@@V?$allocator@D@2@@0@@Z 100f95c0 f i Grm.obj
 0002:0004a5e0       ??$_Destroy@PAU_Node@?$_Tree_nod@V?$_Tmap_traits@V?$basic_string@DU?$char_traits@D@std@@V?$allocator@D@2@@std@@VValue@Json@VA@@U?$less@V?$basic_string@DU?$char_traits@D@std@@V?$allocator@D@2@@std@@@2@V?$allocator@U?$pair@$$CBV?$basic_string@DU?$char_traits@D@std@@V?$allocator@D@2@@std@@VValue@Json@VA@@@std@@@2@$0A@@std@@@std@@@std@@YAXPAPAU_Node@?$_Tree_nod@V?$_Tmap_traits@V?$basic_string@DU?$char_traits@D@std@@V?$allocator@D@2@@std@@VValue@Json@VA@@U?$less@V?$basic_string@DU?$char_traits@D@std@@V?$allocator@D@2@@std@@@2@V?$allocator@U?$pair@$$CBV?$basic_string@DU?$char_traits@D@std@@V?$allocator@D@2@@std@@VValue@Json@VA@@@std@@@2@$0A@@std@@@0@@Z 100f95e0 f i Grm.obj
 0002:0004a600       ??$?0U?$pair@$$CBV?$basic_string@DU?$char_traits@D@std@@V?$allocator@D@2@@std@@H@std@@@?$allocator@PAU_Node@?$_Tree_nod@V?$_Tmap_traits@V?$basic_string@DU?$char_traits@D@std@@V?$allocator@D@2@@std@@HU?$less@V?$basic_string@DU?$char_traits@D@std@@V?$allocator@D@2@@std@@@2@V?$allocator@U?$pair@$$CBV?$basic_string@DU?$char_traits@D@std@@V?$allocator@D@2@@std@@H@std@@@2@$0A@@std@@@std@@@std@@QAE@ABV?$allocator@U?$pair@$$CBV?$basic_string@DU?$char_traits@D@std@@V?$allocator@D@2@@std@@H@std@@@1@@Z 100f9600 f i Grm.obj
 0002:0004a620       ??$?0U?$pair@$$CBV?$basic_string@DU?$char_traits@D@std@@V?$allocator@D@2@@std@@VDictConstructor@VA@@@std@@@?$allocator@PAU_Node@?$_Tree_nod@V?$_Tmap_traits@V?$basic_string@DU?$char_traits@D@std@@V?$allocator@D@2@@std@@VDictConstructor@VA@@U?$less@V?$basic_string@DU?$char_traits@D@std@@V?$allocator@D@2@@std@@@2@V?$allocator@U?$pair@$$CBV?$basic_string@DU?$char_traits@D@std@@V?$allocator@D@2@@std@@VDictConstructor@VA@@@std@@@2@$0A@@std@@@std@@@std@@QAE@ABV?$allocator@U?$pair@$$CBV?$basic_string@DU?$char_traits@D@std@@V?$allocator@D@2@@std@@VDictConstructor@VA@@@std@@@1@@Z 100f9620 f i Grm.obj
 0002:0004a640       ??$_Allocate@U_Node@?$_Tree_nod@V?$_Tmap_traits@V?$basic_string@DU?$char_traits@D@std@@V?$allocator@D@2@@std@@VDictConstructor@VA@@U?$less@V?$basic_string@DU?$char_traits@D@std@@V?$allocator@D@2@@std@@@2@V?$allocator@U?$pair@$$CBV?$basic_string@DU?$char_traits@D@std@@V?$allocator@D@2@@std@@VDictConstructor@VA@@@std@@@2@$0A@@std@@@std@@@std@@YAPAU_Node@?$_Tree_nod@V?$_Tmap_traits@V?$basic_string@DU?$char_traits@D@std@@V?$allocator@D@2@@std@@VDictConstructor@VA@@U?$less@V?$basic_string@DU?$char_traits@D@std@@V?$allocator@D@2@@std@@@2@V?$allocator@U?$pair@$$CBV?$basic_string@DU?$char_traits@D@std@@V?$allocator@D@2@@std@@VDictConstructor@VA@@@std@@@2@$0A@@std@@@0@IPAU120@@Z 100f9640 f i Grm.obj
 0002:0004a6b0       ??$?0V?$basic_string@DU?$char_traits@D@std@@V?$allocator@D@2@@std@@@?$allocator@PAV?$basic_string@DU?$char_traits@D@std@@V?$allocator@D@2@@std@@@std@@QAE@ABV?$allocator@V?$basic_string@DU?$char_traits@D@std@@V?$allocator@D@2@@std@@@1@@Z 100f96b0 f i Grm.obj
 0002:0004a6d0       ??$_Allocate@PAV?$basic_string@DU?$char_traits@D@std@@V?$allocator@D@2@@std@@@std@@YAPAPAV?$basic_string@DU?$char_traits@D@std@@V?$allocator@D@2@@0@IPAPAV10@@Z 100f96d0 f i Grm.obj
 0002:0004a740       ??$?0U?$pair@$$CBV?$basic_string@DU?$char_traits@D@std@@V?$allocator@D@2@@std@@VValue@Json@VA@@@std@@@?$allocator@PAU_Node@?$_Tree_nod@V?$_Tmap_traits@V?$basic_string@DU?$char_traits@D@std@@V?$allocator@D@2@@std@@VValue@Json@VA@@U?$less@V?$basic_string@DU?$char_traits@D@std@@V?$allocator@D@2@@std@@@2@V?$allocator@U?$pair@$$CBV?$basic_string@DU?$char_traits@D@std@@V?$allocator@D@2@@std@@VValue@Json@VA@@@std@@@2@$0A@@std@@@std@@@std@@QAE@ABV?$allocator@U?$pair@$$CBV?$basic_string@DU?$char_traits@D@std@@V?$allocator@D@2@@std@@VValue@Json@VA@@@std@@@1@@Z 100f9740 f i Grm.obj
 0002:0004a760       ??$?0U?$pair@$$CBV?$basic_string@DU?$char_traits@D@std@@V?$allocator@D@2@@std@@H@std@@@?$allocator@U_Node@?$_Tree_nod@V?$_Tmap_traits@V?$basic_string@DU?$char_traits@D@std@@V?$allocator@D@2@@std@@HU?$less@V?$basic_string@DU?$char_traits@D@std@@V?$allocator@D@2@@std@@@2@V?$allocator@U?$pair@$$CBV?$basic_string@DU?$char_traits@D@std@@V?$allocator@D@2@@std@@H@std@@@2@$0A@@std@@@std@@@std@@QAE@ABV?$allocator@U?$pair@$$CBV?$basic_string@DU?$char_traits@D@std@@V?$allocator@D@2@@std@@H@std@@@1@@Z 100f9760 f i Grm.obj
 0002:0004a780       ??$_Allocate@U_Node@?$_Tree_nod@V?$_Tmap_traits@V?$basic_string@DU?$char_traits@D@std@@V?$allocator@D@2@@std@@HU?$less@V?$basic_string@DU?$char_traits@D@std@@V?$allocator@D@2@@std@@@2@V?$allocator@U?$pair@$$CBV?$basic_string@DU?$char_traits@D@std@@V?$allocator@D@2@@std@@H@std@@@2@$0A@@std@@@std@@@std@@YAPAU_Node@?$_Tree_nod@V?$_Tmap_traits@V?$basic_string@DU?$char_traits@D@std@@V?$allocator@D@2@@std@@HU?$less@V?$basic_string@DU?$char_traits@D@std@@V?$allocator@D@2@@std@@@2@V?$allocator@U?$pair@$$CBV?$basic_string@DU?$char_traits@D@std@@V?$allocator@D@2@@std@@H@std@@@2@$0A@@std@@@0@IPAU120@@Z 100f9780 f i Grm.obj
 0002:0004a7f0       ??$_Destroy@U_Node@?$_Tree_nod@V?$_Tmap_traits@V?$basic_string@DU?$char_traits@D@std@@V?$allocator@D@2@@std@@HU?$less@V?$basic_string@DU?$char_traits@D@std@@V?$allocator@D@2@@std@@@2@V?$allocator@U?$pair@$$CBV?$basic_string@DU?$char_traits@D@std@@V?$allocator@D@2@@std@@H@std@@@2@$0A@@std@@@std@@@std@@YAXPAU_Node@?$_Tree_nod@V?$_Tmap_traits@V?$basic_string@DU?$char_traits@D@std@@V?$allocator@D@2@@std@@HU?$less@V?$basic_string@DU?$char_traits@D@std@@V?$allocator@D@2@@std@@@2@V?$allocator@U?$pair@$$CBV?$basic_string@DU?$char_traits@D@std@@V?$allocator@D@2@@std@@H@std@@@2@$0A@@std@@@0@@Z 100f97f0 f i Grm.obj
 0002:0004a810       ??$_Construct@PAU_Node@?$_Tree_nod@V?$_Tmap_traits@V?$basic_string@DU?$char_traits@D@std@@V?$allocator@D@2@@std@@HU?$less@V?$basic_string@DU?$char_traits@D@std@@V?$allocator@D@2@@std@@@2@V?$allocator@U?$pair@$$CBV?$basic_string@DU?$char_traits@D@std@@V?$allocator@D@2@@std@@H@std@@@2@$0A@@std@@@std@@PAU123@@std@@YAXPAPAU_Node@?$_Tree_nod@V?$_Tmap_traits@V?$basic_string@DU?$char_traits@D@std@@V?$allocator@D@2@@std@@HU?$less@V?$basic_string@DU?$char_traits@D@std@@V?$allocator@D@2@@std@@@2@V?$allocator@U?$pair@$$CBV?$basic_string@DU?$char_traits@D@std@@V?$allocator@D@2@@std@@H@std@@@2@$0A@@std@@@0@ABQAU120@@Z 100f9810 f i Grm.obj
 0002:0004a870       ??$?0U?$pair@$$CBV?$basic_string@DU?$char_traits@D@std@@V?$allocator@D@2@@std@@VDictConstructor@VA@@@std@@@?$allocator@U_Node@?$_Tree_nod@V?$_Tmap_traits@V?$basic_string@DU?$char_traits@D@std@@V?$allocator@D@2@@std@@VDictConstructor@VA@@U?$less@V?$basic_string@DU?$char_traits@D@std@@V?$allocator@D@2@@std@@@2@V?$allocator@U?$pair@$$CBV?$basic_string@DU?$char_traits@D@std@@V?$allocator@D@2@@std@@VDictConstructor@VA@@@std@@@2@$0A@@std@@@std@@@std@@QAE@ABV?$allocator@U?$pair@$$CBV?$basic_string@DU?$char_traits@D@std@@V?$allocator@D@2@@std@@VDictConstructor@VA@@@std@@@1@@Z 100f9870 f i Grm.obj
 0002:0004a890       ??$_Destroy@U_Node@?$_Tree_nod@V?$_Tmap_traits@V?$basic_string@DU?$char_traits@D@std@@V?$allocator@D@2@@std@@VDictConstructor@VA@@U?$less@V?$basic_string@DU?$char_traits@D@std@@V?$allocator@D@2@@std@@@2@V?$allocator@U?$pair@$$CBV?$basic_string@DU?$char_traits@D@std@@V?$allocator@D@2@@std@@VDictConstructor@VA@@@std@@@2@$0A@@std@@@std@@@std@@YAXPAU_Node@?$_Tree_nod@V?$_Tmap_traits@V?$basic_string@DU?$char_traits@D@std@@V?$allocator@D@2@@std@@VDictConstructor@VA@@U?$less@V?$basic_string@DU?$char_traits@D@std@@V?$allocator@D@2@@std@@@2@V?$allocator@U?$pair@$$CBV?$basic_string@DU?$char_traits@D@std@@V?$allocator@D@2@@std@@VDictConstructor@VA@@@std@@@2@$0A@@std@@@0@@Z 100f9890 f i Grm.obj
 0002:0004a8b0       ??$_Construct@PAU_Node@?$_Tree_nod@V?$_Tmap_traits@V?$basic_string@DU?$char_traits@D@std@@V?$allocator@D@2@@std@@VDictConstructor@VA@@U?$less@V?$basic_string@DU?$char_traits@D@std@@V?$allocator@D@2@@std@@@2@V?$allocator@U?$pair@$$CBV?$basic_string@DU?$char_traits@D@std@@V?$allocator@D@2@@std@@VDictConstructor@VA@@@std@@@2@$0A@@std@@@std@@PAU123@@std@@YAXPAPAU_Node@?$_Tree_nod@V?$_Tmap_traits@V?$basic_string@DU?$char_traits@D@std@@V?$allocator@D@2@@std@@VDictConstructor@VA@@U?$less@V?$basic_string@DU?$char_traits@D@std@@V?$allocator@D@2@@std@@@2@V?$allocator@U?$pair@$$CBV?$basic_string@DU?$char_traits@D@std@@V?$allocator@D@2@@std@@VDictConstructor@VA@@@std@@@2@$0A@@std@@@0@ABQAU120@@Z 100f98b0 f i Grm.obj
 0002:0004a910       ??$?0U?$pair@$$CBV?$basic_string@DU?$char_traits@D@std@@V?$allocator@D@2@@std@@VValue@Json@VA@@@std@@@?$allocator@U_Node@?$_Tree_nod@V?$_Tmap_traits@V?$basic_string@DU?$char_traits@D@std@@V?$allocator@D@2@@std@@VValue@Json@VA@@U?$less@V?$basic_string@DU?$char_traits@D@std@@V?$allocator@D@2@@std@@@2@V?$allocator@U?$pair@$$CBV?$basic_string@DU?$char_traits@D@std@@V?$allocator@D@2@@std@@VValue@Json@VA@@@std@@@2@$0A@@std@@@std@@@std@@QAE@ABV?$allocator@U?$pair@$$CBV?$basic_string@DU?$char_traits@D@std@@V?$allocator@D@2@@std@@VValue@Json@VA@@@std@@@1@@Z 100f9910 f i Grm.obj
 0002:0004a930       ??$_Allocate@U_Node@?$_Tree_nod@V?$_Tmap_traits@V?$basic_string@DU?$char_traits@D@std@@V?$allocator@D@2@@std@@VValue@Json@VA@@U?$less@V?$basic_string@DU?$char_traits@D@std@@V?$allocator@D@2@@std@@@2@V?$allocator@U?$pair@$$CBV?$basic_string@DU?$char_traits@D@std@@V?$allocator@D@2@@std@@VValue@Json@VA@@@std@@@2@$0A@@std@@@std@@@std@@YAPAU_Node@?$_Tree_nod@V?$_Tmap_traits@V?$basic_string@DU?$char_traits@D@std@@V?$allocator@D@2@@std@@VValue@Json@VA@@U?$less@V?$basic_string@DU?$char_traits@D@std@@V?$allocator@D@2@@std@@@2@V?$allocator@U?$pair@$$CBV?$basic_string@DU?$char_traits@D@std@@V?$allocator@D@2@@std@@VValue@Json@VA@@@std@@@2@$0A@@std@@@0@IPAU120@@Z 100f9930 f i Grm.obj
 0002:0004a9a0       ??$_Destroy@U_Node@?$_Tree_nod@V?$_Tmap_traits@V?$basic_string@DU?$char_traits@D@std@@V?$allocator@D@2@@std@@VValue@Json@VA@@U?$less@V?$basic_string@DU?$char_traits@D@std@@V?$allocator@D@2@@std@@@2@V?$allocator@U?$pair@$$CBV?$basic_string@DU?$char_traits@D@std@@V?$allocator@D@2@@std@@VValue@Json@VA@@@std@@@2@$0A@@std@@@std@@@std@@YAXPAU_Node@?$_Tree_nod@V?$_Tmap_traits@V?$basic_string@DU?$char_traits@D@std@@V?$allocator@D@2@@std@@VValue@Json@VA@@U?$less@V?$basic_string@DU?$char_traits@D@std@@V?$allocator@D@2@@std@@@2@V?$allocator@U?$pair@$$CBV?$basic_string@DU?$char_traits@D@std@@V?$allocator@D@2@@std@@VValue@Json@VA@@@std@@@2@$0A@@std@@@0@@Z 100f99a0 f i Grm.obj
 0002:0004a9c0       ??$_Construct@PAU_Node@?$_Tree_nod@V?$_Tmap_traits@V?$basic_string@DU?$char_traits@D@std@@V?$allocator@D@2@@std@@VValue@Json@VA@@U?$less@V?$basic_string@DU?$char_traits@D@std@@V?$allocator@D@2@@std@@@2@V?$allocator@U?$pair@$$CBV?$basic_string@DU?$char_traits@D@std@@V?$allocator@D@2@@std@@VValue@Json@VA@@@std@@@2@$0A@@std@@@std@@PAU123@@std@@YAXPAPAU_Node@?$_Tree_nod@V?$_Tmap_traits@V?$basic_string@DU?$char_traits@D@std@@V?$allocator@D@2@@std@@VValue@Json@VA@@U?$less@V?$basic_string@DU?$char_traits@D@std@@V?$allocator@D@2@@std@@@2@V?$allocator@U?$pair@$$CBV?$basic_string@DU?$char_traits@D@std@@V?$allocator@D@2@@std@@VValue@Json@VA@@@std@@@2@$0A@@std@@@0@ABQAU120@@Z 100f99c0 f i Grm.obj
 0002:0004aa20       ??$?0U?$pair@$$CBV?$basic_string@DU?$char_traits@D@std@@V?$allocator@D@2@@std@@H@std@@@?$allocator@V_Aux_cont@std@@@std@@QAE@ABV?$allocator@U?$pair@$$CBV?$basic_string@DU?$char_traits@D@std@@V?$allocator@D@2@@std@@H@std@@@1@@Z 100f9a20 f i Grm.obj
 0002:0004aa40       ??$?0U?$pair@$$CBV?$basic_string@DU?$char_traits@D@std@@V?$allocator@D@2@@std@@VDictConstructor@VA@@@std@@@?$allocator@V_Aux_cont@std@@@std@@QAE@ABV?$allocator@U?$pair@$$CBV?$basic_string@DU?$char_traits@D@std@@V?$allocator@D@2@@std@@VDictConstructor@VA@@@std@@@1@@Z 100f9a40 f i Grm.obj
 0002:0004aa60       ??$?0U?$pair@$$CBV?$basic_string@DU?$char_traits@D@std@@V?$allocator@D@2@@std@@VValue@Json@VA@@@std@@@?$allocator@V_Aux_cont@std@@@std@@QAE@ABV?$allocator@U?$pair@$$CBV?$basic_string@DU?$char_traits@D@std@@V?$allocator@D@2@@std@@VValue@Json@VA@@@std@@@1@@Z 100f9a60 f i Grm.obj
 0002:0004aa80       ??_G_Node@?$_Tree_nod@V?$_Tmap_traits@V?$basic_string@DU?$char_traits@D@std@@V?$allocator@D@2@@std@@HU?$less@V?$basic_string@DU?$char_traits@D@std@@V?$allocator@D@2@@std@@@2@V?$allocator@U?$pair@$$CBV?$basic_string@DU?$char_traits@D@std@@V?$allocator@D@2@@std@@H@std@@@2@$0A@@std@@@std@@QAEPAXI@Z 100f9a80 f i Grm.obj
 0002:0004aad0       ??_G_Node@?$_Tree_nod@V?$_Tmap_traits@V?$basic_string@DU?$char_traits@D@std@@V?$allocator@D@2@@std@@VDictConstructor@VA@@U?$less@V?$basic_string@DU?$char_traits@D@std@@V?$allocator@D@2@@std@@@2@V?$allocator@U?$pair@$$CBV?$basic_string@DU?$char_traits@D@std@@V?$allocator@D@2@@std@@VDictConstructor@VA@@@std@@@2@$0A@@std@@@std@@QAEPAXI@Z 100f9ad0 f i Grm.obj
 0002:0004ab20       ??_G_Node@?$_Tree_nod@V?$_Tmap_traits@V?$basic_string@DU?$char_traits@D@std@@V?$allocator@D@2@@std@@VValue@Json@VA@@U?$less@V?$basic_string@DU?$char_traits@D@std@@V?$allocator@D@2@@std@@@2@V?$allocator@U?$pair@$$CBV?$basic_string@DU?$char_traits@D@std@@V?$allocator@D@2@@std@@VValue@Json@VA@@@std@@@2@$0A@@std@@@std@@QAEPAXI@Z 100f9b20 f i Grm.obj
 0002:0004ab70       ??1_Node@?$_Tree_nod@V?$_Tmap_traits@V?$basic_string@DU?$char_traits@D@std@@V?$allocator@D@2@@std@@HU?$less@V?$basic_string@DU?$char_traits@D@std@@V?$allocator@D@2@@std@@@2@V?$allocator@U?$pair@$$CBV?$basic_string@DU?$char_traits@D@std@@V?$allocator@D@2@@std@@H@std@@@2@$0A@@std@@@std@@QAE@XZ 100f9b70 f i Grm.obj
 0002:0004aba0       ??1_Node@?$_Tree_nod@V?$_Tmap_traits@V?$basic_string@DU?$char_traits@D@std@@V?$allocator@D@2@@std@@VDictConstructor@VA@@U?$less@V?$basic_string@DU?$char_traits@D@std@@V?$allocator@D@2@@std@@@2@V?$allocator@U?$pair@$$CBV?$basic_string@DU?$char_traits@D@std@@V?$allocator@D@2@@std@@VDictConstructor@VA@@@std@@@2@$0A@@std@@@std@@QAE@XZ 100f9ba0 f i Grm.obj
 0002:0004abd0       ??1_Node@?$_Tree_nod@V?$_Tmap_traits@V?$basic_string@DU?$char_traits@D@std@@V?$allocator@D@2@@std@@VValue@Json@VA@@U?$less@V?$basic_string@DU?$char_traits@D@std@@V?$allocator@D@2@@std@@@2@V?$allocator@U?$pair@$$CBV?$basic_string@DU?$char_traits@D@std@@V?$allocator@D@2@@std@@VValue@Json@VA@@@std@@@2@$0A@@std@@@std@@QAE@XZ 100f9bd0 f i Grm.obj
 0002:0004ac00       ??1?$pair@$$CBV?$basic_string@DU?$char_traits@D@std@@V?$allocator@D@2@@std@@VValue@Json@VA@@@std@@QAE@XZ 100f9c00 f i Grm.obj
 0002:0004ac80       ??0?$pair@PBDVDictConstructor@VA@@@std@@QAE@ABQBDABVDictConstructor@VA@@@Z 100f9c80 f i Grm.obj
 0002:0004acc0       ??$_Iter_cat@Vconst_iterator@?$_Tree@V?$_Tmap_traits@V?$basic_string@DU?$char_traits@D@std@@V?$allocator@D@2@@std@@VDictConstructor@VA@@U?$less@V?$basic_string@DU?$char_traits@D@std@@V?$allocator@D@2@@std@@@2@V?$allocator@U?$pair@$$CBV?$basic_string@DU?$char_traits@D@std@@V?$allocator@D@2@@std@@VDictConstructor@VA@@@std@@@2@$0A@@std@@@std@@@std@@YA?AUbidirectional_iterator_tag@0@ABVconst_iterator@?$_Tree@V?$_Tmap_traits@V?$basic_string@DU?$char_traits@D@std@@V?$allocator@D@2@@std@@VDictConstructor@VA@@U?$less@V?$basic_string@DU?$char_traits@D@std@@V?$allocator@D@2@@std@@@2@V?$allocator@U?$pair@$$CBV?$basic_string@DU?$char_traits@D@std@@V?$allocator@D@2@@std@@VDictConstructor@VA@@@std@@@2@$0A@@std@@@0@@Z 100f9cc0 f i Grm.obj
 0002:0004ace0       ??$_Distance2@Vconst_iterator@?$_Tree@V?$_Tmap_traits@V?$basic_string@DU?$char_traits@D@std@@V?$allocator@D@2@@std@@VDictConstructor@VA@@U?$less@V?$basic_string@DU?$char_traits@D@std@@V?$allocator@D@2@@std@@@2@V?$allocator@U?$pair@$$CBV?$basic_string@DU?$char_traits@D@std@@V?$allocator@D@2@@std@@VDictConstructor@VA@@@std@@@2@$0A@@std@@@std@@I@std@@YAXVconst_iterator@?$_Tree@V?$_Tmap_traits@V?$basic_string@DU?$char_traits@D@std@@V?$allocator@D@2@@std@@VDictConstructor@VA@@U?$less@V?$basic_string@DU?$char_traits@D@std@@V?$allocator@D@2@@std@@@2@V?$allocator@U?$pair@$$CBV?$basic_string@DU?$char_traits@D@std@@V?$allocator@D@2@@std@@VDictConstructor@VA@@@std@@@2@$0A@@std@@@0@0AAIUbidirectional_iterator_tag@0@@Z 100f9ce0 f i Grm.obj
 0002:0004ad30       ??$_Checked_base@PAPAV?$basic_string@DU?$char_traits@D@std@@V?$allocator@D@2@@std@@@std@@YAPAPAV?$basic_string@DU?$char_traits@D@std@@V?$allocator@D@2@@0@AAPAPAV10@@Z 100f9d30 f i Grm.obj
 0002:0004ad60       ??$_Ptr_cat@PAPAV?$basic_string@DU?$char_traits@D@std@@V?$allocator@D@2@@std@@PAPAV12@@std@@YA?AU_Scalar_ptr_iterator_tag@0@AAPAPAV?$basic_string@DU?$char_traits@D@std@@V?$allocator@D@2@@0@0@Z 100f9d60 f i Grm.obj
 0002:0004ad80       ??$_Uninit_copy@PAPAV?$basic_string@DU?$char_traits@D@std@@V?$allocator@D@2@@std@@PAPAV12@V?$allocator@PAV?$basic_string@DU?$char_traits@D@std@@V?$allocator@D@2@@std@@@2@@std@@YAPAPAV?$basic_string@DU?$char_traits@D@std@@V?$allocator@D@2@@0@PAPAV10@00AAV?$allocator@PAV?$basic_string@DU?$char_traits@D@std@@V?$allocator@D@2@@std@@@0@U_Scalar_ptr_iterator_tag@0@U_Range_checked_iterator_tag@0@@Z 100f9d80 f i Grm.obj
 0002:0004adf0       ??$_Uninit_fill_n@PAPAV?$basic_string@DU?$char_traits@D@std@@V?$allocator@D@2@@std@@IPAV12@V?$allocator@PAV?$basic_string@DU?$char_traits@D@std@@V?$allocator@D@2@@std@@@2@@std@@YAXPAPAV?$basic_string@DU?$char_traits@D@std@@V?$allocator@D@2@@0@IABQAV10@AAV?$allocator@PAV?$basic_string@DU?$char_traits@D@std@@V?$allocator@D@2@@std@@@0@U_Scalar_ptr_iterator_tag@0@U_Range_checked_iterator_tag@0@@Z 100f9df0 f i Grm.obj
 0002:0004ae20       ??$_Destroy_range@V?$allocator@PAV?$basic_string@DU?$char_traits@D@std@@V?$allocator@D@2@@std@@@std@@@std@@YAXPAPAV?$basic_string@DU?$char_traits@D@std@@V?$allocator@D@2@@0@0AAV?$allocator@PAV?$basic_string@DU?$char_traits@D@std@@V?$allocator@D@2@@std@@@0@U_Scalar_ptr_iterator_tag@0@@Z 100f9e20 f i Grm.obj
 0002:0004ae40       ??$_Checked_base@PAPAV?$basic_string@DU?$char_traits@D@std@@V?$allocator@D@2@@std@@@std@@YAPAPAV?$basic_string@DU?$char_traits@D@std@@V?$allocator@D@2@@0@AAPAPAV10@U_Unchanged_checked_iterator_base_type_tag@0@@Z 100f9e40 f i Grm.obj
 0002:0004ae60       ??$unchecked_fill_n@PAPAV?$basic_string@DU?$char_traits@D@std@@V?$allocator@D@2@@std@@IPAV12@@stdext@@YAXPAPAV?$basic_string@DU?$char_traits@D@std@@V?$allocator@D@2@@std@@IABQAV12@@Z 100f9e60 f i Grm.obj
 0002:0004aec0       ??$_Iter_cat@PAPAV?$basic_string@DU?$char_traits@D@std@@V?$allocator@D@2@@std@@@std@@YA?AUrandom_access_iterator_tag@0@ABQAPAV?$basic_string@DU?$char_traits@D@std@@V?$allocator@D@2@@0@@Z 100f9ec0 f i Grm.obj
 0002:0004aee0       ??$_Fill_n@PAPAV?$basic_string@DU?$char_traits@D@std@@V?$allocator@D@2@@std@@IPAV12@@std@@YAXPAPAV?$basic_string@DU?$char_traits@D@std@@V?$allocator@D@2@@0@IABQAV10@Urandom_access_iterator_tag@0@U_Range_checked_iterator_tag@0@@Z 100f9ee0 f i Grm.obj
 0002:0004af40       ??$_Fill_n@PAPAV?$basic_string@DU?$char_traits@D@std@@V?$allocator@D@2@@std@@IPAV12@@std@@YAXPAPAV?$basic_string@DU?$char_traits@D@std@@V?$allocator@D@2@@0@IABQAV10@U_Range_checked_iterator_tag@0@@Z 100f9f40 f i Grm.obj
 0002:0004af90       ?CBRealloc@InterfaceGrm@VA@@CGPAXPAX0I@Z 100f9f90 f   GrmFunc.obj
 0002:0004b010       ?CBFree@InterfaceGrm@VA@@CGXPAX0@Z 100fa010 f   GrmFunc.obj
 0002:0004b090       ?CBOpenFile@InterfaceGrm@VA@@CGPAXPAXPBCHH@Z 100fa090 f   GrmFunc.obj
 0002:0004b2b0       ?CBCloseFile@InterfaceGrm@VA@@CGHPAX0@Z 100fa2b0 f   GrmFunc.obj
 0002:0004b2e0       ?CBReadFile@InterfaceGrm@VA@@CGHPAX0PAEII@Z 100fa2e0 f   GrmFunc.obj
 0002:0004b380       ?CBWriteFile@InterfaceGrm@VA@@CGHPAX0PBEII@Z 100fa380 f   GrmFunc.obj
 0002:0004b420       ?CBMsgProc@InterfaceGrm@VA@@CGHPAX0IIPBX@Z 100fa420 f   GrmFunc.obj
 0002:0004b440       ??0BuildData@VA@@QAE@XZ    100fa440 f   GrmFunc.obj
 0002:0004b530       ?SetDictContent@BuildData@VA@@QAEXV?$list@V?$basic_string@DU?$char_traits@D@std@@V?$allocator@D@2@@std@@V?$allocator@V?$basic_string@DU?$char_traits@D@std@@V?$allocator@D@2@@std@@@2@@std@@@Z 100fa530 f   GrmFunc.obj
 0002:0004b5b0       ?AddDictContent@BuildData@VA@@QAEXABV?$basic_string@DU?$char_traits@D@std@@V?$allocator@D@2@@std@@@Z 100fa5b0 f   GrmFunc.obj
 0002:0004b5e0       ?GetDictContent@BuildData@VA@@QAEPBV?$list@V?$basic_string@DU?$char_traits@D@std@@V?$allocator@D@2@@std@@V?$allocator@V?$basic_string@DU?$char_traits@D@std@@V?$allocator@D@2@@std@@@2@@std@@XZ 100fa5e0 f   GrmFunc.obj
 0002:0004b600       ?IsLocalSRDataReady@BuildData@VA@@QBE_NXZ 100fa600 f   GrmFunc.obj
 0002:0004b640       ?IsLocalNLUDataReady@BuildData@VA@@QBE_NXZ 100fa640 f   GrmFunc.obj
 0002:0004b680       ??0InterfaceGrm@VA@@QAE@ABV?$basic_string@DU?$char_traits@D@std@@V?$allocator@D@2@@std@@0W4tagISS_SR_ACOUS_LANG@@@Z 100fa680 f   GrmFunc.obj
 0002:0004c0f0       ??_EInterfaceGrm@VA@@UAEPAXI@Z 100fb0f0 f i GrmFunc.obj
 0002:0004c0f0       ??_GInterfaceGrm@VA@@UAEPAXI@Z 100fb0f0 f i GrmFunc.obj
 0002:0004c140       ??1InterfaceGrm@VA@@UAE@XZ 100fb140 f   GrmFunc.obj
 0002:0004c360       ?BuildItems@InterfaceGrm@VA@@QAEHABVBuildData@2@@Z 100fb360 f   GrmFunc.obj
 0002:0004cca0       ?BuildLocalNLUDict@DictBuilder@VA@@AAEHABVBuildData@2@@Z 100fbca0 f   GrmFunc.obj
 0002:0004cff0       ?BuildLocalSRDict@DictBuilder@VA@@AAEHABVBuildData@2@AAVInterfaceGrm@2@@Z 100fbff0 f   GrmFunc.obj
 0002:0004d0d0       ?BuildLocalCataIndex@DictBuilder@VA@@AAEHABVBuildData@2@@Z 100fc0d0 f   GrmFunc.obj
 0002:0004d1e0       ?BuildNamexp@DictBuilder@VA@@AAEHV?$list@V?$basic_string@DU?$char_traits@D@std@@V?$allocator@D@2@@std@@V?$allocator@V?$basic_string@DU?$char_traits@D@std@@V?$allocator@D@2@@std@@@2@@std@@PAV34@@Z 100fc1e0 f   GrmFunc.obj
 0002:0004dae0       ?BuildDict@DictBuilder@VA@@QAEHAAVInterfaceGrm@2@@Z 100fcae0 f   GrmFunc.obj
 0002:0004df20       ?Reset@DictBuilder@VA@@QAEHXZ 100fcf20 f   GrmFunc.obj
 0002:0004df50       ??0?$_Const_iterator@$00@?$list@V?$basic_string@DU?$char_traits@D@std@@V?$allocator@D@2@@std@@V?$allocator@V?$basic_string@DU?$char_traits@D@std@@V?$allocator@D@2@@std@@@2@@std@@QAE@XZ 100fcf50 f i GrmFunc.obj
 0002:0004df90       ??$?8V?$basic_string@DU?$char_traits@D@std@@V?$allocator@D@2@@std@@V?$allocator@V?$basic_string@DU?$char_traits@D@std@@V?$allocator@D@2@@std@@@1@@std@@YA_NABV?$list@V?$basic_string@DU?$char_traits@D@std@@V?$allocator@D@2@@std@@V?$allocator@V?$basic_string@DU?$char_traits@D@std@@V?$allocator@D@2@@std@@@2@@0@0@Z 100fcf90 f i GrmFunc.obj
 0002:0004e040       ??$equal@V?$_Const_iterator@$00@?$list@V?$basic_string@DU?$char_traits@D@std@@V?$allocator@D@2@@std@@V?$allocator@V?$basic_string@DU?$char_traits@D@std@@V?$allocator@D@2@@std@@@2@@std@@V123@@std@@YA_NV?$_Const_iterator@$00@?$list@V?$basic_string@DU?$char_traits@D@std@@V?$allocator@D@2@@std@@V?$allocator@V?$basic_string@DU?$char_traits@D@std@@V?$allocator@D@2@@std@@@2@@0@00@Z 100fd040 f i GrmFunc.obj
 0002:0004e0d0       ??$_Checked_base@V?$_Const_iterator@$00@?$list@V?$basic_string@DU?$char_traits@D@std@@V?$allocator@D@2@@std@@V?$allocator@V?$basic_string@DU?$char_traits@D@std@@V?$allocator@D@2@@std@@@2@@std@@@std@@YA?AV?$_Const_iterator@$0A@@?$list@V?$basic_string@DU?$char_traits@D@std@@V?$allocator@D@2@@std@@V?$allocator@V?$basic_string@DU?$char_traits@D@std@@V?$allocator@D@2@@std@@@2@@0@AAV?$_Const_iterator@$00@20@@Z 100fd0d0 f i GrmFunc.obj
 0002:0004e110       ??$_Iter_random@V?$_Const_iterator@$00@?$list@V?$basic_string@DU?$char_traits@D@std@@V?$allocator@D@2@@std@@V?$allocator@V?$basic_string@DU?$char_traits@D@std@@V?$allocator@D@2@@std@@@2@@std@@V123@@std@@YA?AUforward_iterator_tag@0@ABV?$_Const_iterator@$00@?$list@V?$basic_string@DU?$char_traits@D@std@@V?$allocator@D@2@@std@@V?$allocator@V?$basic_string@DU?$char_traits@D@std@@V?$allocator@D@2@@std@@@2@@0@0@Z 100fd110 f i GrmFunc.obj
 0002:0004e130       ??$_Equal@V?$_Const_iterator@$0A@@?$list@V?$basic_string@DU?$char_traits@D@std@@V?$allocator@D@2@@std@@V?$allocator@V?$basic_string@DU?$char_traits@D@std@@V?$allocator@D@2@@std@@@2@@std@@V?$_Const_iterator@$00@23@Uforward_iterator_tag@3@@std@@YA_NV?$_Const_iterator@$0A@@?$list@V?$basic_string@DU?$char_traits@D@std@@V?$allocator@D@2@@std@@V?$allocator@V?$basic_string@DU?$char_traits@D@std@@V?$allocator@D@2@@std@@@2@@0@0V?$_Const_iterator@$00@20@Uforward_iterator_tag@0@U_Range_checked_iterator_tag@0@@Z 100fd130 f i GrmFunc.obj
 0002:0004e1b0       ??D?$_Const_iterator@$0A@@?$list@V?$basic_string@DU?$char_traits@D@std@@V?$allocator@D@2@@std@@V?$allocator@V?$basic_string@DU?$char_traits@D@std@@V?$allocator@D@2@@std@@@2@@std@@QBEABV?$basic_string@DU?$char_traits@D@std@@V?$allocator@D@2@@2@XZ 100fd1b0 f i GrmFunc.obj
 0002:0004e230       ??E?$_Const_iterator@$0A@@?$list@V?$basic_string@DU?$char_traits@D@std@@V?$allocator@D@2@@std@@V?$allocator@V?$basic_string@DU?$char_traits@D@std@@V?$allocator@D@2@@std@@@2@@std@@QAEAAV012@XZ 100fd230 f i GrmFunc.obj
 0002:0004e2c0       ??9?$_Const_iterator@$0A@@?$list@V?$basic_string@DU?$char_traits@D@std@@V?$allocator@D@2@@std@@V?$allocator@V?$basic_string@DU?$char_traits@D@std@@V?$allocator@D@2@@std@@@2@@std@@QBE_NABV012@@Z 100fd2c0 f i GrmFunc.obj
 0002:0004e300       ??8?$_Const_iterator@$0A@@?$list@V?$basic_string@DU?$char_traits@D@std@@V?$allocator@D@2@@std@@V?$allocator@V?$basic_string@DU?$char_traits@D@std@@V?$allocator@D@2@@std@@@2@@std@@QBE_NABV012@@Z 100fd300 f i GrmFunc.obj
 0002:0004e370       ??$_Checked_base@V?$_Const_iterator@$00@?$list@V?$basic_string@DU?$char_traits@D@std@@V?$allocator@D@2@@std@@V?$allocator@V?$basic_string@DU?$char_traits@D@std@@V?$allocator@D@2@@std@@@2@@std@@U_Different_checked_iterator_base_type_tag@3@@std@@YA?AV?$_Const_iterator@$0A@@?$list@V?$basic_string@DU?$char_traits@D@std@@V?$allocator@D@2@@std@@V?$allocator@V?$basic_string@DU?$char_traits@D@std@@V?$allocator@D@2@@std@@@2@@0@AAV?$_Const_iterator@$00@20@U_Different_checked_iterator_base_type_tag@0@@Z 100fd370 f i GrmFunc.obj
 0002:0004e3a0       ?_Checked_iterator_base@?$_Const_iterator@$00@?$list@V?$basic_string@DU?$char_traits@D@std@@V?$allocator@D@2@@std@@V?$allocator@V?$basic_string@DU?$char_traits@D@std@@V?$allocator@D@2@@std@@@2@@std@@QBE?AV?$_Const_iterator@$0A@@23@XZ 100fd3a0 f i GrmFunc.obj
 0002:0004e3f0       ??0?$_Const_iterator@$0A@@?$list@V?$basic_string@DU?$char_traits@D@std@@V?$allocator@D@2@@std@@V?$allocator@V?$basic_string@DU?$char_traits@D@std@@V?$allocator@D@2@@std@@@2@@std@@QAE@PAU_Node@?$_List_nod@V?$basic_string@DU?$char_traits@D@std@@V?$allocator@D@2@@std@@V?$allocator@V?$basic_string@DU?$char_traits@D@std@@V?$allocator@D@2@@std@@@2@@2@PBV12@@Z 100fd3f0 f i GrmFunc.obj
 0002:0004e450       ?m_pcbOnSRProc@SR@VA@@CAXPBXII0@Z 100fd450 f   SR.obj
 0002:0004e4f0       ?Init@SR@VA@@AAEXXZ        100fd4f0 f   SR.obj
 0002:0004e660       ?UnInit@SR@VA@@AAEXXZ      100fd660 f   SR.obj
 0002:0004e8a0       ??_GFLOG@VA@@QAEPAXI@Z     100fd8a0 f i SR.obj
 0002:0004e8f0       ??_GSrInterface@VA@@QAEPAXI@Z 100fd8f0 f i SR.obj
 0002:0004e940       ??0SR@VA@@QAE@PAVCGrmBuilder@1@P6AXPBXII1@ZPAXH@Z 100fd940 f   SR.obj
 0002:0004f350       ??1AllSrData@VA@@QAE@XZ    100fe350 f i SR.obj
 0002:0004f380       ??1SrData@VA@@QAE@XZ       100fe380 f i SR.obj
 0002:0004f410       ??_GSR@VA@@UAEPAXI@Z       100fe410 f i SR.obj
 0002:0004f410       ??_ESR@VA@@UAEPAXI@Z       100fe410 f i SR.obj
 0002:0004f460       ??1SR@VA@@UAE@XZ           100fe460 f   SR.obj
 0002:0004f660       ?HadSendSpeechStart@SR@VA@@QAE_NXZ 100fe660 f   SR.obj
 0002:0004f690       ?Start@SR@VA@@QAEHPBD0H@Z  100fe690 f   SR.obj
 0002:0004f870       ?Stop@SR@VA@@QAEHXZ        100fe870 f   SR.obj
 0002:0004f980       ?SetTmpLogDir@SR@VA@@QAEXPBD@Z 100fe980 f   SR.obj
 0002:0004f9c0       ?AppendAudioData@SR@VA@@QAEHPBXI@Z 100fe9c0 f   SR.obj
 0002:0004fa70       ?EndAudioData@SR@VA@@QAEHXZ 100fea70 f   SR.obj
 0002:0004faa0       ?CommitKindsOfNetWork@SR@VA@@AAEXXZ 100feaa0 f   SR.obj
 0002:000508f0       ?m_pcbOnSpeechStart@SR@VA@@CAXPBXII0@Z 100ff8f0 f   SR.obj
 0002:000509b0       ?m_pcbOnSpeechEnd@SR@VA@@CAXPBXII0@Z 100ff9b0 f   SR.obj
 0002:00050ab0       ?m_pcbOnRespTimeOut@SR@VA@@CAXPBXII0@Z 100ffab0 f   SR.obj
 0002:00050b60       ?m_pcbOnSpeechTimeOut@SR@VA@@CAXPBXII0@Z 100ffb60 f   SR.obj
 0002:00050c20       ?m_pcbOnStartAudio@SR@VA@@CAXPBXII0@Z 100ffc20 f   SR.obj
 0002:00050c60       ?m_pcbOnStopAudio@SR@VA@@CAXPBXII0@Z 100ffc60 f   SR.obj
 0002:00050ce0       ?m_pcbOnRecgEnd@SR@VA@@CAXPBXII0@Z 100ffce0 f   SR.obj
 0002:00050d20       ?m_pcbOnResult@SR@VA@@CAXPBXII0@Z 100ffd20 f   SR.obj
 0002:00051310       ?m_pcbOnShortPauseResult@SR@VA@@CAXPBXII0@Z 10100310 f   SR.obj
 0002:00051700       ?ProcInit@SR@VA@@AAEHPBD0H@Z 10100700 f   SR.obj
 0002:00051f40       ?UpdateEnv@SR@VA@@AAEHXZ   10100f40 f   SR.obj
 0002:000527f0       ??0AllSrAndOneshotHotData@VA@@QAE@H@Z 101017f0 f i SR.obj
 0002:00052910       ??_GSrData@VA@@QAEPAXI@Z   10101910 f i SR.obj
 0002:00052960       ?WorkingProc@SR@VA@@EAEXXZ 10101960 f   SR.obj
 0002:00053740       ?BuildHotRes@SR@VA@@AAEHPBD@Z 10102740 f   SR.obj
 0002:00054260       ?find@?$_Tree@V?$_Tmap_traits@V?$basic_string@DU?$char_traits@D@std@@V?$allocator@D@2@@std@@VSrScene@VA@@U?$less@V?$basic_string@DU?$char_traits@D@std@@V?$allocator@D@2@@std@@@2@V?$allocator@U?$pair@$$CBV?$basic_string@DU?$char_traits@D@std@@V?$allocator@D@2@@std@@VSrScene@VA@@@std@@@2@$0A@@std@@@std@@QAE?AViterator@12@ABV?$basic_string@DU?$char_traits@D@std@@V?$allocator@D@2@@2@@Z 10103260 f i SR.obj
 0002:00054320       ??Citerator@?$_Tree@V?$_Tmap_traits@V?$basic_string@DU?$char_traits@D@std@@V?$allocator@D@2@@std@@VSrScene@VA@@U?$less@V?$basic_string@DU?$char_traits@D@std@@V?$allocator@D@2@@std@@@2@V?$allocator@U?$pair@$$CBV?$basic_string@DU?$char_traits@D@std@@V?$allocator@D@2@@std@@VSrScene@VA@@@std@@@2@$0A@@std@@@std@@QBEPAU?$pair@$$CBV?$basic_string@DU?$char_traits@D@std@@V?$allocator@D@2@@std@@VSrScene@VA@@@2@XZ 10103320 f i SR.obj
 0002:00054350       ??9const_iterator@?$_Tree@V?$_Tmap_traits@V?$basic_string@DU?$char_traits@D@std@@V?$allocator@D@2@@std@@VSrScene@VA@@U?$less@V?$basic_string@DU?$char_traits@D@std@@V?$allocator@D@2@@std@@@2@V?$allocator@U?$pair@$$CBV?$basic_string@DU?$char_traits@D@std@@V?$allocator@D@2@@std@@VSrScene@VA@@@std@@@2@$0A@@std@@@std@@QBE_NABV012@@Z 10103350 f i SR.obj
 0002:00054390       ??$GetKeyValueFromJson@VValue@Json@VA@@@VA@@YA_NABVValue@Json@0@PBDPAV120@_N@Z 10103390 f i SR.obj
 0002:00055190       ?SWEncyptCheck@SrEncrypt@VA@@SAHXZ 10104190 f   SrEncrypt.obj
 0002:000551b0       ??0POISrData@VA@@QAE@XZ    101041b0 f   SrFunc.obj
 0002:00055390       ??0SrData@VA@@QAE@XZ       10104390 f i SrFunc.obj
 0002:00055460       ??0AllSrAndHotData@VA@@QAE@H@Z 10104460 f   SrFunc.obj
 0002:00055590       ??0AllSrData@VA@@QAE@H@Z   10104590 f   SrFunc.obj
 0002:00055780       ??0CfgSrData@VA@@QAE@V?$basic_string@DU?$char_traits@D@std@@V?$allocator@D@2@@std@@@Z 10104780 f   SrFunc.obj
 0002:00055830       ??0SrInterface@VA@@QAE@AAVSrCBFunc@1@@Z 10104830 f   SrFunc.obj
 0002:000575a0       ??1SrInterface@VA@@QAE@XZ  101065a0 f   SrFunc.obj
 0002:00057a30       ?UnLoadBigRes@SrInterface@VA@@QAEHXZ 10106a30 f   SrFunc.obj
 0002:00057c20       ?LoadBigRes@SrInterface@VA@@QAEHXZ 10106c20 f   SrFunc.obj
 0002:00057e10       ?Transfer@SrInterface@VA@@AAEXABV?$list@V?$basic_string@DU?$char_traits@D@std@@V?$allocator@D@2@@std@@V?$allocator@V?$basic_string@DU?$char_traits@D@std@@V?$allocator@D@2@@std@@@2@@std@@AAV?$basic_string@DU?$char_traits@D@std@@V?$allocator@D@2@@4@@Z 10106e10 f   SrFunc.obj
 0002:00057fd0       ?Start@SrInterface@VA@@QAEHABVSrData@2@@Z 10106fd0 f   SrFunc.obj
 0002:00059090       ?Stop@SrInterface@VA@@QAEHXZ 10108090 f   SrFunc.obj
 0002:000591d0       ?AppendAudio@SrInterface@VA@@QAEHPADH@Z 101081d0 f   SrFunc.obj
 0002:000592d0       ?EndAudio@SrInterface@VA@@QAEHXZ 101082d0 f   SrFunc.obj
 0002:000593f0       ?LoadNetWork@SrInterface@VA@@QAEHABV?$basic_string@DU?$char_traits@D@std@@V?$allocator@D@2@@std@@@Z 101083f0 f   SrFunc.obj
 0002:00059810       ?LoadNetWork@SrInterface@VA@@QAEHABV?$list@V?$basic_string@DU?$char_traits@D@std@@V?$allocator@D@2@@std@@V?$allocator@V?$basic_string@DU?$char_traits@D@std@@V?$allocator@D@2@@std@@@2@@std@@@Z 10108810 f   SrFunc.obj
 0002:00059c90       ?LoadNetWorkOneByOne@SrInterface@VA@@QAEHABV?$list@V?$basic_string@DU?$char_traits@D@std@@V?$allocator@D@2@@std@@V?$allocator@V?$basic_string@DU?$char_traits@D@std@@V?$allocator@D@2@@std@@@2@@std@@@Z 10108c90 f   SrFunc.obj
 0002:0005a460       ?UnLoadNetWork@SrInterface@VA@@QAEHABV?$basic_string@DU?$char_traits@D@std@@V?$allocator@D@2@@std@@@Z 10109460 f   SrFunc.obj
 0002:0005a880       ?UnLoadNetWork@SrInterface@VA@@QAEHABV?$list@V?$basic_string@DU?$char_traits@D@std@@V?$allocator@D@2@@std@@V?$allocator@V?$basic_string@DU?$char_traits@D@std@@V?$allocator@D@2@@std@@@2@@std@@@Z 10109880 f   SrFunc.obj
 0002:0005a9b0       ?CommitNetWork@SrInterface@VA@@QAEHABV?$basic_string@DU?$char_traits@D@std@@V?$allocator@D@2@@std@@@Z 101099b0 f   SrFunc.obj
 0002:0005ad90       ?SetPara@SrInterface@VA@@QAEHPBD0@Z 10109d90 f   SrFunc.obj
 0002:0005b1d0       ?RecordLoadedDicts@SrInterface@VA@@AAEXABVU16String@2@H@Z 1010a1d0 f   SrFunc.obj
 0002:0005b4f0       ?CBRealloc@SrInterface@VA@@CGPAXPAX0I@Z 1010a4f0 f   SrFunc.obj
 0002:0005b530       ?CBFree@SrInterface@VA@@CGXPAX0@Z 1010a530 f   SrFunc.obj
 0002:0005b560       ?CBOpenFile@SrInterface@VA@@CGPAXPAXPBCHH@Z 1010a560 f   SrFunc.obj
 0002:0005b7a0       ?CBCloseFile@SrInterface@VA@@CGHPAX0@Z 1010a7a0 f   SrFunc.obj
 0002:0005b7d0       ?CBReadFile@SrInterface@VA@@CGHPAX0PAEII@Z 1010a7d0 f   SrFunc.obj
 0002:0005b9c0       ?CBWriteFile@SrInterface@VA@@CGHPAX0PBEII@Z 1010a9c0 f   SrFunc.obj
 0002:0005ba30       ?CBCopyFile@SrInterface@VA@@CGHPAXPBG@Z 1010aa30 f   SrFunc.obj
 0002:0005bf40       ?CBMsgProc@SrInterface@VA@@CGHPAX0IIPBX@Z 1010af40 f   SrFunc.obj
 0002:0005c2d0       ?push_front@?$list@V?$basic_string@DU?$char_traits@D@std@@V?$allocator@D@2@@std@@V?$allocator@V?$basic_string@DU?$char_traits@D@std@@V?$allocator@D@2@@std@@@2@@std@@QAEXABV?$basic_string@DU?$char_traits@D@std@@V?$allocator@D@2@@2@@Z 1010b2d0 f i SrFunc.obj
 0002:0005c320       ?count@?$_Tree@V?$_Tmap_traits@V?$basic_string@DU?$char_traits@D@std@@V?$allocator@D@2@@std@@HU?$less@V?$basic_string@DU?$char_traits@D@std@@V?$allocator@D@2@@std@@@2@V?$allocator@U?$pair@$$CBV?$basic_string@DU?$char_traits@D@std@@V?$allocator@D@2@@std@@H@std@@@2@$0A@@std@@@std@@QBEIABV?$basic_string@DU?$char_traits@D@std@@V?$allocator@D@2@@2@@Z 1010b320 f i SrFunc.obj
 0002:0005c380       ??0iterator@?$_Tree@V?$_Tmap_traits@V?$basic_string@DU?$char_traits@D@std@@V?$allocator@D@2@@std@@HU?$less@V?$basic_string@DU?$char_traits@D@std@@V?$allocator@D@2@@std@@@2@V?$allocator@U?$pair@$$CBV?$basic_string@DU?$char_traits@D@std@@V?$allocator@D@2@@std@@H@std@@@2@$0A@@std@@@std@@QAE@XZ 1010b380 f i SrFunc.obj
 0002:0005c3b0       ??Eiterator@?$_Tree@V?$_Tmap_traits@V?$basic_string@DU?$char_traits@D@std@@V?$allocator@D@2@@std@@HU?$less@V?$basic_string@DU?$char_traits@D@std@@V?$allocator@D@2@@std@@@2@V?$allocator@U?$pair@$$CBV?$basic_string@DU?$char_traits@D@std@@V?$allocator@D@2@@std@@H@std@@@2@$0A@@std@@@std@@QAE?AV012@H@Z 1010b3b0 f i SrFunc.obj
 0002:0005c400       ??C?$_Const_iterator@$00@?$list@V?$basic_string@DU?$char_traits@D@std@@V?$allocator@D@2@@std@@V?$allocator@V?$basic_string@DU?$char_traits@D@std@@V?$allocator@D@2@@std@@@2@@std@@QBEPBV?$basic_string@DU?$char_traits@D@std@@V?$allocator@D@2@@2@XZ 1010b400 f i SrFunc.obj
 0002:0005c430       ?equal_range@?$_Tree@V?$_Tmap_traits@V?$basic_string@DU?$char_traits@D@std@@V?$allocator@D@2@@std@@HU?$less@V?$basic_string@DU?$char_traits@D@std@@V?$allocator@D@2@@std@@@2@V?$allocator@U?$pair@$$CBV?$basic_string@DU?$char_traits@D@std@@V?$allocator@D@2@@std@@H@std@@@2@$0A@@std@@@std@@QBE?AU?$pair@Vconst_iterator@?$_Tree@V?$_Tmap_traits@V?$basic_string@DU?$char_traits@D@std@@V?$allocator@D@2@@std@@HU?$less@V?$basic_string@DU?$char_traits@D@std@@V?$allocator@D@2@@std@@@2@V?$allocator@U?$pair@$$CBV?$basic_string@DU?$char_traits@D@std@@V?$allocator@D@2@@std@@H@std@@@2@$0A@@std@@@std@@V123@@2@ABV?$basic_string@DU?$char_traits@D@std@@V?$allocator@D@2@@2@@Z 1010b430 f i SrFunc.obj
 0002:0005c470       ??Eiterator@?$_Tree@V?$_Tmap_traits@V?$basic_string@DU?$char_traits@D@std@@V?$allocator@D@2@@std@@HU?$less@V?$basic_string@DU?$char_traits@D@std@@V?$allocator@D@2@@std@@@2@V?$allocator@U?$pair@$$CBV?$basic_string@DU?$char_traits@D@std@@V?$allocator@D@2@@std@@H@std@@@2@$0A@@std@@@std@@QAEAAV012@XZ 1010b470 f i SrFunc.obj
 0002:0005c4a0       ?_Eqrange@?$_Tree@V?$_Tmap_traits@V?$basic_string@DU?$char_traits@D@std@@V?$allocator@D@2@@std@@HU?$less@V?$basic_string@DU?$char_traits@D@std@@V?$allocator@D@2@@std@@@2@V?$allocator@U?$pair@$$CBV?$basic_string@DU?$char_traits@D@std@@V?$allocator@D@2@@std@@H@std@@@2@$0A@@std@@@std@@IBE?AU?$pair@Vconst_iterator@?$_Tree@V?$_Tmap_traits@V?$basic_string@DU?$char_traits@D@std@@V?$allocator@D@2@@std@@HU?$less@V?$basic_string@DU?$char_traits@D@std@@V?$allocator@D@2@@std@@@2@V?$allocator@U?$pair@$$CBV?$basic_string@DU?$char_traits@D@std@@V?$allocator@D@2@@std@@H@std@@@2@$0A@@std@@@std@@V123@@2@ABV?$basic_string@DU?$char_traits@D@std@@V?$allocator@D@2@@2@@Z 1010b4a0 f i SrFunc.obj
 0002:0005c6b0       ??0?$pair@Vconst_iterator@?$_Tree@V?$_Tmap_traits@V?$basic_string@DU?$char_traits@D@std@@V?$allocator@D@2@@std@@HU?$less@V?$basic_string@DU?$char_traits@D@std@@V?$allocator@D@2@@std@@@2@V?$allocator@U?$pair@$$CBV?$basic_string@DU?$char_traits@D@std@@V?$allocator@D@2@@std@@H@std@@@2@$0A@@std@@@std@@V123@@std@@QAE@ABVconst_iterator@?$_Tree@V?$_Tmap_traits@V?$basic_string@DU?$char_traits@D@std@@V?$allocator@D@2@@std@@HU?$less@V?$basic_string@DU?$char_traits@D@std@@V?$allocator@D@2@@std@@@2@V?$allocator@U?$pair@$$CBV?$basic_string@DU?$char_traits@D@std@@V?$allocator@D@2@@std@@H@std@@@2@$0A@@std@@@1@0@Z 1010b6b0 f i SrFunc.obj
 0002:0005c700       ??$_Distance@Vconst_iterator@?$_Tree@V?$_Tmap_traits@V?$basic_string@DU?$char_traits@D@std@@V?$allocator@D@2@@std@@HU?$less@V?$basic_string@DU?$char_traits@D@std@@V?$allocator@D@2@@std@@@2@V?$allocator@U?$pair@$$CBV?$basic_string@DU?$char_traits@D@std@@V?$allocator@D@2@@std@@H@std@@@2@$0A@@std@@@std@@I@std@@YAXVconst_iterator@?$_Tree@V?$_Tmap_traits@V?$basic_string@DU?$char_traits@D@std@@V?$allocator@D@2@@std@@HU?$less@V?$basic_string@DU?$char_traits@D@std@@V?$allocator@D@2@@std@@@2@V?$allocator@U?$pair@$$CBV?$basic_string@DU?$char_traits@D@std@@V?$allocator@D@2@@std@@H@std@@@2@$0A@@std@@@0@0AAI@Z 1010b700 f i SrFunc.obj
 0002:0005c750       ??$_Iter_cat@Vconst_iterator@?$_Tree@V?$_Tmap_traits@V?$basic_string@DU?$char_traits@D@std@@V?$allocator@D@2@@std@@HU?$less@V?$basic_string@DU?$char_traits@D@std@@V?$allocator@D@2@@std@@@2@V?$allocator@U?$pair@$$CBV?$basic_string@DU?$char_traits@D@std@@V?$allocator@D@2@@std@@H@std@@@2@$0A@@std@@@std@@@std@@YA?AUbidirectional_iterator_tag@0@ABVconst_iterator@?$_Tree@V?$_Tmap_traits@V?$basic_string@DU?$char_traits@D@std@@V?$allocator@D@2@@std@@HU?$less@V?$basic_string@DU?$char_traits@D@std@@V?$allocator@D@2@@std@@@2@V?$allocator@U?$pair@$$CBV?$basic_string@DU?$char_traits@D@std@@V?$allocator@D@2@@std@@H@std@@@2@$0A@@std@@@0@@Z 1010b750 f i SrFunc.obj
 0002:0005c770       ??$_Distance2@Vconst_iterator@?$_Tree@V?$_Tmap_traits@V?$basic_string@DU?$char_traits@D@std@@V?$allocator@D@2@@std@@HU?$less@V?$basic_string@DU?$char_traits@D@std@@V?$allocator@D@2@@std@@@2@V?$allocator@U?$pair@$$CBV?$basic_string@DU?$char_traits@D@std@@V?$allocator@D@2@@std@@H@std@@@2@$0A@@std@@@std@@I@std@@YAXVconst_iterator@?$_Tree@V?$_Tmap_traits@V?$basic_string@DU?$char_traits@D@std@@V?$allocator@D@2@@std@@HU?$less@V?$basic_string@DU?$char_traits@D@std@@V?$allocator@D@2@@std@@@2@V?$allocator@U?$pair@$$CBV?$basic_string@DU?$char_traits@D@std@@V?$allocator@D@2@@std@@H@std@@@2@$0A@@std@@@0@0AAIUbidirectional_iterator_tag@0@@Z 1010b770 f i SrFunc.obj
 0002:0005c7c0       ?Init@CIAT@VA@@AAEXXZ      1010b7c0 f   CIAT.obj
 0002:0005c9d0       ?UnInit@CIAT@VA@@AAEXXZ    1010b9d0 f   CIAT.obj
 0002:0005cc10       ??0CIAT@VA@@QAE@P6AXPBXII0@ZPAXPBD_N3@Z 1010bc10 f   CIAT.obj
 0002:0005d750       ??_GCIAT@VA@@UAEPAXI@Z     1010c750 f i CIAT.obj
 0002:0005d750       ??_ECIAT@VA@@UAEPAXI@Z     1010c750 f i CIAT.obj
 0002:0005d7a0       ??1CIAT@VA@@UAE@XZ         1010c7a0 f   CIAT.obj
 0002:0005d9e0       ?SetCity@CIAT@VA@@QAEHPBD@Z 1010c9e0 f   CIAT.obj
 0002:0005db20       ?SetLon@CIAT@VA@@QAEHPBD@Z 1010cb20 f   CIAT.obj
 0002:0005dbf0       ?SetLat@CIAT@VA@@QAEHPBD@Z 1010cbf0 f   CIAT.obj
 0002:0005dcc0       ?SetAcousLang@CIAT@VA@@QAEHPBD@Z 1010ccc0 f   CIAT.obj
 0002:0005dd20       ?GetLon@CIAT@VA@@QAEPBDXZ  1010cd20 f   CIAT.obj
 0002:0005dd50       ?GetLat@CIAT@VA@@QAEPBDXZ  1010cd50 f   CIAT.obj
 0002:0005dd80       ?GetCity@CIAT@VA@@QAEPBDXZ 1010cd80 f   CIAT.obj
 0002:0005ddb0       ?GetSessId@CIAT@VA@@QAEPBDXZ 1010cdb0 f   CIAT.obj
 0002:0005dde0       ?SetExtendParams@CIAT@VA@@QAEHPBD@Z 1010cde0 f   CIAT.obj
 0002:0005de80       ?SetWapProxy@CIAT@VA@@QAEHPBD@Z 1010ce80 f   CIAT.obj
 0002:0005def0       ?SetNetSubtype@CIAT@VA@@QAEHPBD@Z 1010cef0 f   CIAT.obj
 0002:0005df60       ?SetTmpLogDir@CIAT@VA@@QAEXPBD@Z 1010cf60 f   CIAT.obj
 0002:0005dfa0       ?ProcInit@CIAT@VA@@AAEHPBD@Z 1010cfa0 f   CIAT.obj
 0002:0005e0d0       ?Start@CIAT@VA@@QAEHPBD@Z  1010d0d0 f   CIAT.obj
 0002:0005e280       ?Stop@CIAT@VA@@QAEHXZ      1010d280 f   CIAT.obj
 0002:0005e390       ?AppendAudioData@CIAT@VA@@QAEHPAXI@Z 1010d390 f   CIAT.obj
 0002:0005e440       ?EndAudioData@CIAT@VA@@QAEHXZ 1010d440 f   CIAT.obj
 0002:0005e520       ?MSPSearchText@CIAT@VA@@QAEPBDPBD0PAH@Z 1010d520 f   CIAT.obj
 0002:0005ec20       ?GrmBuild@CIAT@VA@@QAEHABV?$basic_string@DU?$char_traits@D@std@@V?$allocator@D@2@@std@@@Z 1010dc20 f   CIAT.obj
 0002:0005ec70       ?OnError@CIAT@VA@@AAEXH@Z  1010dc70 f   CIAT.obj
 0002:0005edc0       ?ToGetResult@CIAT@VA@@AAEXXZ 1010ddc0 f   CIAT.obj
 0002:0005f440       ?UpdateEnv@CIAT@VA@@AAEHXZ 1010e440 f   CIAT.obj
 0002:00060190       ?WorkingProc@CIAT@VA@@EAEXXZ 1010f190 f   CIAT.obj
 0002:00060a80       ??0?$_Iterator@$00@?$list@V?$basic_string@DU?$char_traits@D@std@@V?$allocator@D@2@@std@@V?$allocator@V?$basic_string@DU?$char_traits@D@std@@V?$allocator@D@2@@std@@@2@@std@@QAE@XZ 1010fa80 f i CIAT.obj
 0002:00060ab0       ??E?$_Iterator@$00@?$list@V?$basic_string@DU?$char_traits@D@std@@V?$allocator@D@2@@std@@V?$allocator@V?$basic_string@DU?$char_traits@D@std@@V?$allocator@D@2@@std@@@2@@std@@QAE?AV012@H@Z 1010fab0 f i CIAT.obj
 0002:00060b00       ?Reset@DictParser@VA@@QAEHXZ 1010fb00 f   MscUploadDict.obj
 0002:00060b70       ?Parser@DictParser@VA@@QAEHABV?$basic_string@DU?$char_traits@D@std@@V?$allocator@D@2@@std@@@Z 1010fb70 f   MscUploadDict.obj
 0002:000615d0       ?GetNextDictName@DictParser@VA@@QAEHAAV?$basic_string@DU?$char_traits@D@std@@V?$allocator@D@2@@std@@@Z 101105d0 f   MscUploadDict.obj
 0002:00061650       ?GetLastDictName@DictParser@VA@@QAEHAAV?$basic_string@DU?$char_traits@D@std@@V?$allocator@D@2@@std@@@Z 10110650 f   MscUploadDict.obj
 0002:00061680       ?GetGrmId@DictParser@VA@@QAE?AV?$basic_string@DU?$char_traits@D@std@@V?$allocator@D@2@@std@@XZ 10110680 f   MscUploadDict.obj
 0002:000616d0       ?GetDictContent@DictParser@VA@@QAEHABV?$basic_string@DU?$char_traits@D@std@@V?$allocator@D@2@@std@@AAV?$list@V?$basic_string@DU?$char_traits@D@std@@V?$allocator@D@2@@std@@V?$allocator@V?$basic_string@DU?$char_traits@D@std@@V?$allocator@D@2@@std@@@2@@4@@Z 101106d0 f   MscUploadDict.obj
 0002:00061990       ?Reset@CloudDictBuilder@VA@@QAEHXZ 10110990 f   MscUploadDict.obj
 0002:000619c0       ?BuildDict@CloudDictBuilder@VA@@QAEHXZ 101109c0 f   MscUploadDict.obj
 0002:000620e0       ?Init@CMscUploadDict@VA@@AAEXXZ 101110e0 f   MscUploadDict.obj
 0002:000621c0       ?UnInit@CMscUploadDict@VA@@AAEXXZ 101111c0 f   MscUploadDict.obj
 0002:000622c0       ??0CMscUploadDict@VA@@QAE@P6AXPBXII0@ZPAX@Z 101112c0 f   MscUploadDict.obj
 0002:00062540       ??_ECMscUploadDict@VA@@UAEPAXI@Z 10111540 f i MscUploadDict.obj
 0002:00062540       ??_GCMscUploadDict@VA@@UAEPAXI@Z 10111540 f i MscUploadDict.obj
 0002:00062590       ??1?$map@V?$basic_string@DU?$char_traits@D@std@@V?$allocator@D@2@@std@@VCloudDictBuilder@VA@@U?$less@V?$basic_string@DU?$char_traits@D@std@@V?$allocator@D@2@@std@@@2@V?$allocator@U?$pair@$$CBV?$basic_string@DU?$char_traits@D@std@@V?$allocator@D@2@@std@@VCloudDictBuilder@VA@@@std@@@2@@std@@QAE@XZ 10111590 f i MscUploadDict.obj
 0002:000625c0       ??1CMscUploadDict@VA@@UAE@XZ 101115c0 f   MscUploadDict.obj
 0002:000626f0       ?UploadDict@CMscUploadDict@VA@@QAEHABV?$basic_string@DU?$char_traits@D@std@@V?$allocator@D@2@@std@@@Z 101116f0 f   MscUploadDict.obj
 0002:000628a0       ?GrmQueueIsEmpty@CMscUploadDict@VA@@AAE_NXZ 101118a0 f   MscUploadDict.obj
 0002:00062950       ?InitMapDictBuilders@CMscUploadDict@VA@@AAEXXZ 10111950 f   MscUploadDict.obj
 0002:00062d50       ??0CloudDictBuilder@VA@@QAE@V?$basic_string@DU?$char_traits@D@std@@V?$allocator@D@2@@std@@@Z 10111d50 f i MscUploadDict.obj
 0002:00062e00       ??0CloudBuildData@VA@@QAE@XZ 10111e00 f i MscUploadDict.obj
 0002:00062e80       ??1CloudBuildData@VA@@QAE@XZ 10111e80 f i MscUploadDict.obj
 0002:00062f00       ??1CloudDictBuilder@VA@@QAE@XZ 10111f00 f i MscUploadDict.obj
 0002:00062f90       ??0CloudDictBuilder@VA@@QAE@ABV01@@Z 10111f90 f i MscUploadDict.obj
 0002:00063050       ??1?$pair@PBDVCloudDictBuilder@VA@@@std@@QAE@XZ 10112050 f i MscUploadDict.obj
 0002:00063080       ??1?$pair@$$CBV?$basic_string@DU?$char_traits@D@std@@V?$allocator@D@2@@std@@VCloudDictBuilder@VA@@@std@@QAE@XZ 10112080 f i MscUploadDict.obj
 0002:00063100       ??0CloudBuildData@VA@@QAE@ABV01@@Z 10112100 f i MscUploadDict.obj
 0002:00063190       ?BuildGrm@CMscUploadDict@VA@@AAEHXZ 10112190 f   MscUploadDict.obj
 0002:00063860       ?WorkingProc@CMscUploadDict@VA@@EAEXXZ 10112860 f   MscUploadDict.obj
 0002:00063b40       ??A?$map@V?$basic_string@DU?$char_traits@D@std@@V?$allocator@D@2@@std@@VValue@Json@VA@@U?$less@V?$basic_string@DU?$char_traits@D@std@@V?$allocator@D@2@@std@@@2@V?$allocator@U?$pair@$$CBV?$basic_string@DU?$char_traits@D@std@@V?$allocator@D@2@@std@@VValue@Json@VA@@@std@@@2@@std@@QAEAAVValue@Json@VA@@ABV?$basic_string@DU?$char_traits@D@std@@V?$allocator@D@2@@1@@Z 10112b40 f i MscUploadDict.obj
 0002:00063ce0       ?count@?$_Tree@V?$_Tmap_traits@V?$basic_string@DU?$char_traits@D@std@@V?$allocator@D@2@@std@@VValue@Json@VA@@U?$less@V?$basic_string@DU?$char_traits@D@std@@V?$allocator@D@2@@std@@@2@V?$allocator@U?$pair@$$CBV?$basic_string@DU?$char_traits@D@std@@V?$allocator@D@2@@std@@VValue@Json@VA@@@std@@@2@$0A@@std@@@std@@QBEIABV?$basic_string@DU?$char_traits@D@std@@V?$allocator@D@2@@2@@Z 10112ce0 f i MscUploadDict.obj
 0002:00063d40       ??Citerator@?$_Tree@V?$_Tmap_traits@V?$basic_string@DU?$char_traits@D@std@@V?$allocator@D@2@@std@@VValue@Json@VA@@U?$less@V?$basic_string@DU?$char_traits@D@std@@V?$allocator@D@2@@std@@@2@V?$allocator@U?$pair@$$CBV?$basic_string@DU?$char_traits@D@std@@V?$allocator@D@2@@std@@VValue@Json@VA@@@std@@@2@$0A@@std@@@std@@QBEPAU?$pair@$$CBV?$basic_string@DU?$char_traits@D@std@@V?$allocator@D@2@@std@@VValue@Json@VA@@@2@XZ 10112d40 f i MscUploadDict.obj
 0002:00063d70       ??Eiterator@?$_Tree@V?$_Tmap_traits@V?$basic_string@DU?$char_traits@D@std@@V?$allocator@D@2@@std@@VValue@Json@VA@@U?$less@V?$basic_string@DU?$char_traits@D@std@@V?$allocator@D@2@@std@@@2@V?$allocator@U?$pair@$$CBV?$basic_string@DU?$char_traits@D@std@@V?$allocator@D@2@@std@@VValue@Json@VA@@@std@@@2@$0A@@std@@@std@@QAEAAV012@XZ 10112d70 f i MscUploadDict.obj
 0002:00063da0       ??0?$map@V?$basic_string@DU?$char_traits@D@std@@V?$allocator@D@2@@std@@VCloudDictBuilder@VA@@U?$less@V?$basic_string@DU?$char_traits@D@std@@V?$allocator@D@2@@std@@@2@V?$allocator@U?$pair@$$CBV?$basic_string@DU?$char_traits@D@std@@V?$allocator@D@2@@std@@VCloudDictBuilder@VA@@@std@@@2@@std@@QAE@XZ 10112da0 f i MscUploadDict.obj
 0002:00063de0       ??A?$map@V?$basic_string@DU?$char_traits@D@std@@V?$allocator@D@2@@std@@VCloudDictBuilder@VA@@U?$less@V?$basic_string@DU?$char_traits@D@std@@V?$allocator@D@2@@std@@@2@V?$allocator@U?$pair@$$CBV?$basic_string@DU?$char_traits@D@std@@V?$allocator@D@2@@std@@VCloudDictBuilder@VA@@@std@@@2@@std@@QAEAAVCloudDictBuilder@VA@@ABV?$basic_string@DU?$char_traits@D@std@@V?$allocator@D@2@@1@@Z 10112de0 f i MscUploadDict.obj
 0002:00063f80       ??0CloudDictBuilder@VA@@QAE@XZ 10112f80 f i MscUploadDict.obj
 0002:00064010       ??1?$_Tree@V?$_Tmap_traits@V?$basic_string@DU?$char_traits@D@std@@V?$allocator@D@2@@std@@VCloudDictBuilder@VA@@U?$less@V?$basic_string@DU?$char_traits@D@std@@V?$allocator@D@2@@std@@@2@V?$allocator@U?$pair@$$CBV?$basic_string@DU?$char_traits@D@std@@V?$allocator@D@2@@std@@VCloudDictBuilder@VA@@@std@@@2@$0A@@std@@@std@@QAE@XZ 10113010 f i MscUploadDict.obj
 0002:00064090       ?begin@?$_Tree@V?$_Tmap_traits@V?$basic_string@DU?$char_traits@D@std@@V?$allocator@D@2@@std@@VCloudDictBuilder@VA@@U?$less@V?$basic_string@DU?$char_traits@D@std@@V?$allocator@D@2@@std@@@2@V?$allocator@U?$pair@$$CBV?$basic_string@DU?$char_traits@D@std@@V?$allocator@D@2@@std@@VCloudDictBuilder@VA@@@std@@@2@$0A@@std@@@std@@QAE?AViterator@12@XZ 10113090 f i MscUploadDict.obj
 0002:000640d0       ?end@?$_Tree@V?$_Tmap_traits@V?$basic_string@DU?$char_traits@D@std@@V?$allocator@D@2@@std@@VCloudDictBuilder@VA@@U?$less@V?$basic_string@DU?$char_traits@D@std@@V?$allocator@D@2@@std@@@2@V?$allocator@U?$pair@$$CBV?$basic_string@DU?$char_traits@D@std@@V?$allocator@D@2@@std@@VCloudDictBuilder@VA@@@std@@@2@$0A@@std@@@std@@QAE?AViterator@12@XZ 101130d0 f i MscUploadDict.obj
 0002:00064110       ?insert@?$_Tree@V?$_Tmap_traits@V?$basic_string@DU?$char_traits@D@std@@V?$allocator@D@2@@std@@VCloudDictBuilder@VA@@U?$less@V?$basic_string@DU?$char_traits@D@std@@V?$allocator@D@2@@std@@@2@V?$allocator@U?$pair@$$CBV?$basic_string@DU?$char_traits@D@std@@V?$allocator@D@2@@std@@VCloudDictBuilder@VA@@@std@@@2@$0A@@std@@@std@@QAE?AU?$pair@Viterator@?$_Tree@V?$_Tmap_traits@V?$basic_string@DU?$char_traits@D@std@@V?$allocator@D@2@@std@@VCloudDictBuilder@VA@@U?$less@V?$basic_string@DU?$char_traits@D@std@@V?$allocator@D@2@@std@@@2@V?$allocator@U?$pair@$$CBV?$basic_string@DU?$char_traits@D@std@@V?$allocator@D@2@@std@@VCloudDictBuilder@VA@@@std@@@2@$0A@@std@@@std@@_N@2@ABU?$pair@$$CBV?$basic_string@DU?$char_traits@D@std@@V?$allocator@D@2@@std@@VCloudDictBuilder@VA@@@2@@Z 10113110 f i MscUploadDict.obj
 0002:00064370       ??0iterator@?$_Tree@V?$_Tmap_traits@V?$basic_string@DU?$char_traits@D@std@@V?$allocator@D@2@@std@@VCloudDictBuilder@VA@@U?$less@V?$basic_string@DU?$char_traits@D@std@@V?$allocator@D@2@@std@@@2@V?$allocator@U?$pair@$$CBV?$basic_string@DU?$char_traits@D@std@@V?$allocator@D@2@@std@@VCloudDictBuilder@VA@@@std@@@2@$0A@@std@@@std@@QAE@XZ 10113370 f i MscUploadDict.obj
 0002:000643a0       ??Citerator@?$_Tree@V?$_Tmap_traits@V?$basic_string@DU?$char_traits@D@std@@V?$allocator@D@2@@std@@VCloudDictBuilder@VA@@U?$less@V?$basic_string@DU?$char_traits@D@std@@V?$allocator@D@2@@std@@@2@V?$allocator@U?$pair@$$CBV?$basic_string@DU?$char_traits@D@std@@V?$allocator@D@2@@std@@VCloudDictBuilder@VA@@@std@@@2@$0A@@std@@@std@@QBEPAU?$pair@$$CBV?$basic_string@DU?$char_traits@D@std@@V?$allocator@D@2@@std@@VCloudDictBuilder@VA@@@2@XZ 101133a0 f i MscUploadDict.obj
 0002:000643d0       ??Eiterator@?$_Tree@V?$_Tmap_traits@V?$basic_string@DU?$char_traits@D@std@@V?$allocator@D@2@@std@@VCloudDictBuilder@VA@@U?$less@V?$basic_string@DU?$char_traits@D@std@@V?$allocator@D@2@@std@@@2@V?$allocator@U?$pair@$$CBV?$basic_string@DU?$char_traits@D@std@@V?$allocator@D@2@@std@@VCloudDictBuilder@VA@@@std@@@2@$0A@@std@@@std@@QAEAAV012@XZ 101133d0 f i MscUploadDict.obj
 0002:00064400       ??9const_iterator@?$_Tree@V?$_Tmap_traits@V?$basic_string@DU?$char_traits@D@std@@V?$allocator@D@2@@std@@VCloudDictBuilder@VA@@U?$less@V?$basic_string@DU?$char_traits@D@std@@V?$allocator@D@2@@std@@@2@V?$allocator@U?$pair@$$CBV?$basic_string@DU?$char_traits@D@std@@V?$allocator@D@2@@std@@VCloudDictBuilder@VA@@@std@@@2@$0A@@std@@@std@@QBE_NABV012@@Z 10113400 f i MscUploadDict.obj
 0002:00064440       ??1?$_Tree_val@V?$_Tmap_traits@V?$basic_string@DU?$char_traits@D@std@@V?$allocator@D@2@@std@@VCloudDictBuilder@VA@@U?$less@V?$basic_string@DU?$char_traits@D@std@@V?$allocator@D@2@@std@@@2@V?$allocator@U?$pair@$$CBV?$basic_string@DU?$char_traits@D@std@@V?$allocator@D@2@@std@@VCloudDictBuilder@VA@@@std@@@2@$0A@@std@@@std@@QAE@XZ 10113440 f i MscUploadDict.obj
 0002:00064470       ??1?$_Tree_ptr@V?$_Tmap_traits@V?$basic_string@DU?$char_traits@D@std@@V?$allocator@D@2@@std@@VCloudDictBuilder@VA@@U?$less@V?$basic_string@DU?$char_traits@D@std@@V?$allocator@D@2@@std@@@2@V?$allocator@U?$pair@$$CBV?$basic_string@DU?$char_traits@D@std@@V?$allocator@D@2@@std@@VCloudDictBuilder@VA@@@std@@@2@$0A@@std@@@std@@QAE@XZ 10113470 f i MscUploadDict.obj
 0002:000644a0       ??1?$_Tree_nod@V?$_Tmap_traits@V?$basic_string@DU?$char_traits@D@std@@V?$allocator@D@2@@std@@VCloudDictBuilder@VA@@U?$less@V?$basic_string@DU?$char_traits@D@std@@V?$allocator@D@2@@std@@@2@V?$allocator@U?$pair@$$CBV?$basic_string@DU?$char_traits@D@std@@V?$allocator@D@2@@std@@VCloudDictBuilder@VA@@@std@@@2@$0A@@std@@@std@@QAE@XZ 101134a0 f i MscUploadDict.obj
 0002:000644d0       ??1?$_Tmap_traits@V?$basic_string@DU?$char_traits@D@std@@V?$allocator@D@2@@std@@VCloudDictBuilder@VA@@U?$less@V?$basic_string@DU?$char_traits@D@std@@V?$allocator@D@2@@std@@@2@V?$allocator@U?$pair@$$CBV?$basic_string@DU?$char_traits@D@std@@V?$allocator@D@2@@std@@VCloudDictBuilder@VA@@@std@@@2@$0A@@std@@QAE@XZ 101134d0 f i MscUploadDict.obj
 0002:00064500       ?_Key@?$_Tree@V?$_Tmap_traits@V?$basic_string@DU?$char_traits@D@std@@V?$allocator@D@2@@std@@VValue@Json@VA@@U?$less@V?$basic_string@DU?$char_traits@D@std@@V?$allocator@D@2@@std@@@2@V?$allocator@U?$pair@$$CBV?$basic_string@DU?$char_traits@D@std@@V?$allocator@D@2@@std@@VValue@Json@VA@@@std@@@2@$0A@@std@@@std@@KAABV?$basic_string@DU?$char_traits@D@std@@V?$allocator@D@2@@2@PAU_Node@?$_Tree_nod@V?$_Tmap_traits@V?$basic_string@DU?$char_traits@D@std@@V?$allocator@D@2@@std@@VValue@Json@VA@@U?$less@V?$basic_string@DU?$char_traits@D@std@@V?$allocator@D@2@@std@@@2@V?$allocator@U?$pair@$$CBV?$basic_string@DU?$char_traits@D@std@@V?$allocator@D@2@@std@@VValue@Json@VA@@@std@@@2@$0A@@std@@@2@@Z 10113500 f i MscUploadDict.obj
 0002:00064530       ?insert@?$_Tree@V?$_Tmap_traits@V?$basic_string@DU?$char_traits@D@std@@V?$allocator@D@2@@std@@VValue@Json@VA@@U?$less@V?$basic_string@DU?$char_traits@D@std@@V?$allocator@D@2@@std@@@2@V?$allocator@U?$pair@$$CBV?$basic_string@DU?$char_traits@D@std@@V?$allocator@D@2@@std@@VValue@Json@VA@@@std@@@2@$0A@@std@@@std@@QAE?AViterator@12@Vconst_iterator@12@ABU?$pair@$$CBV?$basic_string@DU?$char_traits@D@std@@V?$allocator@D@2@@std@@VValue@Json@VA@@@2@@Z 10113530 f i MscUploadDict.obj
 0002:00064cf0       ?lower_bound@?$_Tree@V?$_Tmap_traits@V?$basic_string@DU?$char_traits@D@std@@V?$allocator@D@2@@std@@VValue@Json@VA@@U?$less@V?$basic_string@DU?$char_traits@D@std@@V?$allocator@D@2@@std@@@2@V?$allocator@U?$pair@$$CBV?$basic_string@DU?$char_traits@D@std@@V?$allocator@D@2@@std@@VValue@Json@VA@@@std@@@2@$0A@@std@@@std@@QAE?AViterator@12@ABV?$basic_string@DU?$char_traits@D@std@@V?$allocator@D@2@@2@@Z 10113cf0 f i MscUploadDict.obj
 0002:00064d30       ?equal_range@?$_Tree@V?$_Tmap_traits@V?$basic_string@DU?$char_traits@D@std@@V?$allocator@D@2@@std@@VValue@Json@VA@@U?$less@V?$basic_string@DU?$char_traits@D@std@@V?$allocator@D@2@@std@@@2@V?$allocator@U?$pair@$$CBV?$basic_string@DU?$char_traits@D@std@@V?$allocator@D@2@@std@@VValue@Json@VA@@@std@@@2@$0A@@std@@@std@@QBE?AU?$pair@Vconst_iterator@?$_Tree@V?$_Tmap_traits@V?$basic_string@DU?$char_traits@D@std@@V?$allocator@D@2@@std@@VValue@Json@VA@@U?$less@V?$basic_string@DU?$char_traits@D@std@@V?$allocator@D@2@@std@@@2@V?$allocator@U?$pair@$$CBV?$basic_string@DU?$char_traits@D@std@@V?$allocator@D@2@@std@@VValue@Json@VA@@@std@@@2@$0A@@std@@@std@@V123@@2@ABV?$basic_string@DU?$char_traits@D@std@@V?$allocator@D@2@@2@@Z 10113d30 f i MscUploadDict.obj
 0002:00064d70       ??Diterator@?$_Tree@V?$_Tmap_traits@V?$basic_string@DU?$char_traits@D@std@@V?$allocator@D@2@@std@@VValue@Json@VA@@U?$less@V?$basic_string@DU?$char_traits@D@std@@V?$allocator@D@2@@std@@@2@V?$allocator@U?$pair@$$CBV?$basic_string@DU?$char_traits@D@std@@V?$allocator@D@2@@std@@VValue@Json@VA@@@std@@@2@$0A@@std@@@std@@QBEAAU?$pair@$$CBV?$basic_string@DU?$char_traits@D@std@@V?$allocator@D@2@@std@@VValue@Json@VA@@@2@XZ 10113d70 f i MscUploadDict.obj
 0002:00064da0       ?_Isnil@?$_Tree@V?$_Tmap_traits@V?$basic_string@DU?$char_traits@D@std@@V?$allocator@D@2@@std@@VCloudDictBuilder@VA@@U?$less@V?$basic_string@DU?$char_traits@D@std@@V?$allocator@D@2@@std@@@2@V?$allocator@U?$pair@$$CBV?$basic_string@DU?$char_traits@D@std@@V?$allocator@D@2@@std@@VCloudDictBuilder@VA@@@std@@@2@$0A@@std@@@std@@KAAADPAU_Node@?$_Tree_nod@V?$_Tmap_traits@V?$basic_string@DU?$char_traits@D@std@@V?$allocator@D@2@@std@@VCloudDictBuilder@VA@@U?$less@V?$basic_string@DU?$char_traits@D@std@@V?$allocator@D@2@@std@@@2@V?$allocator@U?$pair@$$CBV?$basic_string@DU?$char_traits@D@std@@V?$allocator@D@2@@std@@VCloudDictBuilder@VA@@@std@@@2@$0A@@std@@@2@@Z 10113da0 f i MscUploadDict.obj
 0002:00064dc0       ?_Key@?$_Tree@V?$_Tmap_traits@V?$basic_string@DU?$char_traits@D@std@@V?$allocator@D@2@@std@@VCloudDictBuilder@VA@@U?$less@V?$basic_string@DU?$char_traits@D@std@@V?$allocator@D@2@@std@@@2@V?$allocator@U?$pair@$$CBV?$basic_string@DU?$char_traits@D@std@@V?$allocator@D@2@@std@@VCloudDictBuilder@VA@@@std@@@2@$0A@@std@@@std@@KAABV?$basic_string@DU?$char_traits@D@std@@V?$allocator@D@2@@2@PAU_Node@?$_Tree_nod@V?$_Tmap_traits@V?$basic_string@DU?$char_traits@D@std@@V?$allocator@D@2@@std@@VCloudDictBuilder@VA@@U?$less@V?$basic_string@DU?$char_traits@D@std@@V?$allocator@D@2@@std@@@2@V?$allocator@U?$pair@$$CBV?$basic_string@DU?$char_traits@D@std@@V?$allocator@D@2@@std@@VCloudDictBuilder@VA@@@std@@@2@$0A@@std@@@2@@Z 10113dc0 f i MscUploadDict.obj
 0002:00064df0       ?_Left@?$_Tree@V?$_Tmap_traits@V?$basic_string@DU?$char_traits@D@std@@V?$allocator@D@2@@std@@VCloudDictBuilder@VA@@U?$less@V?$basic_string@DU?$char_traits@D@std@@V?$allocator@D@2@@std@@@2@V?$allocator@U?$pair@$$CBV?$basic_string@DU?$char_traits@D@std@@V?$allocator@D@2@@std@@VCloudDictBuilder@VA@@@std@@@2@$0A@@std@@@std@@KAAAPAU_Node@?$_Tree_nod@V?$_Tmap_traits@V?$basic_string@DU?$char_traits@D@std@@V?$allocator@D@2@@std@@VCloudDictBuilder@VA@@U?$less@V?$basic_string@DU?$char_traits@D@std@@V?$allocator@D@2@@std@@@2@V?$allocator@U?$pair@$$CBV?$basic_string@DU?$char_traits@D@std@@V?$allocator@D@2@@std@@VCloudDictBuilder@VA@@@std@@@2@$0A@@std@@@2@PAU342@@Z 10113df0 f i MscUploadDict.obj
 0002:00064e10       ?_Right@?$_Tree@V?$_Tmap_traits@V?$basic_string@DU?$char_traits@D@std@@V?$allocator@D@2@@std@@VCloudDictBuilder@VA@@U?$less@V?$basic_string@DU?$char_traits@D@std@@V?$allocator@D@2@@std@@@2@V?$allocator@U?$pair@$$CBV?$basic_string@DU?$char_traits@D@std@@V?$allocator@D@2@@std@@VCloudDictBuilder@VA@@@std@@@2@$0A@@std@@@std@@KAAAPAU_Node@?$_Tree_nod@V?$_Tmap_traits@V?$basic_string@DU?$char_traits@D@std@@V?$allocator@D@2@@std@@VCloudDictBuilder@VA@@U?$less@V?$basic_string@DU?$char_traits@D@std@@V?$allocator@D@2@@std@@@2@V?$allocator@U?$pair@$$CBV?$basic_string@DU?$char_traits@D@std@@V?$allocator@D@2@@std@@VCloudDictBuilder@VA@@@std@@@2@$0A@@std@@@2@PAU342@@Z 10113e10 f i MscUploadDict.obj
 0002:00064e30       ??0?$_Tree@V?$_Tmap_traits@V?$basic_string@DU?$char_traits@D@std@@V?$allocator@D@2@@std@@VCloudDictBuilder@VA@@U?$less@V?$basic_string@DU?$char_traits@D@std@@V?$allocator@D@2@@std@@@2@V?$allocator@U?$pair@$$CBV?$basic_string@DU?$char_traits@D@std@@V?$allocator@D@2@@std@@VCloudDictBuilder@VA@@@std@@@2@$0A@@std@@@std@@QAE@ABU?$less@V?$basic_string@DU?$char_traits@D@std@@V?$allocator@D@2@@std@@@1@ABV?$allocator@U?$pair@$$CBV?$basic_string@DU?$char_traits@D@std@@V?$allocator@D@2@@std@@VCloudDictBuilder@VA@@@std@@@1@@Z 10113e30 f i MscUploadDict.obj
 0002:00064ec0       ?insert@?$_Tree@V?$_Tmap_traits@V?$basic_string@DU?$char_traits@D@std@@V?$allocator@D@2@@std@@VCloudDictBuilder@VA@@U?$less@V?$basic_string@DU?$char_traits@D@std@@V?$allocator@D@2@@std@@@2@V?$allocator@U?$pair@$$CBV?$basic_string@DU?$char_traits@D@std@@V?$allocator@D@2@@std@@VCloudDictBuilder@VA@@@std@@@2@$0A@@std@@@std@@QAE?AViterator@12@Vconst_iterator@12@ABU?$pair@$$CBV?$basic_string@DU?$char_traits@D@std@@V?$allocator@D@2@@std@@VCloudDictBuilder@VA@@@2@@Z 10113ec0 f i MscUploadDict.obj
 0002:00065680       ?lower_bound@?$_Tree@V?$_Tmap_traits@V?$basic_string@DU?$char_traits@D@std@@V?$allocator@D@2@@std@@VCloudDictBuilder@VA@@U?$less@V?$basic_string@DU?$char_traits@D@std@@V?$allocator@D@2@@std@@@2@V?$allocator@U?$pair@$$CBV?$basic_string@DU?$char_traits@D@std@@V?$allocator@D@2@@std@@VCloudDictBuilder@VA@@@std@@@2@$0A@@std@@@std@@QAE?AViterator@12@ABV?$basic_string@DU?$char_traits@D@std@@V?$allocator@D@2@@2@@Z 10114680 f i MscUploadDict.obj
 0002:000656c0       ?_Insert@?$_Tree@V?$_Tmap_traits@V?$basic_string@DU?$char_traits@D@std@@V?$allocator@D@2@@std@@VCloudDictBuilder@VA@@U?$less@V?$basic_string@DU?$char_traits@D@std@@V?$allocator@D@2@@std@@@2@V?$allocator@U?$pair@$$CBV?$basic_string@DU?$char_traits@D@std@@V?$allocator@D@2@@std@@VCloudDictBuilder@VA@@@std@@@2@$0A@@std@@@std@@IAE?AViterator@12@_NPAU_Node@?$_Tree_nod@V?$_Tmap_traits@V?$basic_string@DU?$char_traits@D@std@@V?$allocator@D@2@@std@@VCloudDictBuilder@VA@@U?$less@V?$basic_string@DU?$char_traits@D@std@@V?$allocator@D@2@@std@@@2@V?$allocator@U?$pair@$$CBV?$basic_string@DU?$char_traits@D@std@@V?$allocator@D@2@@std@@VCloudDictBuilder@VA@@@std@@@2@$0A@@std@@@2@ABU?$pair@$$CBV?$basic_string@DU?$char_traits@D@std@@V?$allocator@D@2@@std@@VCloudDictBuilder@VA@@@2@@Z 101146c0 f i MscUploadDict.obj
 0002:00065c70       ?_Lmost@?$_Tree@V?$_Tmap_traits@V?$basic_string@DU?$char_traits@D@std@@V?$allocator@D@2@@std@@VCloudDictBuilder@VA@@U?$less@V?$basic_string@DU?$char_traits@D@std@@V?$allocator@D@2@@std@@@2@V?$allocator@U?$pair@$$CBV?$basic_string@DU?$char_traits@D@std@@V?$allocator@D@2@@std@@VCloudDictBuilder@VA@@@std@@@2@$0A@@std@@@std@@IBEAAPAU_Node@?$_Tree_nod@V?$_Tmap_traits@V?$basic_string@DU?$char_traits@D@std@@V?$allocator@D@2@@std@@VCloudDictBuilder@VA@@U?$less@V?$basic_string@DU?$char_traits@D@std@@V?$allocator@D@2@@std@@@2@V?$allocator@U?$pair@$$CBV?$basic_string@DU?$char_traits@D@std@@V?$allocator@D@2@@std@@VCloudDictBuilder@VA@@@std@@@2@$0A@@std@@@2@XZ 10114c70 f i MscUploadDict.obj
 0002:00065ca0       ?_Root@?$_Tree@V?$_Tmap_traits@V?$basic_string@DU?$char_traits@D@std@@V?$allocator@D@2@@std@@VCloudDictBuilder@VA@@U?$less@V?$basic_string@DU?$char_traits@D@std@@V?$allocator@D@2@@std@@@2@V?$allocator@U?$pair@$$CBV?$basic_string@DU?$char_traits@D@std@@V?$allocator@D@2@@std@@VCloudDictBuilder@VA@@@std@@@2@$0A@@std@@@std@@IBEAAPAU_Node@?$_Tree_nod@V?$_Tmap_traits@V?$basic_string@DU?$char_traits@D@std@@V?$allocator@D@2@@std@@VCloudDictBuilder@VA@@U?$less@V?$basic_string@DU?$char_traits@D@std@@V?$allocator@D@2@@std@@@2@V?$allocator@U?$pair@$$CBV?$basic_string@DU?$char_traits@D@std@@V?$allocator@D@2@@std@@VCloudDictBuilder@VA@@@std@@@2@$0A@@std@@@2@XZ 10114ca0 f i MscUploadDict.obj
 0002:00065cd0       ?_Tidy@?$_Tree@V?$_Tmap_traits@V?$basic_string@DU?$char_traits@D@std@@V?$allocator@D@2@@std@@VCloudDictBuilder@VA@@U?$less@V?$basic_string@DU?$char_traits@D@std@@V?$allocator@D@2@@std@@@2@V?$allocator@U?$pair@$$CBV?$basic_string@DU?$char_traits@D@std@@V?$allocator@D@2@@std@@VCloudDictBuilder@VA@@@std@@@2@$0A@@std@@@std@@IAEXXZ 10114cd0 f i MscUploadDict.obj
 0002:00065de0       ?_Kfn@?$_Tmap_traits@V?$basic_string@DU?$char_traits@D@std@@V?$allocator@D@2@@std@@VCloudDictBuilder@VA@@U?$less@V?$basic_string@DU?$char_traits@D@std@@V?$allocator@D@2@@std@@@2@V?$allocator@U?$pair@$$CBV?$basic_string@DU?$char_traits@D@std@@V?$allocator@D@2@@std@@VCloudDictBuilder@VA@@@std@@@2@$0A@@std@@SAABV?$basic_string@DU?$char_traits@D@std@@V?$allocator@D@2@@2@ABU?$pair@$$CBV?$basic_string@DU?$char_traits@D@std@@V?$allocator@D@2@@std@@VCloudDictBuilder@VA@@@2@@Z 10114de0 f i MscUploadDict.obj
 0002:00065e00       ??1?$_Container_base_aux_alloc_real@V?$allocator@U?$pair@$$CBV?$basic_string@DU?$char_traits@D@std@@V?$allocator@D@2@@std@@VCloudDictBuilder@VA@@@std@@@std@@@std@@IAE@XZ 10114e00 f i MscUploadDict.obj
 0002:00065e80       ??0?$allocator@U?$pair@$$CBV?$basic_string@DU?$char_traits@D@std@@V?$allocator@D@2@@std@@VCloudDictBuilder@VA@@@std@@@std@@QAE@XZ 10114e80 f i MscUploadDict.obj
 0002:00065ea0       ??0?$pair@$$CBV?$basic_string@DU?$char_traits@D@std@@V?$allocator@D@2@@std@@VValue@Json@VA@@@std@@QAE@ABV?$basic_string@DU?$char_traits@D@std@@V?$allocator@D@2@@1@ABVValue@Json@VA@@@Z 10114ea0 f i MscUploadDict.obj
 0002:00065f30       ??0?$pair@$$CBV?$basic_string@DU?$char_traits@D@std@@V?$allocator@D@2@@std@@VCloudDictBuilder@VA@@@std@@QAE@ABV?$basic_string@DU?$char_traits@D@std@@V?$allocator@D@2@@1@ABVCloudDictBuilder@VA@@@Z 10114f30 f i MscUploadDict.obj
 0002:00065fc0       ??0?$pair@Viterator@?$_Tree@V?$_Tmap_traits@V?$basic_string@DU?$char_traits@D@std@@V?$allocator@D@2@@std@@VCloudDictBuilder@VA@@U?$less@V?$basic_string@DU?$char_traits@D@std@@V?$allocator@D@2@@std@@@2@V?$allocator@U?$pair@$$CBV?$basic_string@DU?$char_traits@D@std@@V?$allocator@D@2@@std@@VCloudDictBuilder@VA@@@std@@@2@$0A@@std@@@std@@_N@std@@QAE@ABViterator@?$_Tree@V?$_Tmap_traits@V?$basic_string@DU?$char_traits@D@std@@V?$allocator@D@2@@std@@VCloudDictBuilder@VA@@U?$less@V?$basic_string@DU?$char_traits@D@std@@V?$allocator@D@2@@std@@@2@V?$allocator@U?$pair@$$CBV?$basic_string@DU?$char_traits@D@std@@V?$allocator@D@2@@std@@VCloudDictBuilder@VA@@@std@@@2@$0A@@std@@@1@AB_N@Z 10114fc0 f i MscUploadDict.obj
 0002:00066000       ??0iterator@?$_Tree@V?$_Tmap_traits@V?$basic_string@DU?$char_traits@D@std@@V?$allocator@D@2@@std@@VCloudDictBuilder@VA@@U?$less@V?$basic_string@DU?$char_traits@D@std@@V?$allocator@D@2@@std@@@2@V?$allocator@U?$pair@$$CBV?$basic_string@DU?$char_traits@D@std@@V?$allocator@D@2@@std@@VCloudDictBuilder@VA@@@std@@@2@$0A@@std@@@std@@QAE@PAU_Node@?$_Tree_nod@V?$_Tmap_traits@V?$basic_string@DU?$char_traits@D@std@@V?$allocator@D@2@@std@@VCloudDictBuilder@VA@@U?$less@V?$basic_string@DU?$char_traits@D@std@@V?$allocator@D@2@@std@@@2@V?$allocator@U?$pair@$$CBV?$basic_string@DU?$char_traits@D@std@@V?$allocator@D@2@@std@@VCloudDictBuilder@VA@@@std@@@2@$0A@@std@@@2@PBV12@@Z 10115000 f i MscUploadDict.obj
 0002:00066040       ??Diterator@?$_Tree@V?$_Tmap_traits@V?$basic_string@DU?$char_traits@D@std@@V?$allocator@D@2@@std@@VCloudDictBuilder@VA@@U?$less@V?$basic_string@DU?$char_traits@D@std@@V?$allocator@D@2@@std@@@2@V?$allocator@U?$pair@$$CBV?$basic_string@DU?$char_traits@D@std@@V?$allocator@D@2@@std@@VCloudDictBuilder@VA@@@std@@@2@$0A@@std@@@std@@QBEAAU?$pair@$$CBV?$basic_string@DU?$char_traits@D@std@@V?$allocator@D@2@@std@@VCloudDictBuilder@VA@@@2@XZ 10115040 f i MscUploadDict.obj
 0002:00066070       ??Fiterator@?$_Tree@V?$_Tmap_traits@V?$basic_string@DU?$char_traits@D@std@@V?$allocator@D@2@@std@@VCloudDictBuilder@VA@@U?$less@V?$basic_string@DU?$char_traits@D@std@@V?$allocator@D@2@@std@@@2@V?$allocator@U?$pair@$$CBV?$basic_string@DU?$char_traits@D@std@@V?$allocator@D@2@@std@@VCloudDictBuilder@VA@@@std@@@2@$0A@@std@@@std@@QAEAAV012@XZ 10115070 f i MscUploadDict.obj
 0002:000660a0       ??0const_iterator@?$_Tree@V?$_Tmap_traits@V?$basic_string@DU?$char_traits@D@std@@V?$allocator@D@2@@std@@VCloudDictBuilder@VA@@U?$less@V?$basic_string@DU?$char_traits@D@std@@V?$allocator@D@2@@std@@@2@V?$allocator@U?$pair@$$CBV?$basic_string@DU?$char_traits@D@std@@V?$allocator@D@2@@std@@VCloudDictBuilder@VA@@@std@@@2@$0A@@std@@@std@@QAE@XZ 101150a0 f i MscUploadDict.obj
 0002:000660e0       ??Econst_iterator@?$_Tree@V?$_Tmap_traits@V?$basic_string@DU?$char_traits@D@std@@V?$allocator@D@2@@std@@VCloudDictBuilder@VA@@U?$less@V?$basic_string@DU?$char_traits@D@std@@V?$allocator@D@2@@std@@@2@V?$allocator@U?$pair@$$CBV?$basic_string@DU?$char_traits@D@std@@V?$allocator@D@2@@std@@VCloudDictBuilder@VA@@@std@@@2@$0A@@std@@@std@@QAEAAV012@XZ 101150e0 f i MscUploadDict.obj
 0002:00066110       ??8const_iterator@?$_Tree@V?$_Tmap_traits@V?$basic_string@DU?$char_traits@D@std@@V?$allocator@D@2@@std@@VCloudDictBuilder@VA@@U?$less@V?$basic_string@DU?$char_traits@D@std@@V?$allocator@D@2@@std@@@2@V?$allocator@U?$pair@$$CBV?$basic_string@DU?$char_traits@D@std@@V?$allocator@D@2@@std@@VCloudDictBuilder@VA@@@std@@@2@$0A@@std@@@std@@QBE_NABV012@@Z 10115110 f i MscUploadDict.obj
 0002:00066180       ?_Mynode@const_iterator@?$_Tree@V?$_Tmap_traits@V?$basic_string@DU?$char_traits@D@std@@V?$allocator@D@2@@std@@VCloudDictBuilder@VA@@U?$less@V?$basic_string@DU?$char_traits@D@std@@V?$allocator@D@2@@std@@@2@V?$allocator@U?$pair@$$CBV?$basic_string@DU?$char_traits@D@std@@V?$allocator@D@2@@std@@VCloudDictBuilder@VA@@@std@@@2@$0A@@std@@@std@@QBEPAU_Node@?$_Tree_nod@V?$_Tmap_traits@V?$basic_string@DU?$char_traits@D@std@@V?$allocator@D@2@@std@@VCloudDictBuilder@VA@@U?$less@V?$basic_string@DU?$char_traits@D@std@@V?$allocator@D@2@@std@@@2@V?$allocator@U?$pair@$$CBV?$basic_string@DU?$char_traits@D@std@@V?$allocator@D@2@@std@@VCloudDictBuilder@VA@@@std@@@2@$0A@@std@@@3@XZ 10115180 f i MscUploadDict.obj
 0002:000661a0       ??0?$_Bidit@U?$pair@$$CBV?$basic_string@DU?$char_traits@D@std@@V?$allocator@D@2@@std@@VCloudDictBuilder@VA@@@std@@HPBU12@ABU12@@std@@QAE@XZ 101151a0 f i MscUploadDict.obj
 0002:000661d0       ??0?$_Iterator_with_base@Ubidirectional_iterator_tag@std@@U?$pair@$$CBV?$basic_string@DU?$char_traits@D@std@@V?$allocator@D@2@@std@@VCloudDictBuilder@VA@@@2@HPBU32@ABU32@V_Iterator_base_aux@2@@std@@QAE@XZ 101151d0 f i MscUploadDict.obj
 0002:00066200       ?_Myval@?$_Tree@V?$_Tmap_traits@V?$basic_string@DU?$char_traits@D@std@@V?$allocator@D@2@@std@@VValue@Json@VA@@U?$less@V?$basic_string@DU?$char_traits@D@std@@V?$allocator@D@2@@std@@@2@V?$allocator@U?$pair@$$CBV?$basic_string@DU?$char_traits@D@std@@V?$allocator@D@2@@std@@VValue@Json@VA@@@std@@@2@$0A@@std@@@std@@KAAAU?$pair@$$CBV?$basic_string@DU?$char_traits@D@std@@V?$allocator@D@2@@std@@VValue@Json@VA@@@2@PAU_Node@?$_Tree_nod@V?$_Tmap_traits@V?$basic_string@DU?$char_traits@D@std@@V?$allocator@D@2@@std@@VValue@Json@VA@@U?$less@V?$basic_string@DU?$char_traits@D@std@@V?$allocator@D@2@@std@@@2@V?$allocator@U?$pair@$$CBV?$basic_string@DU?$char_traits@D@std@@V?$allocator@D@2@@std@@VValue@Json@VA@@@std@@@2@$0A@@std@@@2@@Z 10115200 f i MscUploadDict.obj
 0002:00066220       ?size@?$_Tree@V?$_Tmap_traits@V?$basic_string@DU?$char_traits@D@std@@V?$allocator@D@2@@std@@VValue@Json@VA@@U?$less@V?$basic_string@DU?$char_traits@D@std@@V?$allocator@D@2@@std@@@2@V?$allocator@U?$pair@$$CBV?$basic_string@DU?$char_traits@D@std@@V?$allocator@D@2@@std@@VValue@Json@VA@@@std@@@2@$0A@@std@@@std@@QBEIXZ 10115220 f i MscUploadDict.obj
 0002:00066240       ?insert@?$_Tree@V?$_Tmap_traits@V?$basic_string@DU?$char_traits@D@std@@V?$allocator@D@2@@std@@VValue@Json@VA@@U?$less@V?$basic_string@DU?$char_traits@D@std@@V?$allocator@D@2@@std@@@2@V?$allocator@U?$pair@$$CBV?$basic_string@DU?$char_traits@D@std@@V?$allocator@D@2@@std@@VValue@Json@VA@@@std@@@2@$0A@@std@@@std@@QAE?AU?$pair@Viterator@?$_Tree@V?$_Tmap_traits@V?$basic_string@DU?$char_traits@D@std@@V?$allocator@D@2@@std@@VValue@Json@VA@@U?$less@V?$basic_string@DU?$char_traits@D@std@@V?$allocator@D@2@@std@@@2@V?$allocator@U?$pair@$$CBV?$basic_string@DU?$char_traits@D@std@@V?$allocator@D@2@@std@@VValue@Json@VA@@@std@@@2@$0A@@std@@@std@@_N@2@ABU?$pair@$$CBV?$basic_string@DU?$char_traits@D@std@@V?$allocator@D@2@@std@@VValue@Json@VA@@@2@@Z 10115240 f i MscUploadDict.obj
 0002:000664a0       ?_Eqrange@?$_Tree@V?$_Tmap_traits@V?$basic_string@DU?$char_traits@D@std@@V?$allocator@D@2@@std@@VValue@Json@VA@@U?$less@V?$basic_string@DU?$char_traits@D@std@@V?$allocator@D@2@@std@@@2@V?$allocator@U?$pair@$$CBV?$basic_string@DU?$char_traits@D@std@@V?$allocator@D@2@@std@@VValue@Json@VA@@@std@@@2@$0A@@std@@@std@@IBE?AU?$pair@Vconst_iterator@?$_Tree@V?$_Tmap_traits@V?$basic_string@DU?$char_traits@D@std@@V?$allocator@D@2@@std@@VValue@Json@VA@@U?$less@V?$basic_string@DU?$char_traits@D@std@@V?$allocator@D@2@@std@@@2@V?$allocator@U?$pair@$$CBV?$basic_string@DU?$char_traits@D@std@@V?$allocator@D@2@@std@@VValue@Json@VA@@@std@@@2@$0A@@std@@@std@@V123@@2@ABV?$basic_string@DU?$char_traits@D@std@@V?$allocator@D@2@@2@@Z 101154a0 f i MscUploadDict.obj
 0002:000666b0       ?_Insert@?$_Tree@V?$_Tmap_traits@V?$basic_string@DU?$char_traits@D@std@@V?$allocator@D@2@@std@@VValue@Json@VA@@U?$less@V?$basic_string@DU?$char_traits@D@std@@V?$allocator@D@2@@std@@@2@V?$allocator@U?$pair@$$CBV?$basic_string@DU?$char_traits@D@std@@V?$allocator@D@2@@std@@VValue@Json@VA@@@std@@@2@$0A@@std@@@std@@IAE?AViterator@12@_NPAU_Node@?$_Tree_nod@V?$_Tmap_traits@V?$basic_string@DU?$char_traits@D@std@@V?$allocator@D@2@@std@@VValue@Json@VA@@U?$less@V?$basic_string@DU?$char_traits@D@std@@V?$allocator@D@2@@std@@@2@V?$allocator@U?$pair@$$CBV?$basic_string@DU?$char_traits@D@std@@V?$allocator@D@2@@std@@VValue@Json@VA@@@std@@@2@$0A@@std@@@2@ABU?$pair@$$CBV?$basic_string@DU?$char_traits@D@std@@V?$allocator@D@2@@std@@VValue@Json@VA@@@2@@Z 101156b0 f i MscUploadDict.obj
 0002:00066c60       ?_Lbound@?$_Tree@V?$_Tmap_traits@V?$basic_string@DU?$char_traits@D@std@@V?$allocator@D@2@@std@@VValue@Json@VA@@U?$less@V?$basic_string@DU?$char_traits@D@std@@V?$allocator@D@2@@std@@@2@V?$allocator@U?$pair@$$CBV?$basic_string@DU?$char_traits@D@std@@V?$allocator@D@2@@std@@VValue@Json@VA@@@std@@@2@$0A@@std@@@std@@IBEPAU_Node@?$_Tree_nod@V?$_Tmap_traits@V?$basic_string@DU?$char_traits@D@std@@V?$allocator@D@2@@std@@VValue@Json@VA@@U?$less@V?$basic_string@DU?$char_traits@D@std@@V?$allocator@D@2@@std@@@2@V?$allocator@U?$pair@$$CBV?$basic_string@DU?$char_traits@D@std@@V?$allocator@D@2@@std@@VValue@Json@VA@@@std@@@2@$0A@@std@@@2@ABV?$basic_string@DU?$char_traits@D@std@@V?$allocator@D@2@@2@@Z 10115c60 f i MscUploadDict.obj
 0002:00066d20       ?_Kfn@?$_Tmap_traits@V?$basic_string@DU?$char_traits@D@std@@V?$allocator@D@2@@std@@VValue@Json@VA@@U?$less@V?$basic_string@DU?$char_traits@D@std@@V?$allocator@D@2@@std@@@2@V?$allocator@U?$pair@$$CBV?$basic_string@DU?$char_traits@D@std@@V?$allocator@D@2@@std@@VValue@Json@VA@@@std@@@2@$0A@@std@@SAABV?$basic_string@DU?$char_traits@D@std@@V?$allocator@D@2@@2@ABU?$pair@$$CBV?$basic_string@DU?$char_traits@D@std@@V?$allocator@D@2@@std@@VValue@Json@VA@@@2@@Z 10115d20 f i MscUploadDict.obj
 0002:00066d40       ??Dconst_iterator@?$_Tree@V?$_Tmap_traits@V?$basic_string@DU?$char_traits@D@std@@V?$allocator@D@2@@std@@VValue@Json@VA@@U?$less@V?$basic_string@DU?$char_traits@D@std@@V?$allocator@D@2@@std@@@2@V?$allocator@U?$pair@$$CBV?$basic_string@DU?$char_traits@D@std@@V?$allocator@D@2@@std@@VValue@Json@VA@@@std@@@2@$0A@@std@@@std@@QBEABU?$pair@$$CBV?$basic_string@DU?$char_traits@D@std@@V?$allocator@D@2@@std@@VValue@Json@VA@@@2@XZ 10115d40 f i MscUploadDict.obj
 0002:00066db0       ??Fconst_iterator@?$_Tree@V?$_Tmap_traits@V?$basic_string@DU?$char_traits@D@std@@V?$allocator@D@2@@std@@VValue@Json@VA@@U?$less@V?$basic_string@DU?$char_traits@D@std@@V?$allocator@D@2@@std@@@2@V?$allocator@U?$pair@$$CBV?$basic_string@DU?$char_traits@D@std@@V?$allocator@D@2@@std@@VValue@Json@VA@@@std@@@2@$0A@@std@@@std@@QAEAAV012@XZ 10115db0 f i MscUploadDict.obj
 0002:00066de0       ?_Color@?$_Tree@V?$_Tmap_traits@V?$basic_string@DU?$char_traits@D@std@@V?$allocator@D@2@@std@@VCloudDictBuilder@VA@@U?$less@V?$basic_string@DU?$char_traits@D@std@@V?$allocator@D@2@@std@@@2@V?$allocator@U?$pair@$$CBV?$basic_string@DU?$char_traits@D@std@@V?$allocator@D@2@@std@@VCloudDictBuilder@VA@@@std@@@2@$0A@@std@@@std@@KAAADPAU_Node@?$_Tree_nod@V?$_Tmap_traits@V?$basic_string@DU?$char_traits@D@std@@V?$allocator@D@2@@std@@VCloudDictBuilder@VA@@U?$less@V?$basic_string@DU?$char_traits@D@std@@V?$allocator@D@2@@std@@@2@V?$allocator@U?$pair@$$CBV?$basic_string@DU?$char_traits@D@std@@V?$allocator@D@2@@std@@VCloudDictBuilder@VA@@@std@@@2@$0A@@std@@@2@@Z 10115de0 f i MscUploadDict.obj
 0002:00066e00       ?_Parent@?$_Tree@V?$_Tmap_traits@V?$basic_string@DU?$char_traits@D@std@@V?$allocator@D@2@@std@@VCloudDictBuilder@VA@@U?$less@V?$basic_string@DU?$char_traits@D@std@@V?$allocator@D@2@@std@@@2@V?$allocator@U?$pair@$$CBV?$basic_string@DU?$char_traits@D@std@@V?$allocator@D@2@@std@@VCloudDictBuilder@VA@@@std@@@2@$0A@@std@@@std@@KAAAPAU_Node@?$_Tree_nod@V?$_Tmap_traits@V?$basic_string@DU?$char_traits@D@std@@V?$allocator@D@2@@std@@VCloudDictBuilder@VA@@U?$less@V?$basic_string@DU?$char_traits@D@std@@V?$allocator@D@2@@std@@@2@V?$allocator@U?$pair@$$CBV?$basic_string@DU?$char_traits@D@std@@V?$allocator@D@2@@std@@VCloudDictBuilder@VA@@@std@@@2@$0A@@std@@@2@PAU342@@Z 10115e00 f i MscUploadDict.obj
 0002:00066e20       ?_Myval@?$_Tree@V?$_Tmap_traits@V?$basic_string@DU?$char_traits@D@std@@V?$allocator@D@2@@std@@VCloudDictBuilder@VA@@U?$less@V?$basic_string@DU?$char_traits@D@std@@V?$allocator@D@2@@std@@@2@V?$allocator@U?$pair@$$CBV?$basic_string@DU?$char_traits@D@std@@V?$allocator@D@2@@std@@VCloudDictBuilder@VA@@@std@@@2@$0A@@std@@@std@@KAAAU?$pair@$$CBV?$basic_string@DU?$char_traits@D@std@@V?$allocator@D@2@@std@@VCloudDictBuilder@VA@@@2@PAU_Node@?$_Tree_nod@V?$_Tmap_traits@V?$basic_string@DU?$char_traits@D@std@@V?$allocator@D@2@@std@@VCloudDictBuilder@VA@@U?$less@V?$basic_string@DU?$char_traits@D@std@@V?$allocator@D@2@@std@@@2@V?$allocator@U?$pair@$$CBV?$basic_string@DU?$char_traits@D@std@@V?$allocator@D@2@@std@@VCloudDictBuilder@VA@@@std@@@2@$0A@@std@@@2@@Z 10115e20 f i MscUploadDict.obj
 0002:00066e40       ?size@?$_Tree@V?$_Tmap_traits@V?$basic_string@DU?$char_traits@D@std@@V?$allocator@D@2@@std@@VCloudDictBuilder@VA@@U?$less@V?$basic_string@DU?$char_traits@D@std@@V?$allocator@D@2@@std@@@2@V?$allocator@U?$pair@$$CBV?$basic_string@DU?$char_traits@D@std@@V?$allocator@D@2@@std@@VCloudDictBuilder@VA@@@std@@@2@$0A@@std@@@std@@QBEIXZ 10115e40 f i MscUploadDict.obj
 0002:00066e60       ?max_size@?$_Tree@V?$_Tmap_traits@V?$basic_string@DU?$char_traits@D@std@@V?$allocator@D@2@@std@@VCloudDictBuilder@VA@@U?$less@V?$basic_string@DU?$char_traits@D@std@@V?$allocator@D@2@@std@@@2@V?$allocator@U?$pair@$$CBV?$basic_string@DU?$char_traits@D@std@@V?$allocator@D@2@@std@@VCloudDictBuilder@VA@@@std@@@2@$0A@@std@@@std@@QBEIXZ 10115e60 f i MscUploadDict.obj
 0002:00066e90       ?erase@?$_Tree@V?$_Tmap_traits@V?$basic_string@DU?$char_traits@D@std@@V?$allocator@D@2@@std@@VCloudDictBuilder@VA@@U?$less@V?$basic_string@DU?$char_traits@D@std@@V?$allocator@D@2@@std@@@2@V?$allocator@U?$pair@$$CBV?$basic_string@DU?$char_traits@D@std@@V?$allocator@D@2@@std@@VCloudDictBuilder@VA@@@std@@@2@$0A@@std@@@std@@QAE?AViterator@12@Vconst_iterator@12@0@Z 10115e90 f i MscUploadDict.obj
 0002:00066f80       ?_Init@?$_Tree@V?$_Tmap_traits@V?$basic_string@DU?$char_traits@D@std@@V?$allocator@D@2@@std@@VCloudDictBuilder@VA@@U?$less@V?$basic_string@DU?$char_traits@D@std@@V?$allocator@D@2@@std@@@2@V?$allocator@U?$pair@$$CBV?$basic_string@DU?$char_traits@D@std@@V?$allocator@D@2@@std@@VCloudDictBuilder@VA@@@std@@@2@$0A@@std@@@std@@IAEXXZ 10115f80 f i MscUploadDict.obj
 0002:00067010       ?_Lbound@?$_Tree@V?$_Tmap_traits@V?$basic_string@DU?$char_traits@D@std@@V?$allocator@D@2@@std@@VCloudDictBuilder@VA@@U?$less@V?$basic_string@DU?$char_traits@D@std@@V?$allocator@D@2@@std@@@2@V?$allocator@U?$pair@$$CBV?$basic_string@DU?$char_traits@D@std@@V?$allocator@D@2@@std@@VCloudDictBuilder@VA@@@std@@@2@$0A@@std@@@std@@IBEPAU_Node@?$_Tree_nod@V?$_Tmap_traits@V?$basic_string@DU?$char_traits@D@std@@V?$allocator@D@2@@std@@VCloudDictBuilder@VA@@U?$less@V?$basic_string@DU?$char_traits@D@std@@V?$allocator@D@2@@std@@@2@V?$allocator@U?$pair@$$CBV?$basic_string@DU?$char_traits@D@std@@V?$allocator@D@2@@std@@VCloudDictBuilder@VA@@@std@@@2@$0A@@std@@@2@ABV?$basic_string@DU?$char_traits@D@std@@V?$allocator@D@2@@2@@Z 10116010 f i MscUploadDict.obj
 0002:000670d0       ?_Lrotate@?$_Tree@V?$_Tmap_traits@V?$basic_string@DU?$char_traits@D@std@@V?$allocator@D@2@@std@@VCloudDictBuilder@VA@@U?$less@V?$basic_string@DU?$char_traits@D@std@@V?$allocator@D@2@@std@@@2@V?$allocator@U?$pair@$$CBV?$basic_string@DU?$char_traits@D@std@@V?$allocator@D@2@@std@@VCloudDictBuilder@VA@@@std@@@2@$0A@@std@@@std@@IAEXPAU_Node@?$_Tree_nod@V?$_Tmap_traits@V?$basic_string@DU?$char_traits@D@std@@V?$allocator@D@2@@std@@VCloudDictBuilder@VA@@U?$less@V?$basic_string@DU?$char_traits@D@std@@V?$allocator@D@2@@std@@@2@V?$allocator@U?$pair@$$CBV?$basic_string@DU?$char_traits@D@std@@V?$allocator@D@2@@std@@VCloudDictBuilder@VA@@@std@@@2@$0A@@std@@@2@@Z 101160d0 f i MscUploadDict.obj
 0002:00067260       ?_Rmost@?$_Tree@V?$_Tmap_traits@V?$basic_string@DU?$char_traits@D@std@@V?$allocator@D@2@@std@@VCloudDictBuilder@VA@@U?$less@V?$basic_string@DU?$char_traits@D@std@@V?$allocator@D@2@@std@@@2@V?$allocator@U?$pair@$$CBV?$basic_string@DU?$char_traits@D@std@@V?$allocator@D@2@@std@@VCloudDictBuilder@VA@@@std@@@2@$0A@@std@@@std@@IBEAAPAU_Node@?$_Tree_nod@V?$_Tmap_traits@V?$basic_string@DU?$char_traits@D@std@@V?$allocator@D@2@@std@@VCloudDictBuilder@VA@@U?$less@V?$basic_string@DU?$char_traits@D@std@@V?$allocator@D@2@@std@@@2@V?$allocator@U?$pair@$$CBV?$basic_string@DU?$char_traits@D@std@@V?$allocator@D@2@@std@@VCloudDictBuilder@VA@@@std@@@2@$0A@@std@@@2@XZ 10116260 f i MscUploadDict.obj
 0002:00067290       ?_Rrotate@?$_Tree@V?$_Tmap_traits@V?$basic_string@DU?$char_traits@D@std@@V?$allocator@D@2@@std@@VCloudDictBuilder@VA@@U?$less@V?$basic_string@DU?$char_traits@D@std@@V?$allocator@D@2@@std@@@2@V?$allocator@U?$pair@$$CBV?$basic_string@DU?$char_traits@D@std@@V?$allocator@D@2@@std@@VCloudDictBuilder@VA@@@std@@@2@$0A@@std@@@std@@IAEXPAU_Node@?$_Tree_nod@V?$_Tmap_traits@V?$basic_string@DU?$char_traits@D@std@@V?$allocator@D@2@@std@@VCloudDictBuilder@VA@@U?$less@V?$basic_string@DU?$char_traits@D@std@@V?$allocator@D@2@@std@@@2@V?$allocator@U?$pair@$$CBV?$basic_string@DU?$char_traits@D@std@@V?$allocator@D@2@@std@@VCloudDictBuilder@VA@@@std@@@2@$0A@@std@@@2@@Z 10116290 f i MscUploadDict.obj
 0002:00067420       ?_Buynode@?$_Tree@V?$_Tmap_traits@V?$basic_string@DU?$char_traits@D@std@@V?$allocator@D@2@@std@@VCloudDictBuilder@VA@@U?$less@V?$basic_string@DU?$char_traits@D@std@@V?$allocator@D@2@@std@@@2@V?$allocator@U?$pair@$$CBV?$basic_string@DU?$char_traits@D@std@@V?$allocator@D@2@@std@@VCloudDictBuilder@VA@@@std@@@2@$0A@@std@@@std@@IAEPAU_Node@?$_Tree_nod@V?$_Tmap_traits@V?$basic_string@DU?$char_traits@D@std@@V?$allocator@D@2@@std@@VCloudDictBuilder@VA@@U?$less@V?$basic_string@DU?$char_traits@D@std@@V?$allocator@D@2@@std@@@2@V?$allocator@U?$pair@$$CBV?$basic_string@DU?$char_traits@D@std@@V?$allocator@D@2@@std@@VCloudDictBuilder@VA@@@std@@@2@$0A@@std@@@2@PAU342@00ABU?$pair@$$CBV?$basic_string@DU?$char_traits@D@std@@V?$allocator@D@2@@std@@VCloudDictBuilder@VA@@@2@D@Z 10116420 f i MscUploadDict.obj
 0002:00067540       ??0?$_Tree_val@V?$_Tmap_traits@V?$basic_string@DU?$char_traits@D@std@@V?$allocator@D@2@@std@@VCloudDictBuilder@VA@@U?$less@V?$basic_string@DU?$char_traits@D@std@@V?$allocator@D@2@@std@@@2@V?$allocator@U?$pair@$$CBV?$basic_string@DU?$char_traits@D@std@@V?$allocator@D@2@@std@@VCloudDictBuilder@VA@@@std@@@2@$0A@@std@@@std@@IAE@ABU?$less@V?$basic_string@DU?$char_traits@D@std@@V?$allocator@D@2@@std@@@1@V?$allocator@U?$pair@$$CBV?$basic_string@DU?$char_traits@D@std@@V?$allocator@D@2@@std@@VCloudDictBuilder@VA@@@std@@@1@@Z 10116540 f i MscUploadDict.obj
 0002:000675a0       ??0?$allocator@U?$pair@$$CBV?$basic_string@DU?$char_traits@D@std@@V?$allocator@D@2@@std@@VCloudDictBuilder@VA@@@std@@@std@@QAE@ABV01@@Z 101165a0 f i MscUploadDict.obj
 0002:000675c0       ?deallocate@?$allocator@U_Node@?$_Tree_nod@V?$_Tmap_traits@V?$basic_string@DU?$char_traits@D@std@@V?$allocator@D@2@@std@@VCloudDictBuilder@VA@@U?$less@V?$basic_string@DU?$char_traits@D@std@@V?$allocator@D@2@@std@@@2@V?$allocator@U?$pair@$$CBV?$basic_string@DU?$char_traits@D@std@@V?$allocator@D@2@@std@@VCloudDictBuilder@VA@@@std@@@2@$0A@@std@@@std@@@std@@QAEXPAU_Node@?$_Tree_nod@V?$_Tmap_traits@V?$basic_string@DU?$char_traits@D@std@@V?$allocator@D@2@@std@@VCloudDictBuilder@VA@@U?$less@V?$basic_string@DU?$char_traits@D@std@@V?$allocator@D@2@@std@@@2@V?$allocator@U?$pair@$$CBV?$basic_string@DU?$char_traits@D@std@@V?$allocator@D@2@@std@@VCloudDictBuilder@VA@@@std@@@2@$0A@@std@@@2@I@Z 101165c0 f i MscUploadDict.obj
 0002:000675f0       ?destroy@?$allocator@PAU_Node@?$_Tree_nod@V?$_Tmap_traits@V?$basic_string@DU?$char_traits@D@std@@V?$allocator@D@2@@std@@VCloudDictBuilder@VA@@U?$less@V?$basic_string@DU?$char_traits@D@std@@V?$allocator@D@2@@std@@@2@V?$allocator@U?$pair@$$CBV?$basic_string@DU?$char_traits@D@std@@V?$allocator@D@2@@std@@VCloudDictBuilder@VA@@@std@@@2@$0A@@std@@@std@@@std@@QAEXPAPAU_Node@?$_Tree_nod@V?$_Tmap_traits@V?$basic_string@DU?$char_traits@D@std@@V?$allocator@D@2@@std@@VCloudDictBuilder@VA@@U?$less@V?$basic_string@DU?$char_traits@D@std@@V?$allocator@D@2@@std@@@2@V?$allocator@U?$pair@$$CBV?$basic_string@DU?$char_traits@D@std@@V?$allocator@D@2@@std@@VCloudDictBuilder@VA@@@std@@@2@$0A@@std@@@2@@Z 101165f0 f i MscUploadDict.obj
 0002:00067620       ??0const_iterator@?$_Tree@V?$_Tmap_traits@V?$basic_string@DU?$char_traits@D@std@@V?$allocator@D@2@@std@@VCloudDictBuilder@VA@@U?$less@V?$basic_string@DU?$char_traits@D@std@@V?$allocator@D@2@@std@@@2@V?$allocator@U?$pair@$$CBV?$basic_string@DU?$char_traits@D@std@@V?$allocator@D@2@@std@@VCloudDictBuilder@VA@@@std@@@2@$0A@@std@@@std@@QAE@PAU_Node@?$_Tree_nod@V?$_Tmap_traits@V?$basic_string@DU?$char_traits@D@std@@V?$allocator@D@2@@std@@VCloudDictBuilder@VA@@U?$less@V?$basic_string@DU?$char_traits@D@std@@V?$allocator@D@2@@std@@@2@V?$allocator@U?$pair@$$CBV?$basic_string@DU?$char_traits@D@std@@V?$allocator@D@2@@std@@VCloudDictBuilder@VA@@@std@@@2@$0A@@std@@@2@PBV12@@Z 10116620 f i MscUploadDict.obj
 0002:00067680       ??Dconst_iterator@?$_Tree@V?$_Tmap_traits@V?$basic_string@DU?$char_traits@D@std@@V?$allocator@D@2@@std@@VCloudDictBuilder@VA@@U?$less@V?$basic_string@DU?$char_traits@D@std@@V?$allocator@D@2@@std@@@2@V?$allocator@U?$pair@$$CBV?$basic_string@DU?$char_traits@D@std@@V?$allocator@D@2@@std@@VCloudDictBuilder@VA@@@std@@@2@$0A@@std@@@std@@QBEABU?$pair@$$CBV?$basic_string@DU?$char_traits@D@std@@V?$allocator@D@2@@std@@VCloudDictBuilder@VA@@@2@XZ 10116680 f i MscUploadDict.obj
 0002:000676f0       ??Fconst_iterator@?$_Tree@V?$_Tmap_traits@V?$basic_string@DU?$char_traits@D@std@@V?$allocator@D@2@@std@@VCloudDictBuilder@VA@@U?$less@V?$basic_string@DU?$char_traits@D@std@@V?$allocator@D@2@@std@@@2@V?$allocator@U?$pair@$$CBV?$basic_string@DU?$char_traits@D@std@@V?$allocator@D@2@@std@@VCloudDictBuilder@VA@@@std@@@2@$0A@@std@@@std@@QAEAAV012@XZ 101166f0 f i MscUploadDict.obj
 0002:00067720       ?_Inc@const_iterator@?$_Tree@V?$_Tmap_traits@V?$basic_string@DU?$char_traits@D@std@@V?$allocator@D@2@@std@@VCloudDictBuilder@VA@@U?$less@V?$basic_string@DU?$char_traits@D@std@@V?$allocator@D@2@@std@@@2@V?$allocator@U?$pair@$$CBV?$basic_string@DU?$char_traits@D@std@@V?$allocator@D@2@@std@@VCloudDictBuilder@VA@@@std@@@2@$0A@@std@@@std@@QAEXXZ 10116720 f i MscUploadDict.obj
 0002:00067840       ?max_size@?$_Tree@V?$_Tmap_traits@V?$basic_string@DU?$char_traits@D@std@@V?$allocator@D@2@@std@@VValue@Json@VA@@U?$less@V?$basic_string@DU?$char_traits@D@std@@V?$allocator@D@2@@std@@@2@V?$allocator@U?$pair@$$CBV?$basic_string@DU?$char_traits@D@std@@V?$allocator@D@2@@std@@VValue@Json@VA@@@std@@@2@$0A@@std@@@std@@QBEIXZ 10116840 f i MscUploadDict.obj
 0002:00067870       ?_Buynode@?$_Tree@V?$_Tmap_traits@V?$basic_string@DU?$char_traits@D@std@@V?$allocator@D@2@@std@@VValue@Json@VA@@U?$less@V?$basic_string@DU?$char_traits@D@std@@V?$allocator@D@2@@std@@@2@V?$allocator@U?$pair@$$CBV?$basic_string@DU?$char_traits@D@std@@V?$allocator@D@2@@std@@VValue@Json@VA@@@std@@@2@$0A@@std@@@std@@IAEPAU_Node@?$_Tree_nod@V?$_Tmap_traits@V?$basic_string@DU?$char_traits@D@std@@V?$allocator@D@2@@std@@VValue@Json@VA@@U?$less@V?$basic_string@DU?$char_traits@D@std@@V?$allocator@D@2@@std@@@2@V?$allocator@U?$pair@$$CBV?$basic_string@DU?$char_traits@D@std@@V?$allocator@D@2@@std@@VValue@Json@VA@@@std@@@2@$0A@@std@@@2@PAU342@00ABU?$pair@$$CBV?$basic_string@DU?$char_traits@D@std@@V?$allocator@D@2@@std@@VValue@Json@VA@@@2@D@Z 10116870 f i MscUploadDict.obj
 0002:00067990       ??Fiterator@?$_Tree@V?$_Tmap_traits@V?$basic_string@DU?$char_traits@D@std@@V?$allocator@D@2@@std@@VValue@Json@VA@@U?$less@V?$basic_string@DU?$char_traits@D@std@@V?$allocator@D@2@@std@@@2@V?$allocator@U?$pair@$$CBV?$basic_string@DU?$char_traits@D@std@@V?$allocator@D@2@@std@@VValue@Json@VA@@@std@@@2@$0A@@std@@@std@@QAEAAV012@XZ 10116990 f i MscUploadDict.obj
 0002:000679c0       ?_Dec@const_iterator@?$_Tree@V?$_Tmap_traits@V?$basic_string@DU?$char_traits@D@std@@V?$allocator@D@2@@std@@VValue@Json@VA@@U?$less@V?$basic_string@DU?$char_traits@D@std@@V?$allocator@D@2@@std@@@2@V?$allocator@U?$pair@$$CBV?$basic_string@DU?$char_traits@D@std@@V?$allocator@D@2@@std@@VValue@Json@VA@@@std@@@2@$0A@@std@@@std@@QAEXXZ 101169c0 f i MscUploadDict.obj
 0002:00067b40       ?_Make_iter@?$_Tree@V?$_Tmap_traits@V?$basic_string@DU?$char_traits@D@std@@V?$allocator@D@2@@std@@VCloudDictBuilder@VA@@U?$less@V?$basic_string@DU?$char_traits@D@std@@V?$allocator@D@2@@std@@@2@V?$allocator@U?$pair@$$CBV?$basic_string@DU?$char_traits@D@std@@V?$allocator@D@2@@std@@VCloudDictBuilder@VA@@@std@@@2@$0A@@std@@@std@@QBE?AViterator@12@Vconst_iterator@12@@Z 10116b40 f i MscUploadDict.obj
 0002:00067b90       ?erase@?$_Tree@V?$_Tmap_traits@V?$basic_string@DU?$char_traits@D@std@@V?$allocator@D@2@@std@@VCloudDictBuilder@VA@@U?$less@V?$basic_string@DU?$char_traits@D@std@@V?$allocator@D@2@@std@@@2@V?$allocator@U?$pair@$$CBV?$basic_string@DU?$char_traits@D@std@@V?$allocator@D@2@@std@@VCloudDictBuilder@VA@@@std@@@2@$0A@@std@@@std@@QAE?AViterator@12@Vconst_iterator@12@@Z 10116b90 f i MscUploadDict.obj
 0002:00068580       ?clear@?$_Tree@V?$_Tmap_traits@V?$basic_string@DU?$char_traits@D@std@@V?$allocator@D@2@@std@@VCloudDictBuilder@VA@@U?$less@V?$basic_string@DU?$char_traits@D@std@@V?$allocator@D@2@@std@@@2@V?$allocator@U?$pair@$$CBV?$basic_string@DU?$char_traits@D@std@@V?$allocator@D@2@@std@@VCloudDictBuilder@VA@@@std@@@2@$0A@@std@@@std@@QAEXXZ 10117580 f i MscUploadDict.obj
 0002:00068600       ?_Min@?$_Tree@V?$_Tmap_traits@V?$basic_string@DU?$char_traits@D@std@@V?$allocator@D@2@@std@@VCloudDictBuilder@VA@@U?$less@V?$basic_string@DU?$char_traits@D@std@@V?$allocator@D@2@@std@@@2@V?$allocator@U?$pair@$$CBV?$basic_string@DU?$char_traits@D@std@@V?$allocator@D@2@@std@@VCloudDictBuilder@VA@@@std@@@2@$0A@@std@@@std@@KAPAU_Node@?$_Tree_nod@V?$_Tmap_traits@V?$basic_string@DU?$char_traits@D@std@@V?$allocator@D@2@@std@@VCloudDictBuilder@VA@@U?$less@V?$basic_string@DU?$char_traits@D@std@@V?$allocator@D@2@@std@@@2@V?$allocator@U?$pair@$$CBV?$basic_string@DU?$char_traits@D@std@@V?$allocator@D@2@@std@@VCloudDictBuilder@VA@@@std@@@2@$0A@@std@@@2@PAU342@@Z 10117600 f i MscUploadDict.obj
 0002:00068660       ?_Buynode@?$_Tree@V?$_Tmap_traits@V?$basic_string@DU?$char_traits@D@std@@V?$allocator@D@2@@std@@VCloudDictBuilder@VA@@U?$less@V?$basic_string@DU?$char_traits@D@std@@V?$allocator@D@2@@std@@@2@V?$allocator@U?$pair@$$CBV?$basic_string@DU?$char_traits@D@std@@V?$allocator@D@2@@std@@VCloudDictBuilder@VA@@@std@@@2@$0A@@std@@@std@@IAEPAU_Node@?$_Tree_nod@V?$_Tmap_traits@V?$basic_string@DU?$char_traits@D@std@@V?$allocator@D@2@@std@@VCloudDictBuilder@VA@@U?$less@V?$basic_string@DU?$char_traits@D@std@@V?$allocator@D@2@@std@@@2@V?$allocator@U?$pair@$$CBV?$basic_string@DU?$char_traits@D@std@@V?$allocator@D@2@@std@@VCloudDictBuilder@VA@@@std@@@2@$0A@@std@@@2@XZ 10117660 f i MscUploadDict.obj
 0002:00068840       ??0?$_Tree_ptr@V?$_Tmap_traits@V?$basic_string@DU?$char_traits@D@std@@V?$allocator@D@2@@std@@VCloudDictBuilder@VA@@U?$less@V?$basic_string@DU?$char_traits@D@std@@V?$allocator@D@2@@std@@@2@V?$allocator@U?$pair@$$CBV?$basic_string@DU?$char_traits@D@std@@V?$allocator@D@2@@std@@VCloudDictBuilder@VA@@@std@@@2@$0A@@std@@@std@@IAE@ABU?$less@V?$basic_string@DU?$char_traits@D@std@@V?$allocator@D@2@@std@@@1@V?$allocator@U?$pair@$$CBV?$basic_string@DU?$char_traits@D@std@@V?$allocator@D@2@@std@@VCloudDictBuilder@VA@@@std@@@1@@Z 10117840 f i MscUploadDict.obj
 0002:000688a0       ?max_size@?$allocator@U?$pair@$$CBV?$basic_string@DU?$char_traits@D@std@@V?$allocator@D@2@@std@@VCloudDictBuilder@VA@@@std@@@std@@QBEIXZ 101178a0 f i MscUploadDict.obj
 0002:000688e0       ?allocate@?$allocator@U_Node@?$_Tree_nod@V?$_Tmap_traits@V?$basic_string@DU?$char_traits@D@std@@V?$allocator@D@2@@std@@VCloudDictBuilder@VA@@U?$less@V?$basic_string@DU?$char_traits@D@std@@V?$allocator@D@2@@std@@@2@V?$allocator@U?$pair@$$CBV?$basic_string@DU?$char_traits@D@std@@V?$allocator@D@2@@std@@VCloudDictBuilder@VA@@@std@@@2@$0A@@std@@@std@@@std@@QAEPAU_Node@?$_Tree_nod@V?$_Tmap_traits@V?$basic_string@DU?$char_traits@D@std@@V?$allocator@D@2@@std@@VCloudDictBuilder@VA@@U?$less@V?$basic_string@DU?$char_traits@D@std@@V?$allocator@D@2@@std@@@2@V?$allocator@U?$pair@$$CBV?$basic_string@DU?$char_traits@D@std@@V?$allocator@D@2@@std@@VCloudDictBuilder@VA@@@std@@@2@$0A@@std@@@2@I@Z 101178e0 f i MscUploadDict.obj
 0002:00068910       ??Econst_iterator@?$_Tree@V?$_Tmap_traits@V?$basic_string@DU?$char_traits@D@std@@V?$allocator@D@2@@std@@VCloudDictBuilder@VA@@U?$less@V?$basic_string@DU?$char_traits@D@std@@V?$allocator@D@2@@std@@@2@V?$allocator@U?$pair@$$CBV?$basic_string@DU?$char_traits@D@std@@V?$allocator@D@2@@std@@VCloudDictBuilder@VA@@@std@@@2@$0A@@std@@@std@@QAE?AV012@H@Z 10117910 f i MscUploadDict.obj
 0002:00068960       ?_Dec@const_iterator@?$_Tree@V?$_Tmap_traits@V?$basic_string@DU?$char_traits@D@std@@V?$allocator@D@2@@std@@VCloudDictBuilder@VA@@U?$less@V?$basic_string@DU?$char_traits@D@std@@V?$allocator@D@2@@std@@@2@V?$allocator@U?$pair@$$CBV?$basic_string@DU?$char_traits@D@std@@V?$allocator@D@2@@std@@VCloudDictBuilder@VA@@@std@@@2@$0A@@std@@@std@@QAEXXZ 10117960 f i MscUploadDict.obj
 0002:00068ae0       ??0?$pair@Vconst_iterator@?$_Tree@V?$_Tmap_traits@V?$basic_string@DU?$char_traits@D@std@@V?$allocator@D@2@@std@@VValue@Json@VA@@U?$less@V?$basic_string@DU?$char_traits@D@std@@V?$allocator@D@2@@std@@@2@V?$allocator@U?$pair@$$CBV?$basic_string@DU?$char_traits@D@std@@V?$allocator@D@2@@std@@VValue@Json@VA@@@std@@@2@$0A@@std@@@std@@V123@@std@@QAE@ABVconst_iterator@?$_Tree@V?$_Tmap_traits@V?$basic_string@DU?$char_traits@D@std@@V?$allocator@D@2@@std@@VValue@Json@VA@@U?$less@V?$basic_string@DU?$char_traits@D@std@@V?$allocator@D@2@@std@@@2@V?$allocator@U?$pair@$$CBV?$basic_string@DU?$char_traits@D@std@@V?$allocator@D@2@@std@@VValue@Json@VA@@@std@@@2@$0A@@std@@@1@0@Z 10117ae0 f i MscUploadDict.obj
 0002:00068b30       ??0?$pair@Viterator@?$_Tree@V?$_Tmap_traits@V?$basic_string@DU?$char_traits@D@std@@V?$allocator@D@2@@std@@VValue@Json@VA@@U?$less@V?$basic_string@DU?$char_traits@D@std@@V?$allocator@D@2@@std@@@2@V?$allocator@U?$pair@$$CBV?$basic_string@DU?$char_traits@D@std@@V?$allocator@D@2@@std@@VValue@Json@VA@@@std@@@2@$0A@@std@@@std@@_N@std@@QAE@ABViterator@?$_Tree@V?$_Tmap_traits@V?$basic_string@DU?$char_traits@D@std@@V?$allocator@D@2@@std@@VValue@Json@VA@@U?$less@V?$basic_string@DU?$char_traits@D@std@@V?$allocator@D@2@@std@@@2@V?$allocator@U?$pair@$$CBV?$basic_string@DU?$char_traits@D@std@@V?$allocator@D@2@@std@@VValue@Json@VA@@@std@@@2@$0A@@std@@@1@AB_N@Z 10117b30 f i MscUploadDict.obj
 0002:00068b70       ??0_Node@?$_Tree_nod@V?$_Tmap_traits@V?$basic_string@DU?$char_traits@D@std@@V?$allocator@D@2@@std@@VCloudDictBuilder@VA@@U?$less@V?$basic_string@DU?$char_traits@D@std@@V?$allocator@D@2@@std@@@2@V?$allocator@U?$pair@$$CBV?$basic_string@DU?$char_traits@D@std@@V?$allocator@D@2@@std@@VCloudDictBuilder@VA@@@std@@@2@$0A@@std@@@std@@QAE@PAU012@00ABU?$pair@$$CBV?$basic_string@DU?$char_traits@D@std@@V?$allocator@D@2@@std@@VCloudDictBuilder@VA@@@2@D@Z 10117b70 f i MscUploadDict.obj
 0002:00068be0       ??0?$pair@$$CBV?$basic_string@DU?$char_traits@D@std@@V?$allocator@D@2@@std@@VCloudDictBuilder@VA@@@std@@QAE@ABU01@@Z 10117be0 f i MscUploadDict.obj
 0002:00068c70       ?max_size@?$allocator@U?$pair@$$CBV?$basic_string@DU?$char_traits@D@std@@V?$allocator@D@2@@std@@VValue@Json@VA@@@std@@@std@@QBEIXZ 10117c70 f i MscUploadDict.obj
 0002:00068cb0       ?_Erase@?$_Tree@V?$_Tmap_traits@V?$basic_string@DU?$char_traits@D@std@@V?$allocator@D@2@@std@@VCloudDictBuilder@VA@@U?$less@V?$basic_string@DU?$char_traits@D@std@@V?$allocator@D@2@@std@@@2@V?$allocator@U?$pair@$$CBV?$basic_string@DU?$char_traits@D@std@@V?$allocator@D@2@@std@@VCloudDictBuilder@VA@@@std@@@2@$0A@@std@@@std@@IAEXPAU_Node@?$_Tree_nod@V?$_Tmap_traits@V?$basic_string@DU?$char_traits@D@std@@V?$allocator@D@2@@std@@VCloudDictBuilder@VA@@U?$less@V?$basic_string@DU?$char_traits@D@std@@V?$allocator@D@2@@std@@@2@V?$allocator@U?$pair@$$CBV?$basic_string@DU?$char_traits@D@std@@V?$allocator@D@2@@std@@VCloudDictBuilder@VA@@@std@@@2@$0A@@std@@@2@@Z 10117cb0 f i MscUploadDict.obj
 0002:00068d50       ?_Max@?$_Tree@V?$_Tmap_traits@V?$basic_string@DU?$char_traits@D@std@@V?$allocator@D@2@@std@@VCloudDictBuilder@VA@@U?$less@V?$basic_string@DU?$char_traits@D@std@@V?$allocator@D@2@@std@@@2@V?$allocator@U?$pair@$$CBV?$basic_string@DU?$char_traits@D@std@@V?$allocator@D@2@@std@@VCloudDictBuilder@VA@@@std@@@2@$0A@@std@@@std@@KAPAU_Node@?$_Tree_nod@V?$_Tmap_traits@V?$basic_string@DU?$char_traits@D@std@@V?$allocator@D@2@@std@@VCloudDictBuilder@VA@@U?$less@V?$basic_string@DU?$char_traits@D@std@@V?$allocator@D@2@@std@@@2@V?$allocator@U?$pair@$$CBV?$basic_string@DU?$char_traits@D@std@@V?$allocator@D@2@@std@@VCloudDictBuilder@VA@@@std@@@2@$0A@@std@@@2@PAU342@@Z 10117d50 f i MscUploadDict.obj
 0002:00068db0       ??0?$_Tree_nod@V?$_Tmap_traits@V?$basic_string@DU?$char_traits@D@std@@V?$allocator@D@2@@std@@VCloudDictBuilder@VA@@U?$less@V?$basic_string@DU?$char_traits@D@std@@V?$allocator@D@2@@std@@@2@V?$allocator@U?$pair@$$CBV?$basic_string@DU?$char_traits@D@std@@V?$allocator@D@2@@std@@VCloudDictBuilder@VA@@@std@@@2@$0A@@std@@@std@@IAE@ABU?$less@V?$basic_string@DU?$char_traits@D@std@@V?$allocator@D@2@@std@@@1@V?$allocator@U?$pair@$$CBV?$basic_string@DU?$char_traits@D@std@@V?$allocator@D@2@@std@@VCloudDictBuilder@VA@@@std@@@1@@Z 10117db0 f i MscUploadDict.obj
 0002:00068e10       ?destroy@?$allocator@U_Node@?$_Tree_nod@V?$_Tmap_traits@V?$basic_string@DU?$char_traits@D@std@@V?$allocator@D@2@@std@@VCloudDictBuilder@VA@@U?$less@V?$basic_string@DU?$char_traits@D@std@@V?$allocator@D@2@@std@@@2@V?$allocator@U?$pair@$$CBV?$basic_string@DU?$char_traits@D@std@@V?$allocator@D@2@@std@@VCloudDictBuilder@VA@@@std@@@2@$0A@@std@@@std@@@std@@QAEXPAU_Node@?$_Tree_nod@V?$_Tmap_traits@V?$basic_string@DU?$char_traits@D@std@@V?$allocator@D@2@@std@@VCloudDictBuilder@VA@@U?$less@V?$basic_string@DU?$char_traits@D@std@@V?$allocator@D@2@@std@@@2@V?$allocator@U?$pair@$$CBV?$basic_string@DU?$char_traits@D@std@@V?$allocator@D@2@@std@@VCloudDictBuilder@VA@@@std@@@2@$0A@@std@@@2@@Z 10117e10 f i MscUploadDict.obj
 0002:00068e40       ?construct@?$allocator@PAU_Node@?$_Tree_nod@V?$_Tmap_traits@V?$basic_string@DU?$char_traits@D@std@@V?$allocator@D@2@@std@@VCloudDictBuilder@VA@@U?$less@V?$basic_string@DU?$char_traits@D@std@@V?$allocator@D@2@@std@@@2@V?$allocator@U?$pair@$$CBV?$basic_string@DU?$char_traits@D@std@@V?$allocator@D@2@@std@@VCloudDictBuilder@VA@@@std@@@2@$0A@@std@@@std@@@std@@QAEXPAPAU_Node@?$_Tree_nod@V?$_Tmap_traits@V?$basic_string@DU?$char_traits@D@std@@V?$allocator@D@2@@std@@VCloudDictBuilder@VA@@U?$less@V?$basic_string@DU?$char_traits@D@std@@V?$allocator@D@2@@std@@@2@V?$allocator@U?$pair@$$CBV?$basic_string@DU?$char_traits@D@std@@V?$allocator@D@2@@std@@VCloudDictBuilder@VA@@@std@@@2@$0A@@std@@@2@ABQAU342@@Z 10117e40 f i MscUploadDict.obj
 0002:00068e70       ??0_Node@?$_Tree_nod@V?$_Tmap_traits@V?$basic_string@DU?$char_traits@D@std@@V?$allocator@D@2@@std@@VValue@Json@VA@@U?$less@V?$basic_string@DU?$char_traits@D@std@@V?$allocator@D@2@@std@@@2@V?$allocator@U?$pair@$$CBV?$basic_string@DU?$char_traits@D@std@@V?$allocator@D@2@@std@@VValue@Json@VA@@@std@@@2@$0A@@std@@@std@@QAE@PAU012@00ABU?$pair@$$CBV?$basic_string@DU?$char_traits@D@std@@V?$allocator@D@2@@std@@VValue@Json@VA@@@2@D@Z 10117e70 f i MscUploadDict.obj
 0002:00068ee0       ??0?$pair@$$CBV?$basic_string@DU?$char_traits@D@std@@V?$allocator@D@2@@std@@VValue@Json@VA@@@std@@QAE@ABU01@@Z 10117ee0 f i MscUploadDict.obj
 0002:00068f70       ??0?$_Tmap_traits@V?$basic_string@DU?$char_traits@D@std@@V?$allocator@D@2@@std@@VCloudDictBuilder@VA@@U?$less@V?$basic_string@DU?$char_traits@D@std@@V?$allocator@D@2@@std@@@2@V?$allocator@U?$pair@$$CBV?$basic_string@DU?$char_traits@D@std@@V?$allocator@D@2@@std@@VCloudDictBuilder@VA@@@std@@@2@$0A@@std@@QAE@U?$less@V?$basic_string@DU?$char_traits@D@std@@V?$allocator@D@2@@std@@@1@V?$allocator@U?$pair@$$CBV?$basic_string@DU?$char_traits@D@std@@V?$allocator@D@2@@std@@VCloudDictBuilder@VA@@@std@@@1@@Z 10117f70 f i MscUploadDict.obj
 0002:00068fb0       ??0?$_Container_base_aux_alloc_real@V?$allocator@U?$pair@$$CBV?$basic_string@DU?$char_traits@D@std@@V?$allocator@D@2@@std@@VCloudDictBuilder@VA@@@std@@@std@@@std@@IAE@V?$allocator@U?$pair@$$CBV?$basic_string@DU?$char_traits@D@std@@V?$allocator@D@2@@std@@VCloudDictBuilder@VA@@@std@@@1@@Z 10117fb0 f i MscUploadDict.obj
 0002:000690a0       ??$make_pair@PBDVCloudDictBuilder@VA@@@std@@YA?AU?$pair@PBDVCloudDictBuilder@VA@@@0@PBDVCloudDictBuilder@VA@@@Z 101180a0 f i MscUploadDict.obj
 0002:00069130       ??$?0PBDVCloudDictBuilder@VA@@@?$pair@$$CBV?$basic_string@DU?$char_traits@D@std@@V?$allocator@D@2@@std@@VCloudDictBuilder@VA@@@std@@QAE@ABU?$pair@PBDVCloudDictBuilder@VA@@@1@@Z 10118130 f i MscUploadDict.obj
 0002:000691c0       ??$_Distance@Vconst_iterator@?$_Tree@V?$_Tmap_traits@V?$basic_string@DU?$char_traits@D@std@@V?$allocator@D@2@@std@@VValue@Json@VA@@U?$less@V?$basic_string@DU?$char_traits@D@std@@V?$allocator@D@2@@std@@@2@V?$allocator@U?$pair@$$CBV?$basic_string@DU?$char_traits@D@std@@V?$allocator@D@2@@std@@VValue@Json@VA@@@std@@@2@$0A@@std@@@std@@I@std@@YAXVconst_iterator@?$_Tree@V?$_Tmap_traits@V?$basic_string@DU?$char_traits@D@std@@V?$allocator@D@2@@std@@VValue@Json@VA@@U?$less@V?$basic_string@DU?$char_traits@D@std@@V?$allocator@D@2@@std@@@2@V?$allocator@U?$pair@$$CBV?$basic_string@DU?$char_traits@D@std@@V?$allocator@D@2@@std@@VValue@Json@VA@@@std@@@2@$0A@@std@@@0@0AAI@Z 101181c0 f i MscUploadDict.obj
 0002:00069210       ??$_Destroy@PAU_Node@?$_Tree_nod@V?$_Tmap_traits@V?$basic_string@DU?$char_traits@D@std@@V?$allocator@D@2@@std@@VCloudDictBuilder@VA@@U?$less@V?$basic_string@DU?$char_traits@D@std@@V?$allocator@D@2@@std@@@2@V?$allocator@U?$pair@$$CBV?$basic_string@DU?$char_traits@D@std@@V?$allocator@D@2@@std@@VCloudDictBuilder@VA@@@std@@@2@$0A@@std@@@std@@@std@@YAXPAPAU_Node@?$_Tree_nod@V?$_Tmap_traits@V?$basic_string@DU?$char_traits@D@std@@V?$allocator@D@2@@std@@VCloudDictBuilder@VA@@U?$less@V?$basic_string@DU?$char_traits@D@std@@V?$allocator@D@2@@std@@@2@V?$allocator@U?$pair@$$CBV?$basic_string@DU?$char_traits@D@std@@V?$allocator@D@2@@std@@VCloudDictBuilder@VA@@@std@@@2@$0A@@std@@@0@@Z 10118210 f i MscUploadDict.obj
 0002:00069230       ??$?0U?$pair@$$CBV?$basic_string@DU?$char_traits@D@std@@V?$allocator@D@2@@std@@VCloudDictBuilder@VA@@@std@@@?$allocator@PAU_Node@?$_Tree_nod@V?$_Tmap_traits@V?$basic_string@DU?$char_traits@D@std@@V?$allocator@D@2@@std@@VCloudDictBuilder@VA@@U?$less@V?$basic_string@DU?$char_traits@D@std@@V?$allocator@D@2@@std@@@2@V?$allocator@U?$pair@$$CBV?$basic_string@DU?$char_traits@D@std@@V?$allocator@D@2@@std@@VCloudDictBuilder@VA@@@std@@@2@$0A@@std@@@std@@@std@@QAE@ABV?$allocator@U?$pair@$$CBV?$basic_string@DU?$char_traits@D@std@@V?$allocator@D@2@@std@@VCloudDictBuilder@VA@@@std@@@1@@Z 10118230 f i MscUploadDict.obj
 0002:00069250       ??$_Allocate@U_Node@?$_Tree_nod@V?$_Tmap_traits@V?$basic_string@DU?$char_traits@D@std@@V?$allocator@D@2@@std@@VCloudDictBuilder@VA@@U?$less@V?$basic_string@DU?$char_traits@D@std@@V?$allocator@D@2@@std@@@2@V?$allocator@U?$pair@$$CBV?$basic_string@DU?$char_traits@D@std@@V?$allocator@D@2@@std@@VCloudDictBuilder@VA@@@std@@@2@$0A@@std@@@std@@@std@@YAPAU_Node@?$_Tree_nod@V?$_Tmap_traits@V?$basic_string@DU?$char_traits@D@std@@V?$allocator@D@2@@std@@VCloudDictBuilder@VA@@U?$less@V?$basic_string@DU?$char_traits@D@std@@V?$allocator@D@2@@std@@@2@V?$allocator@U?$pair@$$CBV?$basic_string@DU?$char_traits@D@std@@V?$allocator@D@2@@std@@VCloudDictBuilder@VA@@@std@@@2@$0A@@std@@@0@IPAU120@@Z 10118250 f i MscUploadDict.obj
 0002:000692c0       ??$?0U?$pair@$$CBV?$basic_string@DU?$char_traits@D@std@@V?$allocator@D@2@@std@@VCloudDictBuilder@VA@@@std@@@?$allocator@U_Node@?$_Tree_nod@V?$_Tmap_traits@V?$basic_string@DU?$char_traits@D@std@@V?$allocator@D@2@@std@@VCloudDictBuilder@VA@@U?$less@V?$basic_string@DU?$char_traits@D@std@@V?$allocator@D@2@@std@@@2@V?$allocator@U?$pair@$$CBV?$basic_string@DU?$char_traits@D@std@@V?$allocator@D@2@@std@@VCloudDictBuilder@VA@@@std@@@2@$0A@@std@@@std@@@std@@QAE@ABV?$allocator@U?$pair@$$CBV?$basic_string@DU?$char_traits@D@std@@V?$allocator@D@2@@std@@VCloudDictBuilder@VA@@@std@@@1@@Z 101182c0 f i MscUploadDict.obj
 0002:000692e0       ??$_Destroy@U_Node@?$_Tree_nod@V?$_Tmap_traits@V?$basic_string@DU?$char_traits@D@std@@V?$allocator@D@2@@std@@VCloudDictBuilder@VA@@U?$less@V?$basic_string@DU?$char_traits@D@std@@V?$allocator@D@2@@std@@@2@V?$allocator@U?$pair@$$CBV?$basic_string@DU?$char_traits@D@std@@V?$allocator@D@2@@std@@VCloudDictBuilder@VA@@@std@@@2@$0A@@std@@@std@@@std@@YAXPAU_Node@?$_Tree_nod@V?$_Tmap_traits@V?$basic_string@DU?$char_traits@D@std@@V?$allocator@D@2@@std@@VCloudDictBuilder@VA@@U?$less@V?$basic_string@DU?$char_traits@D@std@@V?$allocator@D@2@@std@@@2@V?$allocator@U?$pair@$$CBV?$basic_string@DU?$char_traits@D@std@@V?$allocator@D@2@@std@@VCloudDictBuilder@VA@@@std@@@2@$0A@@std@@@0@@Z 101182e0 f i MscUploadDict.obj
 0002:00069300       ??$_Construct@PAU_Node@?$_Tree_nod@V?$_Tmap_traits@V?$basic_string@DU?$char_traits@D@std@@V?$allocator@D@2@@std@@VCloudDictBuilder@VA@@U?$less@V?$basic_string@DU?$char_traits@D@std@@V?$allocator@D@2@@std@@@2@V?$allocator@U?$pair@$$CBV?$basic_string@DU?$char_traits@D@std@@V?$allocator@D@2@@std@@VCloudDictBuilder@VA@@@std@@@2@$0A@@std@@@std@@PAU123@@std@@YAXPAPAU_Node@?$_Tree_nod@V?$_Tmap_traits@V?$basic_string@DU?$char_traits@D@std@@V?$allocator@D@2@@std@@VCloudDictBuilder@VA@@U?$less@V?$basic_string@DU?$char_traits@D@std@@V?$allocator@D@2@@std@@@2@V?$allocator@U?$pair@$$CBV?$basic_string@DU?$char_traits@D@std@@V?$allocator@D@2@@std@@VCloudDictBuilder@VA@@@std@@@2@$0A@@std@@@0@ABQAU120@@Z 10118300 f i MscUploadDict.obj
 0002:00069360       ??$?0U?$pair@$$CBV?$basic_string@DU?$char_traits@D@std@@V?$allocator@D@2@@std@@VCloudDictBuilder@VA@@@std@@@?$allocator@V_Aux_cont@std@@@std@@QAE@ABV?$allocator@U?$pair@$$CBV?$basic_string@DU?$char_traits@D@std@@V?$allocator@D@2@@std@@VCloudDictBuilder@VA@@@std@@@1@@Z 10118360 f i MscUploadDict.obj
 0002:00069380       ??_G_Node@?$_Tree_nod@V?$_Tmap_traits@V?$basic_string@DU?$char_traits@D@std@@V?$allocator@D@2@@std@@VCloudDictBuilder@VA@@U?$less@V?$basic_string@DU?$char_traits@D@std@@V?$allocator@D@2@@std@@@2@V?$allocator@U?$pair@$$CBV?$basic_string@DU?$char_traits@D@std@@V?$allocator@D@2@@std@@VCloudDictBuilder@VA@@@std@@@2@$0A@@std@@@std@@QAEPAXI@Z 10118380 f i MscUploadDict.obj
 0002:000693d0       ??1_Node@?$_Tree_nod@V?$_Tmap_traits@V?$basic_string@DU?$char_traits@D@std@@V?$allocator@D@2@@std@@VCloudDictBuilder@VA@@U?$less@V?$basic_string@DU?$char_traits@D@std@@V?$allocator@D@2@@std@@@2@V?$allocator@U?$pair@$$CBV?$basic_string@DU?$char_traits@D@std@@V?$allocator@D@2@@std@@VCloudDictBuilder@VA@@@std@@@2@$0A@@std@@@std@@QAE@XZ 101183d0 f i MscUploadDict.obj
 0002:00069400       ??0?$pair@PBDVCloudDictBuilder@VA@@@std@@QAE@ABQBDABVCloudDictBuilder@VA@@@Z 10118400 f i MscUploadDict.obj
 0002:00069440       ??$_Iter_cat@Vconst_iterator@?$_Tree@V?$_Tmap_traits@V?$basic_string@DU?$char_traits@D@std@@V?$allocator@D@2@@std@@VValue@Json@VA@@U?$less@V?$basic_string@DU?$char_traits@D@std@@V?$allocator@D@2@@std@@@2@V?$allocator@U?$pair@$$CBV?$basic_string@DU?$char_traits@D@std@@V?$allocator@D@2@@std@@VValue@Json@VA@@@std@@@2@$0A@@std@@@std@@@std@@YA?AUbidirectional_iterator_tag@0@ABVconst_iterator@?$_Tree@V?$_Tmap_traits@V?$basic_string@DU?$char_traits@D@std@@V?$allocator@D@2@@std@@VValue@Json@VA@@U?$less@V?$basic_string@DU?$char_traits@D@std@@V?$allocator@D@2@@std@@@2@V?$allocator@U?$pair@$$CBV?$basic_string@DU?$char_traits@D@std@@V?$allocator@D@2@@std@@VValue@Json@VA@@@std@@@2@$0A@@std@@@0@@Z 10118440 f i MscUploadDict.obj
 0002:00069460       ??$_Distance2@Vconst_iterator@?$_Tree@V?$_Tmap_traits@V?$basic_string@DU?$char_traits@D@std@@V?$allocator@D@2@@std@@VValue@Json@VA@@U?$less@V?$basic_string@DU?$char_traits@D@std@@V?$allocator@D@2@@std@@@2@V?$allocator@U?$pair@$$CBV?$basic_string@DU?$char_traits@D@std@@V?$allocator@D@2@@std@@VValue@Json@VA@@@std@@@2@$0A@@std@@@std@@I@std@@YAXVconst_iterator@?$_Tree@V?$_Tmap_traits@V?$basic_string@DU?$char_traits@D@std@@V?$allocator@D@2@@std@@VValue@Json@VA@@U?$less@V?$basic_string@DU?$char_traits@D@std@@V?$allocator@D@2@@std@@@2@V?$allocator@U?$pair@$$CBV?$basic_string@DU?$char_traits@D@std@@V?$allocator@D@2@@std@@VValue@Json@VA@@@std@@@2@$0A@@std@@@0@0AAIUbidirectional_iterator_tag@0@@Z 10118460 f i MscUploadDict.obj
 0002:000694b0       ?Init@CMutexMessageQueue@VA@@AAEXXZ 101184b0 f   CMutexMessageQueue.obj
 0002:000694e0       ?UnInit@CMutexMessageQueue@VA@@AAEXXZ 101184e0 f   CMutexMessageQueue.obj
 0002:00069500       ??0CMutexMessageQueue@VA@@QAE@VU8String@1@@Z 10118500 f   CMutexMessageQueue.obj
 0002:00069640       ??_ECMutexMessageQueue@VA@@UAEPAXI@Z 10118640 f i CMutexMessageQueue.obj
 0002:00069640       ??_GCMutexMessageQueue@VA@@UAEPAXI@Z 10118640 f i CMutexMessageQueue.obj
 0002:00069690       ??1CMutexMessageQueue@VA@@UAE@XZ 10118690 f   CMutexMessageQueue.obj
 0002:000697b0       ?TrashMutexMsg@CMutexMessageQueue@VA@@QAEXXZ 101187b0 f   CMutexMessageQueue.obj
 0002:00069870       ?AddMutexMsg@CMutexMessageQueue@VA@@QAEXUtagMutexMessageQueueMSG@@@Z 10118870 f   CMutexMessageQueue.obj
 0002:00069940       ?GetMutexMsg@CMutexMessageQueue@VA@@QAE?AUtagMutexMessageQueueMSG@@XZ 10118940 f   CMutexMessageQueue.obj
 0002:00069a70       ?GetMutexMsgButNotRemove@CMutexMessageQueue@VA@@QAE?AUtagMutexMessageQueueMSG@@XZ 10118a70 f   CMutexMessageQueue.obj
 0002:00069b90       ?HasSpecialMutexMsg@CMutexMessageQueue@VA@@QAE_NH@Z 10118b90 f   CMutexMessageQueue.obj
 0002:00069cf0       ??0?$deque@UtagMutexMessageQueueMSG@@V?$allocator@UtagMutexMessageQueueMSG@@@std@@@std@@QAE@XZ 10118cf0 f i CMutexMessageQueue.obj
 0002:00069d60       ??1?$deque@UtagMutexMessageQueueMSG@@V?$allocator@UtagMutexMessageQueueMSG@@@std@@@std@@QAE@XZ 10118d60 f i CMutexMessageQueue.obj
 0002:00069de0       ?begin@?$deque@UtagMutexMessageQueueMSG@@V?$allocator@UtagMutexMessageQueueMSG@@@std@@@std@@QAE?AV?$_Deque_iterator@UtagMutexMessageQueueMSG@@V?$allocator@UtagMutexMessageQueueMSG@@@std@@$00@2@XZ 10118de0 f i CMutexMessageQueue.obj
 0002:00069e20       ?end@?$deque@UtagMutexMessageQueueMSG@@V?$allocator@UtagMutexMessageQueueMSG@@@std@@@std@@QAE?AV?$_Deque_iterator@UtagMutexMessageQueueMSG@@V?$allocator@UtagMutexMessageQueueMSG@@@std@@$00@2@XZ 10118e20 f i CMutexMessageQueue.obj
 0002:00069e60       ?empty@?$deque@UtagMutexMessageQueueMSG@@V?$allocator@UtagMutexMessageQueueMSG@@@std@@@std@@QBE_NXZ 10118e60 f i CMutexMessageQueue.obj
 0002:00069e90       ?front@?$deque@UtagMutexMessageQueueMSG@@V?$allocator@UtagMutexMessageQueueMSG@@@std@@@std@@QAEAAUtagMutexMessageQueueMSG@@XZ 10118e90 f i CMutexMessageQueue.obj
 0002:00069ec0       ?pop_front@?$deque@UtagMutexMessageQueueMSG@@V?$allocator@UtagMutexMessageQueueMSG@@@std@@@std@@QAEXXZ 10118ec0 f i CMutexMessageQueue.obj
 0002:00069f90       ?push_back@?$deque@UtagMutexMessageQueueMSG@@V?$allocator@UtagMutexMessageQueueMSG@@@std@@@std@@QAEXABUtagMutexMessageQueueMSG@@@Z 10118f90 f i CMutexMessageQueue.obj
 0002:0006a0b0       ?clear@?$deque@UtagMutexMessageQueueMSG@@V?$allocator@UtagMutexMessageQueueMSG@@@std@@@std@@QAEXXZ 101190b0 f i CMutexMessageQueue.obj
 0002:0006a0e0       ??0?$_Deque_iterator@UtagMutexMessageQueueMSG@@V?$allocator@UtagMutexMessageQueueMSG@@@std@@$00@std@@QAE@XZ 101190e0 f i CMutexMessageQueue.obj
 0002:0006a110       ??C?$_Deque_iterator@UtagMutexMessageQueueMSG@@V?$allocator@UtagMutexMessageQueueMSG@@@std@@$00@std@@QBEPAUtagMutexMessageQueueMSG@@XZ 10119110 f i CMutexMessageQueue.obj
 0002:0006a140       ??E?$_Deque_iterator@UtagMutexMessageQueueMSG@@V?$allocator@UtagMutexMessageQueueMSG@@@std@@$00@std@@QAEAAV01@XZ 10119140 f i CMutexMessageQueue.obj
 0002:0006a170       ??9?$_Deque_const_iterator@UtagMutexMessageQueueMSG@@V?$allocator@UtagMutexMessageQueueMSG@@@std@@$00@std@@QBE_NABV01@@Z 10119170 f i CMutexMessageQueue.obj
 0002:0006a1b0       ??1?$_Deque_val@UtagMutexMessageQueueMSG@@V?$allocator@UtagMutexMessageQueueMSG@@@std@@@std@@QAE@XZ 101191b0 f i CMutexMessageQueue.obj
 0002:0006a1e0       ??1?$_Deque_map@UtagMutexMessageQueueMSG@@V?$allocator@UtagMutexMessageQueueMSG@@@std@@@std@@QAE@XZ 101191e0 f i CMutexMessageQueue.obj
 0002:0006a210       ?_Growmap@?$deque@UtagMutexMessageQueueMSG@@V?$allocator@UtagMutexMessageQueueMSG@@@std@@@std@@IAEXI@Z 10119210 f i CMutexMessageQueue.obj
 0002:0006a4c0       ?_Tidy@?$deque@UtagMutexMessageQueueMSG@@V?$allocator@UtagMutexMessageQueueMSG@@@std@@@std@@IAEXXZ 101194c0 f i CMutexMessageQueue.obj
 0002:0006a5b0       ??0?$_Deque_val@UtagMutexMessageQueueMSG@@V?$allocator@UtagMutexMessageQueueMSG@@@std@@@std@@IAE@V?$allocator@UtagMutexMessageQueueMSG@@@1@@Z 101195b0 f i CMutexMessageQueue.obj
 0002:0006a600       ??1?$_Container_base_aux_alloc_real@V?$allocator@UtagMutexMessageQueueMSG@@@std@@@std@@IAE@XZ 10119600 f i CMutexMessageQueue.obj
 0002:0006a680       ??0?$allocator@UtagMutexMessageQueueMSG@@@std@@QAE@XZ 10119680 f i CMutexMessageQueue.obj
 0002:0006a6a0       ?allocate@?$allocator@UtagMutexMessageQueueMSG@@@std@@QAEPAUtagMutexMessageQueueMSG@@I@Z 101196a0 f i CMutexMessageQueue.obj
 0002:0006a6d0       ?construct@?$allocator@UtagMutexMessageQueueMSG@@@std@@QAEXPAUtagMutexMessageQueueMSG@@ABU3@@Z 101196d0 f i CMutexMessageQueue.obj
 0002:0006a700       ?destroy@?$allocator@UtagMutexMessageQueueMSG@@@std@@QAEXPAUtagMutexMessageQueueMSG@@@Z 10119700 f i CMutexMessageQueue.obj
 0002:0006a730       ??0?$_Deque_iterator@UtagMutexMessageQueueMSG@@V?$allocator@UtagMutexMessageQueueMSG@@@std@@$00@std@@QAE@IPBV_Container_base_aux@1@@Z 10119730 f i CMutexMessageQueue.obj
 0002:0006a770       ??D?$_Deque_iterator@UtagMutexMessageQueueMSG@@V?$allocator@UtagMutexMessageQueueMSG@@@std@@$00@std@@QBEAAUtagMutexMessageQueueMSG@@XZ 10119770 f i CMutexMessageQueue.obj
 0002:0006a7a0       ??0?$_Deque_const_iterator@UtagMutexMessageQueueMSG@@V?$allocator@UtagMutexMessageQueueMSG@@@std@@$00@std@@QAE@XZ 101197a0 f i CMutexMessageQueue.obj
 0002:0006a7e0       ??E?$_Deque_const_iterator@UtagMutexMessageQueueMSG@@V?$allocator@UtagMutexMessageQueueMSG@@@std@@$00@std@@QAEAAV01@XZ 101197e0 f i CMutexMessageQueue.obj
 0002:0006a880       ??8?$_Deque_const_iterator@UtagMutexMessageQueueMSG@@V?$allocator@UtagMutexMessageQueueMSG@@@std@@$00@std@@QBE_NABV01@@Z 10119880 f i CMutexMessageQueue.obj
 0002:0006a900       ??0?$_Ranit@UtagMutexMessageQueueMSG@@HPBU1@ABU1@@std@@QAE@XZ 10119900 f i CMutexMessageQueue.obj
 0002:0006a930       ??0?$_Iterator_with_base@Urandom_access_iterator_tag@std@@UtagMutexMessageQueueMSG@@HPBU3@ABU3@V_Iterator_base_aux@2@@std@@QAE@XZ 10119930 f i CMutexMessageQueue.obj
 0002:0006a960       ?max_size@?$deque@UtagMutexMessageQueueMSG@@V?$allocator@UtagMutexMessageQueueMSG@@@std@@@std@@QBEIXZ 10119960 f i CMutexMessageQueue.obj
 0002:0006a990       ?pop_back@?$deque@UtagMutexMessageQueueMSG@@V?$allocator@UtagMutexMessageQueueMSG@@@std@@@std@@QAEXXZ 10119990 f i CMutexMessageQueue.obj
 0002:0006aa60       ?_Xlen@?$deque@UtagMutexMessageQueueMSG@@V?$allocator@UtagMutexMessageQueueMSG@@@std@@@std@@KAXXZ 10119a60 f i CMutexMessageQueue.obj
 0002:0006ab10       ??0?$_Deque_map@UtagMutexMessageQueueMSG@@V?$allocator@UtagMutexMessageQueueMSG@@@std@@@std@@IAE@V?$allocator@UtagMutexMessageQueueMSG@@@1@@Z 10119b10 f i CMutexMessageQueue.obj
 0002:0006ab60       ??0?$allocator@UtagMutexMessageQueueMSG@@@std@@QAE@ABV01@@Z 10119b60 f i CMutexMessageQueue.obj
 0002:0006ab80       ?deallocate@?$allocator@UtagMutexMessageQueueMSG@@@std@@QAEXPAUtagMutexMessageQueueMSG@@I@Z 10119b80 f i CMutexMessageQueue.obj
 0002:0006abb0       ?deallocate@?$allocator@PAUtagMutexMessageQueueMSG@@@std@@QAEXPAPAUtagMutexMessageQueueMSG@@I@Z 10119bb0 f i CMutexMessageQueue.obj
 0002:0006abe0       ?allocate@?$allocator@PAUtagMutexMessageQueueMSG@@@std@@QAEPAPAUtagMutexMessageQueueMSG@@I@Z 10119be0 f i CMutexMessageQueue.obj
 0002:0006ac10       ?destroy@?$allocator@PAUtagMutexMessageQueueMSG@@@std@@QAEXPAPAUtagMutexMessageQueueMSG@@@Z 10119c10 f i CMutexMessageQueue.obj
 0002:0006ac40       ??0?$_Deque_const_iterator@UtagMutexMessageQueueMSG@@V?$allocator@UtagMutexMessageQueueMSG@@@std@@$00@std@@QAE@IPBV_Container_base_aux@1@@Z 10119c40 f i CMutexMessageQueue.obj
 0002:0006acd0       ??D?$_Deque_const_iterator@UtagMutexMessageQueueMSG@@V?$allocator@UtagMutexMessageQueueMSG@@@std@@$00@std@@QBEABUtagMutexMessageQueueMSG@@XZ 10119cd0 f i CMutexMessageQueue.obj
 0002:0006ada0       ??0?$_Container_base_aux_alloc_real@V?$allocator@UtagMutexMessageQueueMSG@@@std@@@std@@IAE@V?$allocator@UtagMutexMessageQueueMSG@@@1@@Z 10119da0 f i CMutexMessageQueue.obj
 0002:0006ae90       ?max_size@?$allocator@UtagMutexMessageQueueMSG@@@std@@QBEIXZ 10119e90 f i CMutexMessageQueue.obj
 0002:0006aed0       ??$unchecked_uninitialized_copy@PAPAUtagMutexMessageQueueMSG@@PAPAU1@V?$allocator@PAUtagMutexMessageQueueMSG@@@std@@@stdext@@YAPAPAUtagMutexMessageQueueMSG@@PAPAU1@00AAV?$allocator@PAUtagMutexMessageQueueMSG@@@std@@@Z 10119ed0 f i CMutexMessageQueue.obj
 0002:0006af50       ??$unchecked_uninitialized_fill_n@PAPAUtagMutexMessageQueueMSG@@IPAU1@V?$allocator@PAUtagMutexMessageQueueMSG@@@std@@@stdext@@YAXPAPAUtagMutexMessageQueueMSG@@IABQAU1@AAV?$allocator@PAUtagMutexMessageQueueMSG@@@std@@@Z 10119f50 f i CMutexMessageQueue.obj
 0002:0006afb0       ??$_Destroy_range@V?$allocator@PAUtagMutexMessageQueueMSG@@@std@@@std@@YAXPAPAUtagMutexMessageQueueMSG@@0AAV?$allocator@PAUtagMutexMessageQueueMSG@@@0@@Z 10119fb0 f i CMutexMessageQueue.obj
 0002:0006b000       ??$_Allocate@UtagMutexMessageQueueMSG@@@std@@YAPAUtagMutexMessageQueueMSG@@IPAU1@@Z 1011a000 f i CMutexMessageQueue.obj
 0002:0006b070       ??$_Construct@UtagMutexMessageQueueMSG@@U1@@std@@YAXPAUtagMutexMessageQueueMSG@@ABU1@@Z 1011a070 f i CMutexMessageQueue.obj
 0002:0006b0d0       ??$_Destroy@UtagMutexMessageQueueMSG@@@std@@YAXPAUtagMutexMessageQueueMSG@@@Z 1011a0d0 f i CMutexMessageQueue.obj
 0002:0006b0f0       ??$?0UtagMutexMessageQueueMSG@@@?$allocator@PAUtagMutexMessageQueueMSG@@@std@@QAE@ABV?$allocator@UtagMutexMessageQueueMSG@@@1@@Z 1011a0f0 f i CMutexMessageQueue.obj
 0002:0006b110       ??$_Allocate@PAUtagMutexMessageQueueMSG@@@std@@YAPAPAUtagMutexMessageQueueMSG@@IPAPAU1@@Z 1011a110 f i CMutexMessageQueue.obj
 0002:0006b180       ??$_Destroy@PAUtagMutexMessageQueueMSG@@@std@@YAXPAPAUtagMutexMessageQueueMSG@@@Z 1011a180 f i CMutexMessageQueue.obj
 0002:0006b1a0       ??$?0UtagMutexMessageQueueMSG@@@?$allocator@V_Aux_cont@std@@@std@@QAE@ABV?$allocator@UtagMutexMessageQueueMSG@@@1@@Z 1011a1a0 f i CMutexMessageQueue.obj
 0002:0006b1c0       ??$_Checked_base@PAPAUtagMutexMessageQueueMSG@@@std@@YAPAPAUtagMutexMessageQueueMSG@@AAPAPAU1@@Z 1011a1c0 f i CMutexMessageQueue.obj
 0002:0006b1f0       ??$_Ptr_cat@PAPAUtagMutexMessageQueueMSG@@PAPAU1@@std@@YA?AU_Scalar_ptr_iterator_tag@0@AAPAPAUtagMutexMessageQueueMSG@@0@Z 1011a1f0 f i CMutexMessageQueue.obj
 0002:0006b210       ??$_Uninit_copy@PAPAUtagMutexMessageQueueMSG@@PAPAU1@V?$allocator@PAUtagMutexMessageQueueMSG@@@std@@@std@@YAPAPAUtagMutexMessageQueueMSG@@PAPAU1@00AAV?$allocator@PAUtagMutexMessageQueueMSG@@@0@U_Scalar_ptr_iterator_tag@0@U_Range_checked_iterator_tag@0@@Z 1011a210 f i CMutexMessageQueue.obj
 0002:0006b280       ??$_Uninit_fill_n@PAPAUtagMutexMessageQueueMSG@@IPAU1@V?$allocator@PAUtagMutexMessageQueueMSG@@@std@@@std@@YAXPAPAUtagMutexMessageQueueMSG@@IABQAU1@AAV?$allocator@PAUtagMutexMessageQueueMSG@@@0@U_Scalar_ptr_iterator_tag@0@U_Range_checked_iterator_tag@0@@Z 1011a280 f i CMutexMessageQueue.obj
 0002:0006b2b0       ??$_Destroy_range@V?$allocator@PAUtagMutexMessageQueueMSG@@@std@@@std@@YAXPAPAUtagMutexMessageQueueMSG@@0AAV?$allocator@PAUtagMutexMessageQueueMSG@@@0@U_Scalar_ptr_iterator_tag@0@@Z 1011a2b0 f i CMutexMessageQueue.obj
 0002:0006b2d0       ??$_Checked_base@PAPAUtagMutexMessageQueueMSG@@@std@@YAPAPAUtagMutexMessageQueueMSG@@AAPAPAU1@U_Unchanged_checked_iterator_base_type_tag@0@@Z 1011a2d0 f i CMutexMessageQueue.obj
 0002:0006b2f0       ??$unchecked_fill_n@PAPAUtagMutexMessageQueueMSG@@IPAU1@@stdext@@YAXPAPAUtagMutexMessageQueueMSG@@IABQAU1@@Z 1011a2f0 f i CMutexMessageQueue.obj
 0002:0006b350       ??$_Iter_cat@PAPAUtagMutexMessageQueueMSG@@@std@@YA?AUrandom_access_iterator_tag@0@ABQAPAUtagMutexMessageQueueMSG@@@Z 1011a350 f i CMutexMessageQueue.obj
 0002:0006b370       ??$_Fill_n@PAPAUtagMutexMessageQueueMSG@@IPAU1@@std@@YAXPAPAUtagMutexMessageQueueMSG@@IABQAU1@Urandom_access_iterator_tag@0@U_Range_checked_iterator_tag@0@@Z 1011a370 f i CMutexMessageQueue.obj
 0002:0006b3d0       ??$_Fill_n@PAPAUtagMutexMessageQueueMSG@@IPAU1@@std@@YAXPAPAUtagMutexMessageQueueMSG@@IABQAU1@U_Range_checked_iterator_tag@0@@Z 1011a3d0 f i CMutexMessageQueue.obj
 0002:0006b420       _MAEPrintDECInit           1011a420 f   ivDecoder.obj
 0002:0006b6f0       _MAEDecoderReset           1011a6f0 f   ivDecoder.obj
 0002:0006b890       _MAEPrintGetData           1011a890 f   ivDecoder.obj
 0002:0006bab0       _BubbleSort                1011aab0 f   ivDecoder.obj
 0002:0006bbc0       _MAEPrintDecoder           1011abc0 f   ivDecoder.obj
 0002:0006ca20       _MAEDDecoderSetParam       1011ba20 f   ivDecoder.obj
 0002:0006cbc0       ??0CiMultiWakeUp@VA@@QAE@P6AXPAXIIHPBD@ZP6AX0H@Z01I@Z 1011bbc0 f   CiMultiWakeup.obj
 0002:0006d5b0       ??_GCiMultiWakeUp@VA@@UAEPAXI@Z 1011c5b0 f i CiMultiWakeup.obj
 0002:0006d5b0       ??_ECiMultiWakeUp@VA@@UAEPAXI@Z 1011c5b0 f i CiMultiWakeup.obj
 0002:0006d600       ??0CiMultiWakeUp@VA@@QAE@P6AXPBXII0@ZPAXPBDI@Z 1011c600 f   CiMultiWakeup.obj
 0002:0006dff0       ??1CiMultiWakeUp@VA@@UAE@XZ 1011cff0 f   CiMultiWakeup.obj
 0002:0006e0e0       ?Init@CiMultiWakeUp@VA@@AAEXXZ 1011d0e0 f   CiMultiWakeup.obj
 0002:0006e2a0       ??0MvwInstanceConfigParser@VA@@QAE@XZ 1011d2a0 f i CiMultiWakeup.obj
 0002:0006e350       ??_GMvwInstanceConfigParser@VA@@UAEPAXI@Z 1011d350 f i CiMultiWakeup.obj
 0002:0006e350       ??_EMvwInstanceConfigParser@VA@@UAEPAXI@Z 1011d350 f i CiMultiWakeup.obj
 0002:0006e3a0       ??1?$map@IUtagMvwScene@VA@@U?$less@I@std@@V?$allocator@U?$pair@$$CBIUtagMvwScene@VA@@@std@@@4@@std@@QAE@XZ 1011d3a0 f i CiMultiWakeup.obj
 0002:0006e3d0       ??1MvwInstanceConfigParser@VA@@UAE@XZ 1011d3d0 f i CiMultiWakeup.obj
 0002:0006e460       ?UnInit@CiMultiWakeUp@VA@@AAEXXZ 1011d460 f   CiMultiWakeup.obj
 0002:0006e5e0       ?GetResNameByScene@CiMultiWakeUp@VA@@AAEHIQADH@Z 1011d5e0 f   CiMultiWakeup.obj
 0002:0006e910       ?IsMvwSceneFileExists@CiMultiWakeUp@VA@@AAEHI@Z 1011d910 f   CiMultiWakeup.obj
 0002:0006ea10       ?GetFullResNameByScene@CiMultiWakeUp@VA@@QAEHIQADH@Z 1011da10 f   CiMultiWakeup.obj
 0002:0006efd0       ?GetResPath@CiMultiWakeUp@VA@@AAEPADXZ 1011dfd0 f   CiMultiWakeup.obj
 0002:0006eff0       ?GetAllSceneId@CiMultiWakeUp@VA@@AAEXPAV?$list@IV?$allocator@I@std@@@std@@@Z 1011dff0 f   CiMultiWakeup.obj
 0002:0006f0d0       ?IsScenIdValid@CiMultiWakeUp@VA@@AAE_NI@Z 1011e0d0 f   CiMultiWakeup.obj
 0002:0006f140       ?GetMvwScene@CiMultiWakeUp@VA@@QAEHIPAUtagMvwScene@2@@Z 1011e140 f   CiMultiWakeup.obj
 0002:0006f260       ?AppendAudioData@CiMultiWakeUp@VA@@QAEHPAXIPAI@Z 1011e260 f   CiMultiWakeup.obj
 0002:0006f2c0       ?SetParam@CiMultiWakeUp@VA@@QAEHPBD0@Z 1011e2c0 f   CiMultiWakeup.obj
 0002:0006f340       ?OnWakeUp@CiMultiWakeUp@VA@@QAEXIIHPBD@Z 1011e340 f   CiMultiWakeup.obj
 0002:0006f3c0       ?OnISSChipCryptError@CiMultiWakeUp@VA@@QAEXI@Z 1011e3c0 f   CiMultiWakeup.obj
 0002:0006f3e0       ?OnMsgProc@CiMultiWakeUp@VA@@QAEXIIPBX@Z 1011e3e0 f   CiMultiWakeup.obj
 0002:0006f440       ?CheckSceneIsValid@CiMultiWakeUp@VA@@QAEHPAV?$list@IV?$allocator@I@std@@@std@@I_N@Z 1011e440 f   CiMultiWakeup.obj
 0002:0006f7d0       ?Start@CiMultiWakeUp@VA@@QAEHI@Z 1011e7d0 f   CiMultiWakeup.obj
 0002:0006f9b0       ?AddStartScene@CiMultiWakeUp@VA@@QAEHI@Z 1011e9b0 f   CiMultiWakeup.obj
 0002:0006fb90       ?SetTimeOut@CiMultiWakeUp@VA@@QAEXI@Z 1011eb90 f   CiMultiWakeup.obj
 0002:0006fc50       ?Stop@CiMultiWakeUp@VA@@QAEHXZ 1011ec50 f   CiMultiWakeup.obj
 0002:0006fcf0       ?StopScene@CiMultiWakeUp@VA@@QAEHI@Z 1011ecf0 f   CiMultiWakeup.obj
 0002:0006fd80       ?IsSceneInStartScene@CiMultiWakeUp@VA@@QAE_NI@Z 1011ed80 f   CiMultiWakeup.obj
 0002:0006fdc0       ?OverLapConfigFile@CiMultiWakeUp@VA@@AAEHPBDH@Z 1011edc0 f   CiMultiWakeup.obj
 0002:00070080       ?SetDefaultKeyWords@CiMultiWakeUp@VA@@QAEHI@Z 1011f080 f   CiMultiWakeup.obj
 0002:000704f0       ??1StyledWriter@Json@VA@@UAE@XZ 1011f4f0 f i CiMultiWakeup.obj
 0002:000705a0       ??_EStyledWriter@Json@VA@@UAEPAXI@Z 1011f5a0 f i CiMultiWakeup.obj
 0002:000705a0       ??_GStyledWriter@Json@VA@@UAEPAXI@Z 1011f5a0 f i CiMultiWakeup.obj
 0002:000705f0       ?BuildGrm@CiMultiWakeUp@VA@@QAEHPBDI@Z 1011f5f0 f   CiMultiWakeup.obj
 0002:00071290       ??0tagMulObjScene@VA@@QAE@XZ 10120290 f i CiMultiWakeup.obj
 0002:000712d0       ?AddDataSizeProcessed@CiMultiWakeUp@VA@@QAEXI@Z 101202d0 f   CiMultiWakeup.obj
 0002:00071390       ?CheckIfTimeOut@CiMultiWakeUp@VA@@QAEPAXXZ 10120390 f   CiMultiWakeup.obj
 0002:000714e0       ?ProcessTimeOut@CiMultiWakeUp@VA@@QAEXXZ 101204e0 f   CiMultiWakeup.obj
 0002:000715b0       ?SetTmpLogDir@CiMultiWakeUp@VA@@QAEXPBD@Z 101205b0 f   CiMultiWakeup.obj
 0002:00071620       ?GetState@CiMultiWakeUp@VA@@QAEHXZ 10120620 f   CiMultiWakeup.obj
 0002:00071650       ?ReLoadConfig@CiMultiWakeUp@VA@@AAEHXZ 10120650 f   CiMultiWakeup.obj
 0002:00071860       ?GetMvwIdByMvwKey@CiMultiWakeUp@VA@@QAEHIPBDPAH@Z 10120860 f   CiMultiWakeup.obj
 0002:000719f0       ?IsMvwKeywordDeepRes@CiMultiWakeUp@VA@@QAEHI@Z 101209f0 f   CiMultiWakeup.obj
 0002:00071a30       ?IsUserDefScene@CiMultiWakeUp@VA@@QAE_NI@Z 10120a30 f   CiMultiWakeup.obj
 0002:00071a90       ?RecoverBakCfgFile@CiMultiWakeUp@VA@@AAE_NPBD0@Z 10120a90 f   CiMultiWakeup.obj
 0002:00071d80       ??0?$map@IUtagMvwScene@VA@@U?$less@I@std@@V?$allocator@U?$pair@$$CBIUtagMvwScene@VA@@@std@@@4@@std@@QAE@XZ 10120d80 f i CiMultiWakeup.obj
 0002:00071dc0       ??A?$map@IUtagMvwScene@VA@@U?$less@I@std@@V?$allocator@U?$pair@$$CBIUtagMvwScene@VA@@@std@@@4@@std@@QAEAAUtagMvwScene@VA@@ABI@Z 10120dc0 f i CiMultiWakeup.obj
 0002:00071f60       ??0tagMvwScene@VA@@QAE@XZ  10120f60 f i CiMultiWakeup.obj
 0002:000720a0       ??1tagMvwScene@VA@@QAE@XZ  101210a0 f i CiMultiWakeup.obj
 0002:00072180       ??1?$_Tree@V?$_Tmap_traits@IUtagMvwScene@VA@@U?$less@I@std@@V?$allocator@U?$pair@$$CBIUtagMvwScene@VA@@@std@@@4@$0A@@std@@@std@@QAE@XZ 10121180 f i CiMultiWakeup.obj
 0002:00072200       ?clear@?$_Tree@V?$_Tmap_traits@IUtagMvwScene@VA@@U?$less@I@std@@V?$allocator@U?$pair@$$CBIUtagMvwScene@VA@@@std@@@4@$0A@@std@@@std@@QAEXXZ 10121200 f i CiMultiWakeup.obj
 0002:00072280       ??0iterator@?$_Tree@V?$_Tmap_traits@IUtagMvwScene@VA@@U?$less@I@std@@V?$allocator@U?$pair@$$CBIUtagMvwScene@VA@@@std@@@4@$0A@@std@@@std@@QAE@XZ 10121280 f i CiMultiWakeup.obj
 0002:000722b0       ??Eiterator@?$_Tree@V?$_Tmap_traits@IUtagMvwScene@VA@@U?$less@I@std@@V?$allocator@U?$pair@$$CBIUtagMvwScene@VA@@@std@@@4@$0A@@std@@@std@@QAE?AV012@H@Z 101212b0 f i CiMultiWakeup.obj
 0002:00072300       ??0?$list@IV?$allocator@I@std@@@std@@QAE@XZ 10121300 f i CiMultiWakeup.obj
 0002:000723a0       ??1?$list@IV?$allocator@I@std@@@std@@QAE@XZ 101213a0 f i CiMultiWakeup.obj
 0002:00072420       ?begin@?$list@IV?$allocator@I@std@@@std@@QAE?AV?$_Iterator@$00@12@XZ 10121420 f i CiMultiWakeup.obj
 0002:00072470       ?end@?$list@IV?$allocator@I@std@@@std@@QAE?AV?$_Iterator@$00@12@XZ 10121470 f i CiMultiWakeup.obj
 0002:000724b0       ?size@?$list@IV?$allocator@I@std@@@std@@QBEIXZ 101214b0 f i CiMultiWakeup.obj
 0002:000724d0       ?insert@?$list@IV?$allocator@I@std@@@std@@QAE?AV?$_Iterator@$00@12@V?$_Const_iterator@$00@12@ABI@Z 101214d0 f i CiMultiWakeup.obj
 0002:00072530       ?clear@?$list@IV?$allocator@I@std@@@std@@QAEXXZ 10121530 f i CiMultiWakeup.obj
 0002:00072600       ??0?$_Iterator@$00@?$list@IV?$allocator@I@std@@@std@@QAE@XZ 10121600 f i CiMultiWakeup.obj
 0002:00072630       ??D?$_Iterator@$00@?$list@IV?$allocator@I@std@@@std@@QBEAAIXZ 10121630 f i CiMultiWakeup.obj
 0002:00072660       ??E?$_Iterator@$00@?$list@IV?$allocator@I@std@@@std@@QAE?AV012@H@Z 10121660 f i CiMultiWakeup.obj
 0002:000726b0       ??9?$_Const_iterator@$00@?$list@IV?$allocator@I@std@@@std@@QBE_NABV012@@Z 101216b0 f i CiMultiWakeup.obj
 0002:000726f0       ??0iterator@?$_Tree@V?$_Tmap_traits@HUtagKeyWordAndThreshold@VA@@U?$less@H@std@@V?$allocator@U?$pair@$$CBHUtagKeyWordAndThreshold@VA@@@std@@@4@$0A@@std@@@std@@QAE@XZ 101216f0 f i CiMultiWakeup.obj
 0002:00072720       ??Citerator@?$_Tree@V?$_Tmap_traits@HUtagKeyWordAndThreshold@VA@@U?$less@H@std@@V?$allocator@U?$pair@$$CBHUtagKeyWordAndThreshold@VA@@@std@@@4@$0A@@std@@@std@@QBEPAU?$pair@$$CBHUtagKeyWordAndThreshold@VA@@@2@XZ 10121720 f i CiMultiWakeup.obj
 0002:00072750       ??Eiterator@?$_Tree@V?$_Tmap_traits@HUtagKeyWordAndThreshold@VA@@U?$less@H@std@@V?$allocator@U?$pair@$$CBHUtagKeyWordAndThreshold@VA@@@std@@@4@$0A@@std@@@std@@QAE?AV012@H@Z 10121750 f i CiMultiWakeup.obj
 0002:000727a0       ??1?$pair@$$CBIUtagMvwScene@VA@@@std@@QAE@XZ 101217a0 f i CiMultiWakeup.obj
 0002:000727d0       ??1?$_Tree_val@V?$_Tmap_traits@IUtagMvwScene@VA@@U?$less@I@std@@V?$allocator@U?$pair@$$CBIUtagMvwScene@VA@@@std@@@4@$0A@@std@@@std@@QAE@XZ 101217d0 f i CiMultiWakeup.obj
 0002:00072800       ??1?$_List_val@IV?$allocator@I@std@@@std@@QAE@XZ 10121800 f i CiMultiWakeup.obj
 0002:00072830       ??1?$_Tree_ptr@V?$_Tmap_traits@IUtagMvwScene@VA@@U?$less@I@std@@V?$allocator@U?$pair@$$CBIUtagMvwScene@VA@@@std@@@4@$0A@@std@@@std@@QAE@XZ 10121830 f i CiMultiWakeup.obj
 0002:00072860       ??1?$_List_ptr@IV?$allocator@I@std@@@std@@QAE@XZ 10121860 f i CiMultiWakeup.obj
 0002:00072890       ??1?$_Tree_nod@V?$_Tmap_traits@IUtagMvwScene@VA@@U?$less@I@std@@V?$allocator@U?$pair@$$CBIUtagMvwScene@VA@@@std@@@4@$0A@@std@@@std@@QAE@XZ 10121890 f i CiMultiWakeup.obj
 0002:000728c0       ??1?$_List_nod@IV?$allocator@I@std@@@std@@QAE@XZ 101218c0 f i CiMultiWakeup.obj
 0002:000728f0       ??1?$_Tmap_traits@IUtagMvwScene@VA@@U?$less@I@std@@V?$allocator@U?$pair@$$CBIUtagMvwScene@VA@@@std@@@4@$0A@@std@@QAE@XZ 101218f0 f i CiMultiWakeup.obj
 0002:00072920       ??0?$_Tree@V?$_Tmap_traits@IUtagMvwScene@VA@@U?$less@I@std@@V?$allocator@U?$pair@$$CBIUtagMvwScene@VA@@@std@@@4@$0A@@std@@@std@@QAE@ABU?$less@I@1@ABV?$allocator@U?$pair@$$CBIUtagMvwScene@VA@@@std@@@1@@Z 10121920 f i CiMultiWakeup.obj
 0002:000729b0       ?insert@?$_Tree@V?$_Tmap_traits@IUtagMvwScene@VA@@U?$less@I@std@@V?$allocator@U?$pair@$$CBIUtagMvwScene@VA@@@std@@@4@$0A@@std@@@std@@QAE?AViterator@12@Vconst_iterator@12@ABU?$pair@$$CBIUtagMvwScene@VA@@@2@@Z 101219b0 f i CiMultiWakeup.obj
 0002:00073170       ?_Erase@?$_Tree@V?$_Tmap_traits@IUtagMvwScene@VA@@U?$less@I@std@@V?$allocator@U?$pair@$$CBIUtagMvwScene@VA@@@std@@@4@$0A@@std@@@std@@IAEXPAU_Node@?$_Tree_nod@V?$_Tmap_traits@IUtagMvwScene@VA@@U?$less@I@std@@V?$allocator@U?$pair@$$CBIUtagMvwScene@VA@@@std@@@4@$0A@@std@@@2@@Z 10122170 f i CiMultiWakeup.obj
 0002:00073210       ?_Rmost@?$_Tree@V?$_Tmap_traits@IUtagMvwScene@VA@@U?$less@I@std@@V?$allocator@U?$pair@$$CBIUtagMvwScene@VA@@@std@@@4@$0A@@std@@@std@@IBEAAPAU_Node@?$_Tree_nod@V?$_Tmap_traits@IUtagMvwScene@VA@@U?$less@I@std@@V?$allocator@U?$pair@$$CBIUtagMvwScene@VA@@@std@@@4@$0A@@std@@@2@XZ 10122210 f i CiMultiWakeup.obj
 0002:00073240       ?_Tidy@?$_Tree@V?$_Tmap_traits@IUtagMvwScene@VA@@U?$less@I@std@@V?$allocator@U?$pair@$$CBIUtagMvwScene@VA@@@std@@@4@$0A@@std@@@std@@IAEXXZ 10122240 f i CiMultiWakeup.obj
 0002:00073350       ??1?$_Container_base_aux_alloc_real@V?$allocator@U?$pair@$$CBIUtagMvwScene@VA@@@std@@@std@@@std@@IAE@XZ 10122350 f i CiMultiWakeup.obj
 0002:000733d0       ??0?$allocator@U?$pair@$$CBIUtagMvwScene@VA@@@std@@@std@@QAE@XZ 101223d0 f i CiMultiWakeup.obj
 0002:000733f0       ??0?$allocator@I@std@@QAE@XZ 101223f0 f i CiMultiWakeup.obj
 0002:00073410       ??0const_iterator@?$_Tree@V?$_Tmap_traits@IUtagMvwScene@VA@@U?$less@I@std@@V?$allocator@U?$pair@$$CBIUtagMvwScene@VA@@@std@@@4@$0A@@std@@@std@@QAE@XZ 10122410 f i CiMultiWakeup.obj
 0002:00073450       ??0?$pair@$$CBIUtagMvwScene@VA@@@std@@QAE@ABIABUtagMvwScene@VA@@@Z 10122450 f i CiMultiWakeup.obj
 0002:00073490       ?_Nextnode@?$list@IV?$allocator@I@std@@@std@@KAAAPAU_Node@?$_List_nod@IV?$allocator@I@std@@@2@PAU342@@Z 10122490 f i CiMultiWakeup.obj
 0002:000734b0       ?_Prevnode@?$list@IV?$allocator@I@std@@@std@@KAAAPAU_Node@?$_List_nod@IV?$allocator@I@std@@@2@PAU342@@Z 101224b0 f i CiMultiWakeup.obj
 0002:000734d0       ?_Make_iter@?$list@IV?$allocator@I@std@@@std@@QBE?AV?$_Iterator@$00@12@V?$_Const_iterator@$00@12@@Z 101224d0 f i CiMultiWakeup.obj
 0002:00073510       ?_Insert@?$list@IV?$allocator@I@std@@@std@@QAEXV?$_Const_iterator@$00@12@ABI@Z 10122510 f i CiMultiWakeup.obj
 0002:000735b0       ?_Buynode@?$list@IV?$allocator@I@std@@@std@@IAEPAU_Node@?$_List_nod@IV?$allocator@I@std@@@2@XZ 101225b0 f i CiMultiWakeup.obj
 0002:000736f0       ?_Tidy@?$list@IV?$allocator@I@std@@@std@@IAEXXZ 101226f0 f i CiMultiWakeup.obj
 0002:00073780       ??0?$_List_val@IV?$allocator@I@std@@@std@@QAE@V?$allocator@I@1@@Z 10122780 f i CiMultiWakeup.obj
 0002:000737d0       ??1?$_Container_base_aux_alloc_real@V?$allocator@I@std@@@std@@IAE@XZ 101227d0 f i CiMultiWakeup.obj
 0002:00073850       ?deallocate@?$allocator@U_Node@?$_List_nod@IV?$allocator@I@std@@@std@@@std@@QAEXPAU_Node@?$_List_nod@IV?$allocator@I@std@@@2@I@Z 10122850 f i CiMultiWakeup.obj
 0002:00073880       ?destroy@?$allocator@U_Node@?$_List_nod@IV?$allocator@I@std@@@std@@@std@@QAEXPAU_Node@?$_List_nod@IV?$allocator@I@std@@@2@@Z 10122880 f i CiMultiWakeup.obj
 0002:000738b0       ??0?$_Iterator@$00@?$list@IV?$allocator@I@std@@@std@@QAE@PAU_Node@?$_List_nod@IV?$allocator@I@std@@@2@PBV12@@Z 101228b0 f i CiMultiWakeup.obj
 0002:000738f0       ??E?$_Iterator@$00@?$list@IV?$allocator@I@std@@@std@@QAEAAV012@XZ 101228f0 f i CiMultiWakeup.obj
 0002:00073920       ??0?$_Const_iterator@$00@?$list@IV?$allocator@I@std@@@std@@QAE@XZ 10122920 f i CiMultiWakeup.obj
 0002:00073960       ??D?$_Const_iterator@$00@?$list@IV?$allocator@I@std@@@std@@QBEABIXZ 10122960 f i CiMultiWakeup.obj
 0002:000739f0       ??F?$_Const_iterator@$00@?$list@IV?$allocator@I@std@@@std@@QAEAAV012@XZ 101229f0 f i CiMultiWakeup.obj
 0002:00073a90       ??8?$_Const_iterator@$00@?$list@IV?$allocator@I@std@@@std@@QBE_NABV012@@Z 10122a90 f i CiMultiWakeup.obj
 0002:00073b10       ??Eiterator@?$_Tree@V?$_Tmap_traits@HUtagKeyWordAndThreshold@VA@@U?$less@H@std@@V?$allocator@U?$pair@$$CBHUtagKeyWordAndThreshold@VA@@@std@@@4@$0A@@std@@@std@@QAEAAV012@XZ 10122b10 f i CiMultiWakeup.obj
 0002:00073b40       ??0tagMvwScene@VA@@QAE@ABU01@@Z 10122b40 f i CiMultiWakeup.obj
 0002:00073c50       ??0?$_Bidit@IHPBIABI@std@@QAE@XZ 10122c50 f i CiMultiWakeup.obj
 0002:00073c80       ??0?$map@HUtagKeyWordAndThreshold@VA@@U?$less@H@std@@V?$allocator@U?$pair@$$CBHUtagKeyWordAndThreshold@VA@@@std@@@4@@std@@QAE@ABV01@@Z 10122c80 f i CiMultiWakeup.obj
 0002:00073cb0       ??0?$_Iterator_with_base@Ubidirectional_iterator_tag@std@@IHPBIABIV_Iterator_base_aux@2@@std@@QAE@XZ 10122cb0 f i CiMultiWakeup.obj
 0002:00073ce0       ??0?$_Tree@V?$_Tmap_traits@HUtagKeyWordAndThreshold@VA@@U?$less@H@std@@V?$allocator@U?$pair@$$CBHUtagKeyWordAndThreshold@VA@@@std@@@4@$0A@@std@@@std@@QAE@ABV01@@Z 10122ce0 f i CiMultiWakeup.obj
 0002:00073dd0       ?size@?$_Tree@V?$_Tmap_traits@IUtagMvwScene@VA@@U?$less@I@std@@V?$allocator@U?$pair@$$CBIUtagMvwScene@VA@@@std@@@4@$0A@@std@@@std@@QBEIXZ 10122dd0 f i CiMultiWakeup.obj
 0002:00073df0       ?insert@?$_Tree@V?$_Tmap_traits@IUtagMvwScene@VA@@U?$less@I@std@@V?$allocator@U?$pair@$$CBIUtagMvwScene@VA@@@std@@@4@$0A@@std@@@std@@QAE?AU?$pair@Viterator@?$_Tree@V?$_Tmap_traits@IUtagMvwScene@VA@@U?$less@I@std@@V?$allocator@U?$pair@$$CBIUtagMvwScene@VA@@@std@@@4@$0A@@std@@@std@@_N@2@ABU?$pair@$$CBIUtagMvwScene@VA@@@2@@Z 10122df0 f i CiMultiWakeup.obj
 0002:00074050       ?erase@?$_Tree@V?$_Tmap_traits@IUtagMvwScene@VA@@U?$less@I@std@@V?$allocator@U?$pair@$$CBIUtagMvwScene@VA@@@std@@@4@$0A@@std@@@std@@QAE?AViterator@12@Vconst_iterator@12@0@Z 10123050 f i CiMultiWakeup.obj
 0002:00074140       ?_Init@?$_Tree@V?$_Tmap_traits@IUtagMvwScene@VA@@U?$less@I@std@@V?$allocator@U?$pair@$$CBIUtagMvwScene@VA@@@std@@@4@$0A@@std@@@std@@IAEXXZ 10123140 f i CiMultiWakeup.obj
 0002:000741d0       ?_Insert@?$_Tree@V?$_Tmap_traits@IUtagMvwScene@VA@@U?$less@I@std@@V?$allocator@U?$pair@$$CBIUtagMvwScene@VA@@@std@@@4@$0A@@std@@@std@@IAE?AViterator@12@_NPAU_Node@?$_Tree_nod@V?$_Tmap_traits@IUtagMvwScene@VA@@U?$less@I@std@@V?$allocator@U?$pair@$$CBIUtagMvwScene@VA@@@std@@@4@$0A@@std@@@2@ABU?$pair@$$CBIUtagMvwScene@VA@@@2@@Z 101231d0 f i CiMultiWakeup.obj
 0002:00074780       ??0?$_Tree_val@V?$_Tmap_traits@IUtagMvwScene@VA@@U?$less@I@std@@V?$allocator@U?$pair@$$CBIUtagMvwScene@VA@@@std@@@4@$0A@@std@@@std@@IAE@ABU?$less@I@1@V?$allocator@U?$pair@$$CBIUtagMvwScene@VA@@@std@@@1@@Z 10123780 f i CiMultiWakeup.obj
 0002:000747e0       ??0?$allocator@U?$pair@$$CBIUtagMvwScene@VA@@@std@@@std@@QAE@ABV01@@Z 101237e0 f i CiMultiWakeup.obj
 0002:00074800       ?deallocate@?$allocator@U_Node@?$_Tree_nod@V?$_Tmap_traits@IUtagMvwScene@VA@@U?$less@I@std@@V?$allocator@U?$pair@$$CBIUtagMvwScene@VA@@@std@@@4@$0A@@std@@@std@@@std@@QAEXPAU_Node@?$_Tree_nod@V?$_Tmap_traits@IUtagMvwScene@VA@@U?$less@I@std@@V?$allocator@U?$pair@$$CBIUtagMvwScene@VA@@@std@@@4@$0A@@std@@@2@I@Z 10123800 f i CiMultiWakeup.obj
 0002:00074830       ?destroy@?$allocator@U_Node@?$_Tree_nod@V?$_Tmap_traits@IUtagMvwScene@VA@@U?$less@I@std@@V?$allocator@U?$pair@$$CBIUtagMvwScene@VA@@@std@@@4@$0A@@std@@@std@@@std@@QAEXPAU_Node@?$_Tree_nod@V?$_Tmap_traits@IUtagMvwScene@VA@@U?$less@I@std@@V?$allocator@U?$pair@$$CBIUtagMvwScene@VA@@@std@@@4@$0A@@std@@@2@@Z 10123830 f i CiMultiWakeup.obj
 0002:00074860       ?destroy@?$allocator@PAU_Node@?$_Tree_nod@V?$_Tmap_traits@IUtagMvwScene@VA@@U?$less@I@std@@V?$allocator@U?$pair@$$CBIUtagMvwScene@VA@@@std@@@4@$0A@@std@@@std@@@std@@QAEXPAPAU_Node@?$_Tree_nod@V?$_Tmap_traits@IUtagMvwScene@VA@@U?$less@I@std@@V?$allocator@U?$pair@$$CBIUtagMvwScene@VA@@@std@@@4@$0A@@std@@@2@@Z 10123860 f i CiMultiWakeup.obj
 0002:00074890       ??0?$allocator@I@std@@QAE@ABV01@@Z 10123890 f i CiMultiWakeup.obj
 0002:000748b0       ??Fconst_iterator@?$_Tree@V?$_Tmap_traits@IUtagMvwScene@VA@@U?$less@I@std@@V?$allocator@U?$pair@$$CBIUtagMvwScene@VA@@@std@@@4@$0A@@std@@@std@@QAEAAV012@XZ 101238b0 f i CiMultiWakeup.obj
 0002:000748e0       ?_Myval@?$list@IV?$allocator@I@std@@@std@@KAAAIPAU_Node@?$_List_nod@IV?$allocator@I@std@@@2@@Z 101238e0 f i CiMultiWakeup.obj
 0002:00074900       ?_Buynode@?$list@IV?$allocator@I@std@@@std@@IAEPAU_Node@?$_List_nod@IV?$allocator@I@std@@@2@PAU342@0ABI@Z 10123900 f i CiMultiWakeup.obj
 0002:00074aa0       ?_Incsize@?$list@IV?$allocator@I@std@@@std@@IAEXI@Z 10123aa0 f i CiMultiWakeup.obj
 0002:00074b80       ??0?$_List_ptr@IV?$allocator@I@std@@@std@@IAE@V?$allocator@I@1@@Z 10123b80 f i CiMultiWakeup.obj
 0002:00074bd0       ?allocate@?$allocator@U_Node@?$_List_nod@IV?$allocator@I@std@@@std@@@std@@QAEPAU_Node@?$_List_nod@IV?$allocator@I@std@@@2@I@Z 10123bd0 f i CiMultiWakeup.obj
 0002:00074c00       ?construct@?$allocator@PAU_Node@?$_List_nod@IV?$allocator@I@std@@@std@@@std@@QAEXPAPAU_Node@?$_List_nod@IV?$allocator@I@std@@@2@ABQAU342@@Z 10123c00 f i CiMultiWakeup.obj
 0002:00074c30       ?destroy@?$allocator@PAU_Node@?$_List_nod@IV?$allocator@I@std@@@std@@@std@@QAEXPAPAU_Node@?$_List_nod@IV?$allocator@I@std@@@2@@Z 10123c30 f i CiMultiWakeup.obj
 0002:00074c60       ??0?$_Const_iterator@$00@?$list@IV?$allocator@I@std@@@std@@QAE@PAU_Node@?$_List_nod@IV?$allocator@I@std@@@2@PBV12@@Z 10123c60 f i CiMultiWakeup.obj
 0002:00074cd0       ??E?$_Const_iterator@$00@?$list@IV?$allocator@I@std@@@std@@QAEAAV012@XZ 10123cd0 f i CiMultiWakeup.obj
 0002:00074d70       ?_Mynode@?$_Const_iterator@$00@?$list@IV?$allocator@I@std@@@std@@QBEPAU_Node@?$_List_nod@IV?$allocator@I@std@@@3@XZ 10123d70 f i CiMultiWakeup.obj
 0002:00074d90       ?get_allocator@?$_Tree@V?$_Tmap_traits@HUtagKeyWordAndThreshold@VA@@U?$less@H@std@@V?$allocator@U?$pair@$$CBHUtagKeyWordAndThreshold@VA@@@std@@@4@$0A@@std@@@std@@QBE?AV?$allocator@U?$pair@$$CBHUtagKeyWordAndThreshold@VA@@@std@@@2@XZ 10123d90 f i CiMultiWakeup.obj
 0002:00074dc0       ?key_comp@?$_Tree@V?$_Tmap_traits@HUtagKeyWordAndThreshold@VA@@U?$less@H@std@@V?$allocator@U?$pair@$$CBHUtagKeyWordAndThreshold@VA@@@std@@@4@$0A@@std@@@std@@QBE?AU?$less@H@2@XZ 10123dc0 f i CiMultiWakeup.obj
 0002:00074de0       ?_Color@?$_Tree@V?$_Tmap_traits@IUtagMvwScene@VA@@U?$less@I@std@@V?$allocator@U?$pair@$$CBIUtagMvwScene@VA@@@std@@@4@$0A@@std@@@std@@KAAADPAU_Node@?$_Tree_nod@V?$_Tmap_traits@IUtagMvwScene@VA@@U?$less@I@std@@V?$allocator@U?$pair@$$CBIUtagMvwScene@VA@@@std@@@4@$0A@@std@@@2@@Z 10123de0 f i CiMultiWakeup.obj
 0002:00074e00       ?_Make_iter@?$_Tree@V?$_Tmap_traits@IUtagMvwScene@VA@@U?$less@I@std@@V?$allocator@U?$pair@$$CBIUtagMvwScene@VA@@@std@@@4@$0A@@std@@@std@@QBE?AViterator@12@Vconst_iterator@12@@Z 10123e00 f i CiMultiWakeup.obj
 0002:00074e50       ?max_size@?$_Tree@V?$_Tmap_traits@IUtagMvwScene@VA@@U?$less@I@std@@V?$allocator@U?$pair@$$CBIUtagMvwScene@VA@@@std@@@4@$0A@@std@@@std@@QBEIXZ 10123e50 f i CiMultiWakeup.obj
 0002:00074e80       ?erase@?$_Tree@V?$_Tmap_traits@IUtagMvwScene@VA@@U?$less@I@std@@V?$allocator@U?$pair@$$CBIUtagMvwScene@VA@@@std@@@4@$0A@@std@@@std@@QAE?AViterator@12@Vconst_iterator@12@@Z 10123e80 f i CiMultiWakeup.obj
 0002:00075870       ?_Lrotate@?$_Tree@V?$_Tmap_traits@IUtagMvwScene@VA@@U?$less@I@std@@V?$allocator@U?$pair@$$CBIUtagMvwScene@VA@@@std@@@4@$0A@@std@@@std@@IAEXPAU_Node@?$_Tree_nod@V?$_Tmap_traits@IUtagMvwScene@VA@@U?$less@I@std@@V?$allocator@U?$pair@$$CBIUtagMvwScene@VA@@@std@@@4@$0A@@std@@@2@@Z 10124870 f i CiMultiWakeup.obj
 0002:00075a00       ?_Rrotate@?$_Tree@V?$_Tmap_traits@IUtagMvwScene@VA@@U?$less@I@std@@V?$allocator@U?$pair@$$CBIUtagMvwScene@VA@@@std@@@4@$0A@@std@@@std@@IAEXPAU_Node@?$_Tree_nod@V?$_Tmap_traits@IUtagMvwScene@VA@@U?$less@I@std@@V?$allocator@U?$pair@$$CBIUtagMvwScene@VA@@@std@@@4@$0A@@std@@@2@@Z 10124a00 f i CiMultiWakeup.obj
 0002:00075b90       ?_Buynode@?$_Tree@V?$_Tmap_traits@IUtagMvwScene@VA@@U?$less@I@std@@V?$allocator@U?$pair@$$CBIUtagMvwScene@VA@@@std@@@4@$0A@@std@@@std@@IAEPAU_Node@?$_Tree_nod@V?$_Tmap_traits@IUtagMvwScene@VA@@U?$less@I@std@@V?$allocator@U?$pair@$$CBIUtagMvwScene@VA@@@std@@@4@$0A@@std@@@2@XZ 10124b90 f i CiMultiWakeup.obj
 0002:00075d70       ?_Buynode@?$_Tree@V?$_Tmap_traits@IUtagMvwScene@VA@@U?$less@I@std@@V?$allocator@U?$pair@$$CBIUtagMvwScene@VA@@@std@@@4@$0A@@std@@@std@@IAEPAU_Node@?$_Tree_nod@V?$_Tmap_traits@IUtagMvwScene@VA@@U?$less@I@std@@V?$allocator@U?$pair@$$CBIUtagMvwScene@VA@@@std@@@4@$0A@@std@@@2@PAU342@00ABU?$pair@$$CBIUtagMvwScene@VA@@@2@D@Z 10124d70 f i CiMultiWakeup.obj
 0002:00075e90       ??0?$_Tree_ptr@V?$_Tmap_traits@IUtagMvwScene@VA@@U?$less@I@std@@V?$allocator@U?$pair@$$CBIUtagMvwScene@VA@@@std@@@4@$0A@@std@@@std@@IAE@ABU?$less@I@1@V?$allocator@U?$pair@$$CBIUtagMvwScene@VA@@@std@@@1@@Z 10124e90 f i CiMultiWakeup.obj
 0002:00075ef0       ?construct@?$allocator@I@std@@QAEXPAIABI@Z 10124ef0 f i CiMultiWakeup.obj
 0002:00075f20       ??Fiterator@?$_Tree@V?$_Tmap_traits@IUtagMvwScene@VA@@U?$less@I@std@@V?$allocator@U?$pair@$$CBIUtagMvwScene@VA@@@std@@@4@$0A@@std@@@std@@QAEAAV012@XZ 10124f20 f i CiMultiWakeup.obj
 0002:00075f50       ??Econst_iterator@?$_Tree@V?$_Tmap_traits@IUtagMvwScene@VA@@U?$less@I@std@@V?$allocator@U?$pair@$$CBIUtagMvwScene@VA@@@std@@@4@$0A@@std@@@std@@QAE?AV012@H@Z 10124f50 f i CiMultiWakeup.obj
 0002:00075fa0       ?_Dec@const_iterator@?$_Tree@V?$_Tmap_traits@IUtagMvwScene@VA@@U?$less@I@std@@V?$allocator@U?$pair@$$CBIUtagMvwScene@VA@@@std@@@4@$0A@@std@@@std@@QAEXXZ 10124fa0 f i CiMultiWakeup.obj
 0002:00076120       ?max_size@?$list@IV?$allocator@I@std@@@std@@QBEIXZ 10125120 f i CiMultiWakeup.obj
 0002:00076150       ??0?$_List_nod@IV?$allocator@I@std@@@std@@IAE@V?$allocator@I@1@@Z 10125150 f i CiMultiWakeup.obj
 0002:000761a0       ??0?$pair@Viterator@?$_Tree@V?$_Tmap_traits@IUtagMvwScene@VA@@U?$less@I@std@@V?$allocator@U?$pair@$$CBIUtagMvwScene@VA@@@std@@@4@$0A@@std@@@std@@_N@std@@QAE@ABViterator@?$_Tree@V?$_Tmap_traits@IUtagMvwScene@VA@@U?$less@I@std@@V?$allocator@U?$pair@$$CBIUtagMvwScene@VA@@@std@@@4@$0A@@std@@@1@AB_N@Z 101251a0 f i CiMultiWakeup.obj
 0002:000761e0       ?_Max@?$_Tree@V?$_Tmap_traits@IUtagMvwScene@VA@@U?$less@I@std@@V?$allocator@U?$pair@$$CBIUtagMvwScene@VA@@@std@@@4@$0A@@std@@@std@@KAPAU_Node@?$_Tree_nod@V?$_Tmap_traits@IUtagMvwScene@VA@@U?$less@I@std@@V?$allocator@U?$pair@$$CBIUtagMvwScene@VA@@@std@@@4@$0A@@std@@@2@PAU342@@Z 101251e0 f i CiMultiWakeup.obj
 0002:00076240       ??0?$_Tree_nod@V?$_Tmap_traits@IUtagMvwScene@VA@@U?$less@I@std@@V?$allocator@U?$pair@$$CBIUtagMvwScene@VA@@@std@@@4@$0A@@std@@@std@@IAE@ABU?$less@I@1@V?$allocator@U?$pair@$$CBIUtagMvwScene@VA@@@std@@@1@@Z 10125240 f i CiMultiWakeup.obj
 0002:000762a0       ?max_size@?$allocator@U?$pair@$$CBIUtagMvwScene@VA@@@std@@@std@@QBEIXZ 101252a0 f i CiMultiWakeup.obj
 0002:000762e0       ?allocate@?$allocator@U_Node@?$_Tree_nod@V?$_Tmap_traits@IUtagMvwScene@VA@@U?$less@I@std@@V?$allocator@U?$pair@$$CBIUtagMvwScene@VA@@@std@@@4@$0A@@std@@@std@@@std@@QAEPAU_Node@?$_Tree_nod@V?$_Tmap_traits@IUtagMvwScene@VA@@U?$less@I@std@@V?$allocator@U?$pair@$$CBIUtagMvwScene@VA@@@std@@@4@$0A@@std@@@2@I@Z 101252e0 f i CiMultiWakeup.obj
 0002:00076310       ?construct@?$allocator@PAU_Node@?$_Tree_nod@V?$_Tmap_traits@IUtagMvwScene@VA@@U?$less@I@std@@V?$allocator@U?$pair@$$CBIUtagMvwScene@VA@@@std@@@4@$0A@@std@@@std@@@std@@QAEXPAPAU_Node@?$_Tree_nod@V?$_Tmap_traits@IUtagMvwScene@VA@@U?$less@I@std@@V?$allocator@U?$pair@$$CBIUtagMvwScene@VA@@@std@@@4@$0A@@std@@@2@ABQAU342@@Z 10125310 f i CiMultiWakeup.obj
 0002:00076340       ?max_size@?$allocator@I@std@@QBEIXZ 10125340 f i CiMultiWakeup.obj
 0002:00076380       ??0?$_Container_base_aux_alloc_real@V?$allocator@I@std@@@std@@IAE@V?$allocator@I@1@@Z 10125380 f i CiMultiWakeup.obj
 0002:00076470       ??0_Node@?$_Tree_nod@V?$_Tmap_traits@IUtagMvwScene@VA@@U?$less@I@std@@V?$allocator@U?$pair@$$CBIUtagMvwScene@VA@@@std@@@4@$0A@@std@@@std@@QAE@PAU012@00ABU?$pair@$$CBIUtagMvwScene@VA@@@2@D@Z 10125470 f i CiMultiWakeup.obj
 0002:000764e0       ??0?$pair@$$CBIUtagMvwScene@VA@@@std@@QAE@ABU01@@Z 101254e0 f i CiMultiWakeup.obj
 0002:00076530       ??0?$_Tmap_traits@IUtagMvwScene@VA@@U?$less@I@std@@V?$allocator@U?$pair@$$CBIUtagMvwScene@VA@@@std@@@4@$0A@@std@@QAE@U?$less@I@1@V?$allocator@U?$pair@$$CBIUtagMvwScene@VA@@@std@@@1@@Z 10125530 f i CiMultiWakeup.obj
 0002:00076570       ??0?$_Container_base_aux_alloc_real@V?$allocator@U?$pair@$$CBIUtagMvwScene@VA@@@std@@@std@@@std@@IAE@V?$allocator@U?$pair@$$CBIUtagMvwScene@VA@@@std@@@1@@Z 10125570 f i CiMultiWakeup.obj
 0002:00076660       ??$_Destroy@U_Node@?$_List_nod@IV?$allocator@I@std@@@std@@@std@@YAXPAU_Node@?$_List_nod@IV?$allocator@I@std@@@0@@Z 10125660 f i CiMultiWakeup.obj
 0002:00076680       ??$_Destroy@U_Node@?$_Tree_nod@V?$_Tmap_traits@IUtagMvwScene@VA@@U?$less@I@std@@V?$allocator@U?$pair@$$CBIUtagMvwScene@VA@@@std@@@4@$0A@@std@@@std@@@std@@YAXPAU_Node@?$_Tree_nod@V?$_Tmap_traits@IUtagMvwScene@VA@@U?$less@I@std@@V?$allocator@U?$pair@$$CBIUtagMvwScene@VA@@@std@@@4@$0A@@std@@@0@@Z 10125680 f i CiMultiWakeup.obj
 0002:000766a0       ??$_Destroy@PAU_Node@?$_Tree_nod@V?$_Tmap_traits@IUtagMvwScene@VA@@U?$less@I@std@@V?$allocator@U?$pair@$$CBIUtagMvwScene@VA@@@std@@@4@$0A@@std@@@std@@@std@@YAXPAPAU_Node@?$_Tree_nod@V?$_Tmap_traits@IUtagMvwScene@VA@@U?$less@I@std@@V?$allocator@U?$pair@$$CBIUtagMvwScene@VA@@@std@@@4@$0A@@std@@@0@@Z 101256a0 f i CiMultiWakeup.obj
 0002:000766c0       ??$?0I@?$allocator@PAU_Node@?$_List_nod@IV?$allocator@I@std@@@std@@@std@@QAE@ABV?$allocator@I@1@@Z 101256c0 f i CiMultiWakeup.obj
 0002:000766e0       ??$_Allocate@U_Node@?$_List_nod@IV?$allocator@I@std@@@std@@@std@@YAPAU_Node@?$_List_nod@IV?$allocator@I@std@@@0@IPAU120@@Z 101256e0 f i CiMultiWakeup.obj
 0002:00076750       ??$_Construct@PAU_Node@?$_List_nod@IV?$allocator@I@std@@@std@@PAU123@@std@@YAXPAPAU_Node@?$_List_nod@IV?$allocator@I@std@@@0@ABQAU120@@Z 10125750 f i CiMultiWakeup.obj
 0002:000767b0       ??$_Destroy@PAU_Node@?$_List_nod@IV?$allocator@I@std@@@std@@@std@@YAXPAPAU_Node@?$_List_nod@IV?$allocator@I@std@@@0@@Z 101257b0 f i CiMultiWakeup.obj
 0002:000767d0       ??$?0U?$pair@$$CBIUtagMvwScene@VA@@@std@@@?$allocator@PAU_Node@?$_Tree_nod@V?$_Tmap_traits@IUtagMvwScene@VA@@U?$less@I@std@@V?$allocator@U?$pair@$$CBIUtagMvwScene@VA@@@std@@@4@$0A@@std@@@std@@@std@@QAE@ABV?$allocator@U?$pair@$$CBIUtagMvwScene@VA@@@std@@@1@@Z 101257d0 f i CiMultiWakeup.obj
 0002:000767f0       ??$_Construct@II@std@@YAXPAIABI@Z 101257f0 f i CiMultiWakeup.obj
 0002:00076850       ??$?0I@?$allocator@U_Node@?$_List_nod@IV?$allocator@I@std@@@std@@@std@@QAE@ABV?$allocator@I@1@@Z 10125850 f i CiMultiWakeup.obj
 0002:00076870       ??$?0U?$pair@$$CBIUtagMvwScene@VA@@@std@@@?$allocator@U_Node@?$_Tree_nod@V?$_Tmap_traits@IUtagMvwScene@VA@@U?$less@I@std@@V?$allocator@U?$pair@$$CBIUtagMvwScene@VA@@@std@@@4@$0A@@std@@@std@@@std@@QAE@ABV?$allocator@U?$pair@$$CBIUtagMvwScene@VA@@@std@@@1@@Z 10125870 f i CiMultiWakeup.obj
 0002:00076890       ??$_Allocate@U_Node@?$_Tree_nod@V?$_Tmap_traits@IUtagMvwScene@VA@@U?$less@I@std@@V?$allocator@U?$pair@$$CBIUtagMvwScene@VA@@@std@@@4@$0A@@std@@@std@@@std@@YAPAU_Node@?$_Tree_nod@V?$_Tmap_traits@IUtagMvwScene@VA@@U?$less@I@std@@V?$allocator@U?$pair@$$CBIUtagMvwScene@VA@@@std@@@4@$0A@@std@@@0@IPAU120@@Z 10125890 f i CiMultiWakeup.obj
 0002:00076900       ??$_Construct@PAU_Node@?$_Tree_nod@V?$_Tmap_traits@IUtagMvwScene@VA@@U?$less@I@std@@V?$allocator@U?$pair@$$CBIUtagMvwScene@VA@@@std@@@4@$0A@@std@@@std@@PAU123@@std@@YAXPAPAU_Node@?$_Tree_nod@V?$_Tmap_traits@IUtagMvwScene@VA@@U?$less@I@std@@V?$allocator@U?$pair@$$CBIUtagMvwScene@VA@@@std@@@4@$0A@@std@@@0@ABQAU120@@Z 10125900 f i CiMultiWakeup.obj
 0002:00076960       ??$?0I@?$allocator@V_Aux_cont@std@@@std@@QAE@ABV?$allocator@I@1@@Z 10125960 f i CiMultiWakeup.obj
 0002:00076980       ??$?0U?$pair@$$CBIUtagMvwScene@VA@@@std@@@?$allocator@V_Aux_cont@std@@@std@@QAE@ABV?$allocator@U?$pair@$$CBIUtagMvwScene@VA@@@std@@@1@@Z 10125980 f i CiMultiWakeup.obj
 0002:000769a0       ??_G_Node@?$_Tree_nod@V?$_Tmap_traits@IUtagMvwScene@VA@@U?$less@I@std@@V?$allocator@U?$pair@$$CBIUtagMvwScene@VA@@@std@@@4@$0A@@std@@@std@@QAEPAXI@Z 101259a0 f i CiMultiWakeup.obj
 0002:000769f0       ??1_Node@?$_Tree_nod@V?$_Tmap_traits@IUtagMvwScene@VA@@U?$less@I@std@@V?$allocator@U?$pair@$$CBIUtagMvwScene@VA@@@std@@@4@$0A@@std@@@std@@QAE@XZ 101259f0 f i CiMultiWakeup.obj
 0002:00076a20       ??0CIVW@VA@@QAE@PBDII@Z    10125a20 f   CIVW.obj
 0002:00077390       ??0tagResMemInfo@VA@@QAE@XZ 10126390 f i CIVW.obj
 0002:000773e0       ??_GCIVW@VA@@UAEPAXI@Z     101263e0 f i CIVW.obj
 0002:000773e0       ??_ECIVW@VA@@UAEPAXI@Z     101263e0 f i CIVW.obj
 0002:00077430       ??1?$map@HUtagMulObjScene@VA@@U?$less@H@std@@V?$allocator@U?$pair@$$CBHUtagMulObjScene@VA@@@std@@@4@@std@@QAE@XZ 10126430 f i CIVW.obj
 0002:00077460       ??1?$map@PAX_NU?$less@PAX@std@@V?$allocator@U?$pair@QAX_N@std@@@2@@std@@QAE@XZ 10126460 f i CIVW.obj
 0002:00077490       ??1?$map@PAXIU?$less@PAX@std@@V?$allocator@U?$pair@QAXI@std@@@2@@std@@QAE@XZ 10126490 f i CIVW.obj
 0002:000774c0       ??1?$queue@UMvwResultMsg@VA@@V?$deque@UMvwResultMsg@VA@@V?$allocator@UMvwResultMsg@VA@@@std@@@std@@@std@@QAE@XZ 101264c0 f i CIVW.obj
 0002:000774f0       ??1CIVW@VA@@UAE@XZ         101264f0 f   CIVW.obj
 0002:00077880       ?Init@CIVW@VA@@AAEXXZ      10126880 f   CIVW.obj
 0002:00077a60       ?UnInit@CIVW@VA@@AAEXXZ    10126a60 f   CIVW.obj
 0002:00077e30       ??_GCAEC@VA@@QAEPAXI@Z     10126e30 f i CIVW.obj
 0002:00077e80       ??_GCLSA@VA@@QAEPAXI@Z     10126e80 f i CIVW.obj
 0002:00077ed0       ??_GCAudioPower@VA@@QAEPAXI@Z 10126ed0 f i CIVW.obj
 0002:00077f20       ?InitIvw@CIVW@VA@@AAEXXZ   10126f20 f   CIVW.obj
 0002:00078850       ?InitGramIvw@CIVW@VA@@AAEHXZ 10127850 f   CIVW.obj
 0002:00079150       ?UnInitGramIvw@CIVW@VA@@AAEXXZ 10128150 f   CIVW.obj
 0002:00079290       ?EnterCommonMutex@CIVW@VA@@QAEXXZ 10128290 f   CIVW.obj
 0002:000792c0       ?LeaveCommonMutex@CIVW@VA@@QAEXXZ 101282c0 f   CIVW.obj
 0002:000792f0       ?WriteResultLog@CIVW@VA@@QAEXHHH@Z 101282f0 f   CIVW.obj
 0002:000793a0       ?BuildResource@CIVW@VA@@AAEHPAUtagKeyWordAndThreshold@2@IPADAAI@Z 101283a0 f   CIVW.obj
 0002:00079bd0       ??4tagKeyWordAndThreshold@VA@@QAEAAU01@ABU01@@Z 10128bd0 f i CIVW.obj
 0002:00079c10       ?BuildGrm@CIVW@VA@@QAEHPADUtagMulObjScene@2@@Z 10128c10 f   CIVW.obj
 0002:0007ae00       ??_EtagKeyWordAndThreshold@VA@@QAEPAXI@Z 10129e00 f i CIVW.obj
 0002:0007ae90       ?SetAudioDeNoiseSwitchParam@CIVW@VA@@AAEHH@Z 10129e90 f   CIVW.obj
 0002:0007b220       ?SetParam@CIVW@VA@@QAEHPBD0@Z 1012a220 f   CIVW.obj
 0002:0007b570       ?AddMulMvwObj@CIVW@VA@@QAEHPAX@Z 1012a570 f   CIVW.obj
 0002:0007b620       ?DelMulMvwObj@CIVW@VA@@QAEHPAX@Z 1012a620 f   CIVW.obj
 0002:0007b840       ?ReStartIvwObj@CIVW@VA@@AAEHXZ 1012a840 f   CIVW.obj
 0002:0007c2c0       ?CheckIfMulObjValid@CIVW@VA@@AAE_NPAX@Z 1012b2c0 f   CIVW.obj
 0002:0007c370       ?StopIvwInst@CIVW@VA@@AAEHXZ 1012b370 f   CIVW.obj
 0002:0007c710       ?IsCouldAppendAudioData@CIVW@VA@@QAE_NXZ 1012b710 f   CIVW.obj
 0002:0007c740       ?AppendAudioData@CIVW@VA@@QAEHPAXIPAI@Z 1012b740 f   CIVW.obj
 0002:0007c820       ?SetTmpLogDir@CIVW@VA@@QAEXPBD@Z 1012b820 f   CIVW.obj
 0002:0007c950       ?SetSceneListRes@CIVW@VA@@AAEHPAV?$list@IV?$allocator@I@std@@@std@@PAX_N@Z 1012b950 f   CIVW.obj
 0002:0007cab0       ?InitLogPcm@CIVW@VA@@AAEXXZ 1012bab0 f   CIVW.obj
 0002:0007cb20       ?UnInitLogPcm@CIVW@VA@@AAEXXZ 1012bb20 f   CIVW.obj
 0002:0007cb60       ?OpenLogPcmFile@CIVW@VA@@AAEXXZ 1012bb60 f   CIVW.obj
 0002:0007d040       ?CloseLogPcmFile@CIVW@VA@@AAEXXZ 1012c040 f   CIVW.obj
 0002:0007d140       ?WriteLogPcmData@CIVW@VA@@AAEXPBXIPAU_iobuf@@@Z 1012c140 f   CIVW.obj
 0002:0007d1c0       ?DropAudioData@CIVW@VA@@AAEXXZ 1012c1c0 f   CIVW.obj
 0002:0007d240       ?Pause@CIVW@VA@@AAEXXZ     1012c240 f   CIVW.obj
 0002:0007d350       ?LoadRes@CIVW@VA@@AAEHPBDPAHPAPAD@Z 1012c350 f   CIVW.obj
 0002:0007d560       ?AddResId2SceneRelation@CIVW@VA@@AAEHUtagMulObjScene@2@UtagResMemInfo@2@@Z 1012c560 f   CIVW.obj
 0002:0007daa0       ??4tagMulObjScene@VA@@QAEAAU01@U01@@Z 1012caa0 f i CIVW.obj
 0002:0007dae0       ??8tagMulObjScene@VA@@QAE_NU01@@Z 1012cae0 f i CIVW.obj
 0002:0007db20       ??4tagResMemInfo@VA@@QAEAAU01@U01@@Z 1012cb20 f i CIVW.obj
 0002:0007db70       ??_H@YGXPAXIHP6EPAX0@Z@Z   1012cb70 f i CIVW.obj
 0002:0007dbb0       ?AddRes@CIVW@VA@@AAEHIPAX@Z 1012cbb0 f   CIVW.obj
 0002:0007dd90       ?DelResId2SceneRelation@CIVW@VA@@AAEHUtagMulObjScene@2@@Z 1012cd90 f   CIVW.obj
 0002:0007e2a0       ??4?$map@HUtagMulObjScene@VA@@U?$less@H@std@@V?$allocator@U?$pair@$$CBHUtagMulObjScene@VA@@@std@@@4@@std@@QAEAAV01@ABV01@@Z 1012d2a0 f i CIVW.obj
 0002:0007e2d0       ?DelRes@CIVW@VA@@AAEHIPAX@Z 1012d2d0 f   CIVW.obj
 0002:0007e320       ?StartSync@CIVW@VA@@AAEHIPAX@Z 1012d320 f   CIVW.obj
 0002:0007ebd0       ?AddStartSceneSync@CIVW@VA@@AAEHIPAX@Z 1012dbd0 f   CIVW.obj
 0002:0007f2c0       ?StopSync@CIVW@VA@@AAEHIPAX@Z 1012e2c0 f   CIVW.obj
 0002:0007f880       ?Start@CIVW@VA@@QAEHIPAX@Z 1012e880 f   CIVW.obj
 0002:0007f9b0       ?AddStartScene@CIVW@VA@@QAEHIPAX@Z 1012e9b0 f   CIVW.obj
 0002:0007fb40       ?Stop@CIVW@VA@@QAEHIPAX@Z  1012eb40 f   CIVW.obj
 0002:0007fd60       ?OnISSChipCryptError@CIVW@VA@@AAEXI@Z 1012ed60 f   CIVW.obj
 0002:0007ff40       ??4?$map@PAX_NU?$less@PAX@std@@V?$allocator@U?$pair@QAX_N@std@@@2@@std@@QAEAAV01@ABV01@@Z 1012ef40 f i CIVW.obj
 0002:0007ff70       ?AddDataSizeProcess@CIVW@VA@@AAEXI@Z 1012ef70 f   CIVW.obj
 0002:00080020       ?CheckIfMulObjTimeOut@CIVW@VA@@AAEPAXXZ 1012f020 f   CIVW.obj
 0002:00080100       ?IvwCallBackWakeup@CIVW@VA@@SAHPAXPBD@Z 1012f100 f   CIVW.obj
 0002:00080170       ?CommonWakeUpCallBack@CIVW@VA@@QAEHPBD@Z 1012f170 f   CIVW.obj
 0002:00081260       ??0MvwResultMsg@VA@@QAE@XZ 10130260 f i CIVW.obj
 0002:000812f0       ??1MvwResultMsg@VA@@QAE@XZ 101302f0 f i CIVW.obj
 0002:00081320       ?thread_IssVwWorking@CIVW@VA@@CGKPAX@Z 10130320 f   CIVW.obj
 0002:00081350       ?thread_IssVwMsgWorking@CIVW@VA@@CGKPAX@Z 10130350 f   CIVW.obj
 0002:00081380       ?thread_IssVwCBWorking@CIVW@VA@@CGKPAX@Z 10130380 f   CIVW.obj
 0002:000813b0       ?IssVwWorking@CIVW@VA@@AAEXXZ 101303b0 f   CIVW.obj
 0002:00081b40       ?IssVwMsgWorking@CIVW@VA@@AAEXXZ 10130b40 f   CIVW.obj
 0002:00081c90       ?IssVwCBWorking@CIVW@VA@@AAEXXZ 10130c90 f   CIVW.obj
 0002:00081fb0       ??4MvwResultMsg@VA@@QAEAAU01@ABU01@@Z 10130fb0 f i CIVW.obj
 0002:00082060       ??0?$map@HUtagMulObjScene@VA@@U?$less@H@std@@V?$allocator@U?$pair@$$CBHUtagMulObjScene@VA@@@std@@@4@@std@@QAE@XZ 10131060 f i CIVW.obj
 0002:000820a0       ??A?$map@HUtagMulObjScene@VA@@U?$less@H@std@@V?$allocator@U?$pair@$$CBHUtagMulObjScene@VA@@@std@@@4@@std@@QAEAAUtagMulObjScene@VA@@ABH@Z 101310a0 f i CIVW.obj
 0002:00082190       ??1?$_Tree@V?$_Tmap_traits@HUtagMulObjScene@VA@@U?$less@H@std@@V?$allocator@U?$pair@$$CBHUtagMulObjScene@VA@@@std@@@4@$0A@@std@@@std@@QAE@XZ 10131190 f i CIVW.obj
 0002:00082210       ??4?$_Tree@V?$_Tmap_traits@HUtagMulObjScene@VA@@U?$less@H@std@@V?$allocator@U?$pair@$$CBHUtagMulObjScene@VA@@@std@@@4@$0A@@std@@@std@@QAEAAV01@ABV01@@Z 10131210 f i CIVW.obj
 0002:000822b0       ?begin@?$_Tree@V?$_Tmap_traits@HUtagMulObjScene@VA@@U?$less@H@std@@V?$allocator@U?$pair@$$CBHUtagMulObjScene@VA@@@std@@@4@$0A@@std@@@std@@QAE?AViterator@12@XZ 101312b0 f i CIVW.obj
 0002:000822f0       ?end@?$_Tree@V?$_Tmap_traits@HUtagMulObjScene@VA@@U?$less@H@std@@V?$allocator@U?$pair@$$CBHUtagMulObjScene@VA@@@std@@@4@$0A@@std@@@std@@QAE?AViterator@12@XZ 101312f0 f i CIVW.obj
 0002:00082330       ?size@?$_Tree@V?$_Tmap_traits@HUtagMulObjScene@VA@@U?$less@H@std@@V?$allocator@U?$pair@$$CBHUtagMulObjScene@VA@@@std@@@4@$0A@@std@@@std@@QBEIXZ 10131330 f i CIVW.obj
 0002:00082350       ?clear@?$_Tree@V?$_Tmap_traits@HUtagMulObjScene@VA@@U?$less@H@std@@V?$allocator@U?$pair@$$CBHUtagMulObjScene@VA@@@std@@@4@$0A@@std@@@std@@QAEXXZ 10131350 f i CIVW.obj
 0002:000823d0       ?find@?$_Tree@V?$_Tmap_traits@HUtagMulObjScene@VA@@U?$less@H@std@@V?$allocator@U?$pair@$$CBHUtagMulObjScene@VA@@@std@@@4@$0A@@std@@@std@@QAE?AViterator@12@ABH@Z 101313d0 f i CIVW.obj
 0002:00082490       ??0?$map@PAX_NU?$less@PAX@std@@V?$allocator@U?$pair@QAX_N@std@@@2@@std@@QAE@XZ 10131490 f i CIVW.obj
 0002:000824d0       ??A?$map@PAX_NU?$less@PAX@std@@V?$allocator@U?$pair@QAX_N@std@@@2@@std@@QAEAA_NABQAX@Z 101314d0 f i CIVW.obj
 0002:000825c0       ??1?$_Tree@V?$_Tmap_traits@PAX_NU?$less@PAX@std@@V?$allocator@U?$pair@QAX_N@std@@@2@$0A@@std@@@std@@QAE@XZ 101315c0 f i CIVW.obj
 0002:00082640       ??4?$_Tree@V?$_Tmap_traits@PAX_NU?$less@PAX@std@@V?$allocator@U?$pair@QAX_N@std@@@2@$0A@@std@@@std@@QAEAAV01@ABV01@@Z 10131640 f i CIVW.obj
 0002:000826e0       ?begin@?$_Tree@V?$_Tmap_traits@PAX_NU?$less@PAX@std@@V?$allocator@U?$pair@QAX_N@std@@@2@$0A@@std@@@std@@QAE?AViterator@12@XZ 101316e0 f i CIVW.obj
 0002:00082720       ?end@?$_Tree@V?$_Tmap_traits@PAX_NU?$less@PAX@std@@V?$allocator@U?$pair@QAX_N@std@@@2@$0A@@std@@@std@@QAE?AViterator@12@XZ 10131720 f i CIVW.obj
 0002:00082760       ?erase@?$_Tree@V?$_Tmap_traits@PAX_NU?$less@PAX@std@@V?$allocator@U?$pair@QAX_N@std@@@2@$0A@@std@@@std@@QAE?AViterator@12@Vconst_iterator@12@@Z 10131760 f i CIVW.obj
 0002:00083150       ?clear@?$_Tree@V?$_Tmap_traits@PAX_NU?$less@PAX@std@@V?$allocator@U?$pair@QAX_N@std@@@2@$0A@@std@@@std@@QAEXXZ 10132150 f i CIVW.obj
 0002:000831d0       ?find@?$_Tree@V?$_Tmap_traits@PAX_NU?$less@PAX@std@@V?$allocator@U?$pair@QAX_N@std@@@2@$0A@@std@@@std@@QAE?AViterator@12@ABQAX@Z 101321d0 f i CIVW.obj
 0002:00083290       ??0?$map@PAXIU?$less@PAX@std@@V?$allocator@U?$pair@QAXI@std@@@2@@std@@QAE@XZ 10132290 f i CIVW.obj
 0002:000832d0       ??A?$map@PAXIU?$less@PAX@std@@V?$allocator@U?$pair@QAXI@std@@@2@@std@@QAEAAIABQAX@Z 101322d0 f i CIVW.obj
 0002:000833c0       ??1?$_Tree@V?$_Tmap_traits@PAXIU?$less@PAX@std@@V?$allocator@U?$pair@QAXI@std@@@2@$0A@@std@@@std@@QAE@XZ 101323c0 f i CIVW.obj
 0002:00083440       ?end@?$_Tree@V?$_Tmap_traits@PAXIU?$less@PAX@std@@V?$allocator@U?$pair@QAXI@std@@@2@$0A@@std@@@std@@QAE?AViterator@12@XZ 10132440 f i CIVW.obj
 0002:00083480       ?size@?$_Tree@V?$_Tmap_traits@PAXIU?$less@PAX@std@@V?$allocator@U?$pair@QAXI@std@@@2@$0A@@std@@@std@@QBEIXZ 10132480 f i CIVW.obj
 0002:000834a0       ?erase@?$_Tree@V?$_Tmap_traits@PAXIU?$less@PAX@std@@V?$allocator@U?$pair@QAXI@std@@@2@$0A@@std@@@std@@QAE?AViterator@12@Vconst_iterator@12@@Z 101324a0 f i CIVW.obj
 0002:00083e90       ?find@?$_Tree@V?$_Tmap_traits@PAXIU?$less@PAX@std@@V?$allocator@U?$pair@QAXI@std@@@2@$0A@@std@@@std@@QAE?AViterator@12@ABQAX@Z 10132e90 f i CIVW.obj
 0002:00083f50       ??0?$queue@UMvwResultMsg@VA@@V?$deque@UMvwResultMsg@VA@@V?$allocator@UMvwResultMsg@VA@@@std@@@std@@@std@@QAE@XZ 10132f50 f i CIVW.obj
 0002:00083f80       ?empty@?$queue@UMvwResultMsg@VA@@V?$deque@UMvwResultMsg@VA@@V?$allocator@UMvwResultMsg@VA@@@std@@@std@@@std@@QBE_NXZ 10132f80 f i CIVW.obj
 0002:00083fb0       ?front@?$queue@UMvwResultMsg@VA@@V?$deque@UMvwResultMsg@VA@@V?$allocator@UMvwResultMsg@VA@@@std@@@std@@@std@@QAEAAUMvwResultMsg@VA@@XZ 10132fb0 f i CIVW.obj
 0002:00083fe0       ?push@?$queue@UMvwResultMsg@VA@@V?$deque@UMvwResultMsg@VA@@V?$allocator@UMvwResultMsg@VA@@@std@@@std@@@std@@QAEXABUMvwResultMsg@VA@@@Z 10132fe0 f i CIVW.obj
 0002:00084010       ?pop@?$queue@UMvwResultMsg@VA@@V?$deque@UMvwResultMsg@VA@@V?$allocator@UMvwResultMsg@VA@@@std@@@std@@@std@@QAEXXZ 10133010 f i CIVW.obj
 0002:00084040       ??1?$deque@UMvwResultMsg@VA@@V?$allocator@UMvwResultMsg@VA@@@std@@@std@@QAE@XZ 10133040 f i CIVW.obj
 0002:000840c0       ??0?$vector@HV?$allocator@H@std@@@std@@QAE@XZ 101330c0 f i CIVW.obj
 0002:00084150       ??1?$vector@HV?$allocator@H@std@@@std@@QAE@XZ 10133150 f i CIVW.obj
 0002:000841d0       ?size@?$vector@HV?$allocator@H@std@@@std@@QBEIXZ 101331d0 f i CIVW.obj
 0002:00084200       ??A?$vector@HV?$allocator@H@std@@@std@@QAEAAHI@Z 10133200 f i CIVW.obj
 0002:00084250       ?push_back@?$vector@HV?$allocator@H@std@@@std@@QAEXABH@Z 10133250 f i CIVW.obj
 0002:000842f0       ?pop_back@?$vector@HV?$allocator@H@std@@@std@@QAEXXZ 101332f0 f i CIVW.obj
 0002:00084350       ??0?$vector@PADV?$allocator@PAD@std@@@std@@QAE@XZ 10133350 f i CIVW.obj
 0002:000843e0       ??1?$vector@PADV?$allocator@PAD@std@@@std@@QAE@XZ 101333e0 f i CIVW.obj
 0002:00084460       ?size@?$vector@PADV?$allocator@PAD@std@@@std@@QBEIXZ 10133460 f i CIVW.obj
 0002:00084490       ??A?$vector@PADV?$allocator@PAD@std@@@std@@QAEAAPADI@Z 10133490 f i CIVW.obj
 0002:000844e0       ?push_back@?$vector@PADV?$allocator@PAD@std@@@std@@QAEXABQAD@Z 101334e0 f i CIVW.obj
 0002:00084580       ??0?$vector@UtagKeyWordAndThreshold@VA@@V?$allocator@UtagKeyWordAndThreshold@VA@@@std@@@std@@QAE@XZ 10133580 f i CIVW.obj
 0002:00084610       ??1?$vector@UtagKeyWordAndThreshold@VA@@V?$allocator@UtagKeyWordAndThreshold@VA@@@std@@@std@@QAE@XZ 10133610 f i CIVW.obj
 0002:00084690       ?size@?$vector@UtagKeyWordAndThreshold@VA@@V?$allocator@UtagKeyWordAndThreshold@VA@@@std@@@std@@QBEIXZ 10133690 f i CIVW.obj
 0002:000846c0       ??A?$vector@UtagKeyWordAndThreshold@VA@@V?$allocator@UtagKeyWordAndThreshold@VA@@@std@@@std@@QAEAAUtagKeyWordAndThreshold@VA@@I@Z 101336c0 f i CIVW.obj
 0002:00084710       ?push_back@?$vector@UtagKeyWordAndThreshold@VA@@V?$allocator@UtagKeyWordAndThreshold@VA@@@std@@@std@@QAEXABUtagKeyWordAndThreshold@VA@@@Z 10133710 f i CIVW.obj
 0002:000847b0       ?clear@?$vector@UtagKeyWordAndThreshold@VA@@V?$allocator@UtagKeyWordAndThreshold@VA@@@std@@@std@@QAEXXZ 101337b0 f i CIVW.obj
 0002:00084830       ??0iterator@?$_Tree@V?$_Tmap_traits@PAX_NU?$less@PAX@std@@V?$allocator@U?$pair@QAX_N@std@@@2@$0A@@std@@@std@@QAE@XZ 10133830 f i CIVW.obj
 0002:00084860       ??Citerator@?$_Tree@V?$_Tmap_traits@PAX_NU?$less@PAX@std@@V?$allocator@U?$pair@QAX_N@std@@@2@$0A@@std@@@std@@QBEPAU?$pair@QAX_N@2@XZ 10133860 f i CIVW.obj
 0002:00084890       ??Eiterator@?$_Tree@V?$_Tmap_traits@PAX_NU?$less@PAX@std@@V?$allocator@U?$pair@QAX_N@std@@@2@$0A@@std@@@std@@QAE?AV012@H@Z 10133890 f i CIVW.obj
 0002:000848e0       ??8const_iterator@?$_Tree@V?$_Tmap_traits@PAX_NU?$less@PAX@std@@V?$allocator@U?$pair@QAX_N@std@@@2@$0A@@std@@@std@@QBE_NABV012@@Z 101338e0 f i CIVW.obj
 0002:00084950       ??9const_iterator@?$_Tree@V?$_Tmap_traits@PAX_NU?$less@PAX@std@@V?$allocator@U?$pair@QAX_N@std@@@2@$0A@@std@@@std@@QBE_NABV012@@Z 10133950 f i CIVW.obj
 0002:00084990       ??0iterator@?$_Tree@V?$_Tmap_traits@PAXIU?$less@PAX@std@@V?$allocator@U?$pair@QAXI@std@@@2@$0A@@std@@@std@@QAE@XZ 10133990 f i CIVW.obj
 0002:000849c0       ??Citerator@?$_Tree@V?$_Tmap_traits@PAXIU?$less@PAX@std@@V?$allocator@U?$pair@QAXI@std@@@2@$0A@@std@@@std@@QBEPAU?$pair@QAXI@2@XZ 101339c0 f i CIVW.obj
 0002:000849f0       ??8const_iterator@?$_Tree@V?$_Tmap_traits@PAXIU?$less@PAX@std@@V?$allocator@U?$pair@QAXI@std@@@2@$0A@@std@@@std@@QBE_NABV012@@Z 101339f0 f i CIVW.obj
 0002:00084a60       ??9const_iterator@?$_Tree@V?$_Tmap_traits@PAXIU?$less@PAX@std@@V?$allocator@U?$pair@QAXI@std@@@2@$0A@@std@@@std@@QBE_NABV012@@Z 10133a60 f i CIVW.obj
 0002:00084aa0       ??0iterator@?$_Tree@V?$_Tmap_traits@HUtagMulObjScene@VA@@U?$less@H@std@@V?$allocator@U?$pair@$$CBHUtagMulObjScene@VA@@@std@@@4@$0A@@std@@@std@@QAE@XZ 10133aa0 f i CIVW.obj
 0002:00084ad0       ??Citerator@?$_Tree@V?$_Tmap_traits@HUtagMulObjScene@VA@@U?$less@H@std@@V?$allocator@U?$pair@$$CBHUtagMulObjScene@VA@@@std@@@4@$0A@@std@@@std@@QBEPAU?$pair@$$CBHUtagMulObjScene@VA@@@2@XZ 10133ad0 f i CIVW.obj
 0002:00084b00       ??Eiterator@?$_Tree@V?$_Tmap_traits@HUtagMulObjScene@VA@@U?$less@H@std@@V?$allocator@U?$pair@$$CBHUtagMulObjScene@VA@@@std@@@4@$0A@@std@@@std@@QAEAAV012@XZ 10133b00 f i CIVW.obj
 0002:00084b30       ??Eiterator@?$_Tree@V?$_Tmap_traits@HUtagMulObjScene@VA@@U?$less@H@std@@V?$allocator@U?$pair@$$CBHUtagMulObjScene@VA@@@std@@@4@$0A@@std@@@std@@QAE?AV012@H@Z 10133b30 f i CIVW.obj
 0002:00084b80       ??8const_iterator@?$_Tree@V?$_Tmap_traits@HUtagMulObjScene@VA@@U?$less@H@std@@V?$allocator@U?$pair@$$CBHUtagMulObjScene@VA@@@std@@@4@$0A@@std@@@std@@QBE_NABV012@@Z 10133b80 f i CIVW.obj
 0002:00084bf0       ??9const_iterator@?$_Tree@V?$_Tmap_traits@HUtagMulObjScene@VA@@U?$less@H@std@@V?$allocator@U?$pair@$$CBHUtagMulObjScene@VA@@@std@@@4@$0A@@std@@@std@@QBE_NABV012@@Z 10133bf0 f i CIVW.obj
 0002:00084c30       ??1?$_Tree_val@V?$_Tmap_traits@HUtagMulObjScene@VA@@U?$less@H@std@@V?$allocator@U?$pair@$$CBHUtagMulObjScene@VA@@@std@@@4@$0A@@std@@@std@@QAE@XZ 10133c30 f i CIVW.obj
 0002:00084c60       ??1?$_Tree_val@V?$_Tmap_traits@PAX_NU?$less@PAX@std@@V?$allocator@U?$pair@QAX_N@std@@@2@$0A@@std@@@std@@QAE@XZ 10133c60 f i CIVW.obj
 0002:00084c90       ??1?$_Tree_val@V?$_Tmap_traits@PAXIU?$less@PAX@std@@V?$allocator@U?$pair@QAXI@std@@@2@$0A@@std@@@std@@QAE@XZ 10133c90 f i CIVW.obj
 0002:00084cc0       ??1?$_Deque_val@UMvwResultMsg@VA@@V?$allocator@UMvwResultMsg@VA@@@std@@@std@@QAE@XZ 10133cc0 f i CIVW.obj
 0002:00084cf0       ??1?$_Vector_val@HV?$allocator@H@std@@@std@@QAE@XZ 10133cf0 f i CIVW.obj
 0002:00084d20       ??1?$_Vector_val@PADV?$allocator@PAD@std@@@std@@QAE@XZ 10133d20 f i CIVW.obj
 0002:00084d50       ??1?$_Vector_val@UtagKeyWordAndThreshold@VA@@V?$allocator@UtagKeyWordAndThreshold@VA@@@std@@@std@@QAE@XZ 10133d50 f i CIVW.obj
 0002:00084d80       ??1?$_Tree_ptr@V?$_Tmap_traits@HUtagMulObjScene@VA@@U?$less@H@std@@V?$allocator@U?$pair@$$CBHUtagMulObjScene@VA@@@std@@@4@$0A@@std@@@std@@QAE@XZ 10133d80 f i CIVW.obj
 0002:00084db0       ??1?$_Tree_ptr@V?$_Tmap_traits@PAX_NU?$less@PAX@std@@V?$allocator@U?$pair@QAX_N@std@@@2@$0A@@std@@@std@@QAE@XZ 10133db0 f i CIVW.obj
 0002:00084de0       ??1?$_Tree_ptr@V?$_Tmap_traits@PAXIU?$less@PAX@std@@V?$allocator@U?$pair@QAXI@std@@@2@$0A@@std@@@std@@QAE@XZ 10133de0 f i CIVW.obj
 0002:00084e10       ??1?$_Deque_map@UMvwResultMsg@VA@@V?$allocator@UMvwResultMsg@VA@@@std@@@std@@QAE@XZ 10133e10 f i CIVW.obj
 0002:00084e40       ??1?$_Tree_nod@V?$_Tmap_traits@HUtagMulObjScene@VA@@U?$less@H@std@@V?$allocator@U?$pair@$$CBHUtagMulObjScene@VA@@@std@@@4@$0A@@std@@@std@@QAE@XZ 10133e40 f i CIVW.obj
 0002:00084e70       ??1?$_Tree_nod@V?$_Tmap_traits@PAX_NU?$less@PAX@std@@V?$allocator@U?$pair@QAX_N@std@@@2@$0A@@std@@@std@@QAE@XZ 10133e70 f i CIVW.obj
 0002:00084ea0       ??1?$_Tree_nod@V?$_Tmap_traits@PAXIU?$less@PAX@std@@V?$allocator@U?$pair@QAXI@std@@@2@$0A@@std@@@std@@QAE@XZ 10133ea0 f i CIVW.obj
 0002:00084ed0       ??1?$_Tmap_traits@HUtagMulObjScene@VA@@U?$less@H@std@@V?$allocator@U?$pair@$$CBHUtagMulObjScene@VA@@@std@@@4@$0A@@std@@QAE@XZ 10133ed0 f i CIVW.obj
 0002:00084f00       ??1?$_Tmap_traits@PAX_NU?$less@PAX@std@@V?$allocator@U?$pair@QAX_N@std@@@2@$0A@@std@@QAE@XZ 10133f00 f i CIVW.obj
 0002:00084f30       ??1?$_Tmap_traits@PAXIU?$less@PAX@std@@V?$allocator@U?$pair@QAXI@std@@@2@$0A@@std@@QAE@XZ 10133f30 f i CIVW.obj
 0002:00084f60       ??0?$allocator@H@std@@QAE@XZ 10133f60 f i CIVW.obj
 0002:00084f80       ?_Key@?$_Tree@V?$_Tmap_traits@HUtagMulObjScene@VA@@U?$less@H@std@@V?$allocator@U?$pair@$$CBHUtagMulObjScene@VA@@@std@@@4@$0A@@std@@@std@@KAABHPAU_Node@?$_Tree_nod@V?$_Tmap_traits@HUtagMulObjScene@VA@@U?$less@H@std@@V?$allocator@U?$pair@$$CBHUtagMulObjScene@VA@@@std@@@4@$0A@@std@@@2@@Z 10133f80 f i CIVW.obj
 0002:00084fb0       ??0?$_Tree@V?$_Tmap_traits@HUtagMulObjScene@VA@@U?$less@H@std@@V?$allocator@U?$pair@$$CBHUtagMulObjScene@VA@@@std@@@4@$0A@@std@@@std@@QAE@ABU?$less@H@1@ABV?$allocator@U?$pair@$$CBHUtagMulObjScene@VA@@@std@@@1@@Z 10133fb0 f i CIVW.obj
 0002:00085040       ?insert@?$_Tree@V?$_Tmap_traits@HUtagMulObjScene@VA@@U?$less@H@std@@V?$allocator@U?$pair@$$CBHUtagMulObjScene@VA@@@std@@@4@$0A@@std@@@std@@QAE?AViterator@12@Vconst_iterator@12@ABU?$pair@$$CBHUtagMulObjScene@VA@@@2@@Z 10134040 f i CIVW.obj
 0002:00085800       ?erase@?$_Tree@V?$_Tmap_traits@HUtagMulObjScene@VA@@U?$less@H@std@@V?$allocator@U?$pair@$$CBHUtagMulObjScene@VA@@@std@@@4@$0A@@std@@@std@@QAE?AViterator@12@Vconst_iterator@12@0@Z 10134800 f i CIVW.obj
 0002:000858f0       ?lower_bound@?$_Tree@V?$_Tmap_traits@HUtagMulObjScene@VA@@U?$less@H@std@@V?$allocator@U?$pair@$$CBHUtagMulObjScene@VA@@@std@@@4@$0A@@std@@@std@@QAE?AViterator@12@ABH@Z 101348f0 f i CIVW.obj
 0002:00085930       ?_Copy@?$_Tree@V?$_Tmap_traits@HUtagMulObjScene@VA@@U?$less@H@std@@V?$allocator@U?$pair@$$CBHUtagMulObjScene@VA@@@std@@@4@$0A@@std@@@std@@IAEXABV12@@Z 10134930 f i CIVW.obj
 0002:00085a30       ?_Erase@?$_Tree@V?$_Tmap_traits@HUtagMulObjScene@VA@@U?$less@H@std@@V?$allocator@U?$pair@$$CBHUtagMulObjScene@VA@@@std@@@4@$0A@@std@@@std@@IAEXPAU_Node@?$_Tree_nod@V?$_Tmap_traits@HUtagMulObjScene@VA@@U?$less@H@std@@V?$allocator@U?$pair@$$CBHUtagMulObjScene@VA@@@std@@@4@$0A@@std@@@2@@Z 10134a30 f i CIVW.obj
 0002:00085ad0       ?_Lmost@?$_Tree@V?$_Tmap_traits@HUtagMulObjScene@VA@@U?$less@H@std@@V?$allocator@U?$pair@$$CBHUtagMulObjScene@VA@@@std@@@4@$0A@@std@@@std@@IBEAAPAU_Node@?$_Tree_nod@V?$_Tmap_traits@HUtagMulObjScene@VA@@U?$less@H@std@@V?$allocator@U?$pair@$$CBHUtagMulObjScene@VA@@@std@@@4@$0A@@std@@@2@XZ 10134ad0 f i CIVW.obj
 0002:00085b00       ?_Rmost@?$_Tree@V?$_Tmap_traits@HUtagMulObjScene@VA@@U?$less@H@std@@V?$allocator@U?$pair@$$CBHUtagMulObjScene@VA@@@std@@@4@$0A@@std@@@std@@IBEAAPAU_Node@?$_Tree_nod@V?$_Tmap_traits@HUtagMulObjScene@VA@@U?$less@H@std@@V?$allocator@U?$pair@$$CBHUtagMulObjScene@VA@@@std@@@4@$0A@@std@@@2@XZ 10134b00 f i CIVW.obj
 0002:00085b30       ?_Root@?$_Tree@V?$_Tmap_traits@HUtagMulObjScene@VA@@U?$less@H@std@@V?$allocator@U?$pair@$$CBHUtagMulObjScene@VA@@@std@@@4@$0A@@std@@@std@@IBEAAPAU_Node@?$_Tree_nod@V?$_Tmap_traits@HUtagMulObjScene@VA@@U?$less@H@std@@V?$allocator@U?$pair@$$CBHUtagMulObjScene@VA@@@std@@@4@$0A@@std@@@2@XZ 10134b30 f i CIVW.obj
 0002:00085b60       ?_Tidy@?$_Tree@V?$_Tmap_traits@HUtagMulObjScene@VA@@U?$less@H@std@@V?$allocator@U?$pair@$$CBHUtagMulObjScene@VA@@@std@@@4@$0A@@std@@@std@@IAEXXZ 10134b60 f i CIVW.obj
 0002:00085c70       ??1?$_Container_base_aux_alloc_real@V?$allocator@U?$pair@$$CBHUtagMulObjScene@VA@@@std@@@std@@@std@@IAE@XZ 10134c70 f i CIVW.obj
 0002:00085cf0       ??0?$allocator@U?$pair@$$CBHUtagMulObjScene@VA@@@std@@@std@@QAE@XZ 10134cf0 f i CIVW.obj
 0002:00085d10       ?_Color@?$_Tree@V?$_Tmap_traits@PAX_NU?$less@PAX@std@@V?$allocator@U?$pair@QAX_N@std@@@2@$0A@@std@@@std@@KAAADPAU_Node@?$_Tree_nod@V?$_Tmap_traits@PAX_NU?$less@PAX@std@@V?$allocator@U?$pair@QAX_N@std@@@2@$0A@@std@@@2@@Z 10134d10 f i CIVW.obj
 0002:00085d30       ?_Isnil@?$_Tree@V?$_Tmap_traits@PAX_NU?$less@PAX@std@@V?$allocator@U?$pair@QAX_N@std@@@2@$0A@@std@@@std@@KAAADPAU_Node@?$_Tree_nod@V?$_Tmap_traits@PAX_NU?$less@PAX@std@@V?$allocator@U?$pair@QAX_N@std@@@2@$0A@@std@@@2@@Z 10134d30 f i CIVW.obj
 0002:00085d50       ?_Key@?$_Tree@V?$_Tmap_traits@PAX_NU?$less@PAX@std@@V?$allocator@U?$pair@QAX_N@std@@@2@$0A@@std@@@std@@KAABQAXPAU_Node@?$_Tree_nod@V?$_Tmap_traits@PAX_NU?$less@PAX@std@@V?$allocator@U?$pair@QAX_N@std@@@2@$0A@@std@@@2@@Z 10134d50 f i CIVW.obj
 0002:00085d80       ?_Left@?$_Tree@V?$_Tmap_traits@PAX_NU?$less@PAX@std@@V?$allocator@U?$pair@QAX_N@std@@@2@$0A@@std@@@std@@KAAAPAU_Node@?$_Tree_nod@V?$_Tmap_traits@PAX_NU?$less@PAX@std@@V?$allocator@U?$pair@QAX_N@std@@@2@$0A@@std@@@2@PAU342@@Z 10134d80 f i CIVW.obj
 0002:00085da0       ?_Parent@?$_Tree@V?$_Tmap_traits@PAX_NU?$less@PAX@std@@V?$allocator@U?$pair@QAX_N@std@@@2@$0A@@std@@@std@@KAAAPAU_Node@?$_Tree_nod@V?$_Tmap_traits@PAX_NU?$less@PAX@std@@V?$allocator@U?$pair@QAX_N@std@@@2@$0A@@std@@@2@PAU342@@Z 10134da0 f i CIVW.obj
 0002:00085dc0       ?_Right@?$_Tree@V?$_Tmap_traits@PAX_NU?$less@PAX@std@@V?$allocator@U?$pair@QAX_N@std@@@2@$0A@@std@@@std@@KAAAPAU_Node@?$_Tree_nod@V?$_Tmap_traits@PAX_NU?$less@PAX@std@@V?$allocator@U?$pair@QAX_N@std@@@2@$0A@@std@@@2@PAU342@@Z 10134dc0 f i CIVW.obj
 0002:00085de0       ??0?$_Tree@V?$_Tmap_traits@PAX_NU?$less@PAX@std@@V?$allocator@U?$pair@QAX_N@std@@@2@$0A@@std@@@std@@QAE@ABU?$less@PAX@1@ABV?$allocator@U?$pair@QAX_N@std@@@1@@Z 10134de0 f i CIVW.obj
 0002:00085e70       ?_Make_iter@?$_Tree@V?$_Tmap_traits@PAX_NU?$less@PAX@std@@V?$allocator@U?$pair@QAX_N@std@@@2@$0A@@std@@@std@@QBE?AViterator@12@Vconst_iterator@12@@Z 10134e70 f i CIVW.obj
 0002:00085ec0       ?insert@?$_Tree@V?$_Tmap_traits@PAX_NU?$less@PAX@std@@V?$allocator@U?$pair@QAX_N@std@@@2@$0A@@std@@@std@@QAE?AViterator@12@Vconst_iterator@12@ABU?$pair@QAX_N@2@@Z 10134ec0 f i CIVW.obj
 0002:00086680       ?erase@?$_Tree@V?$_Tmap_traits@PAX_NU?$less@PAX@std@@V?$allocator@U?$pair@QAX_N@std@@@2@$0A@@std@@@std@@QAE?AViterator@12@Vconst_iterator@12@0@Z 10135680 f i CIVW.obj
 0002:00086770       ?lower_bound@?$_Tree@V?$_Tmap_traits@PAX_NU?$less@PAX@std@@V?$allocator@U?$pair@QAX_N@std@@@2@$0A@@std@@@std@@QAE?AViterator@12@ABQAX@Z 10135770 f i CIVW.obj
 0002:000867b0       ?_Copy@?$_Tree@V?$_Tmap_traits@PAX_NU?$less@PAX@std@@V?$allocator@U?$pair@QAX_N@std@@@2@$0A@@std@@@std@@IAEXABV12@@Z 101357b0 f i CIVW.obj
 0002:000868b0       ?_Erase@?$_Tree@V?$_Tmap_traits@PAX_NU?$less@PAX@std@@V?$allocator@U?$pair@QAX_N@std@@@2@$0A@@std@@@std@@IAEXPAU_Node@?$_Tree_nod@V?$_Tmap_traits@PAX_NU?$less@PAX@std@@V?$allocator@U?$pair@QAX_N@std@@@2@$0A@@std@@@2@@Z 101358b0 f i CIVW.obj
 0002:00086950       ?_Lmost@?$_Tree@V?$_Tmap_traits@PAX_NU?$less@PAX@std@@V?$allocator@U?$pair@QAX_N@std@@@2@$0A@@std@@@std@@IBEAAPAU_Node@?$_Tree_nod@V?$_Tmap_traits@PAX_NU?$less@PAX@std@@V?$allocator@U?$pair@QAX_N@std@@@2@$0A@@std@@@2@XZ 10135950 f i CIVW.obj
 0002:00086980       ?_Lrotate@?$_Tree@V?$_Tmap_traits@PAX_NU?$less@PAX@std@@V?$allocator@U?$pair@QAX_N@std@@@2@$0A@@std@@@std@@IAEXPAU_Node@?$_Tree_nod@V?$_Tmap_traits@PAX_NU?$less@PAX@std@@V?$allocator@U?$pair@QAX_N@std@@@2@$0A@@std@@@2@@Z 10135980 f i CIVW.obj
 0002:00086b10       ?_Max@?$_Tree@V?$_Tmap_traits@PAX_NU?$less@PAX@std@@V?$allocator@U?$pair@QAX_N@std@@@2@$0A@@std@@@std@@KAPAU_Node@?$_Tree_nod@V?$_Tmap_traits@PAX_NU?$less@PAX@std@@V?$allocator@U?$pair@QAX_N@std@@@2@$0A@@std@@@2@PAU342@@Z 10135b10 f i CIVW.obj
 0002:00086b70       ?_Min@?$_Tree@V?$_Tmap_traits@PAX_NU?$less@PAX@std@@V?$allocator@U?$pair@QAX_N@std@@@2@$0A@@std@@@std@@KAPAU_Node@?$_Tree_nod@V?$_Tmap_traits@PAX_NU?$less@PAX@std@@V?$allocator@U?$pair@QAX_N@std@@@2@$0A@@std@@@2@PAU342@@Z 10135b70 f i CIVW.obj
 0002:00086bd0       ?_Rmost@?$_Tree@V?$_Tmap_traits@PAX_NU?$less@PAX@std@@V?$allocator@U?$pair@QAX_N@std@@@2@$0A@@std@@@std@@IBEAAPAU_Node@?$_Tree_nod@V?$_Tmap_traits@PAX_NU?$less@PAX@std@@V?$allocator@U?$pair@QAX_N@std@@@2@$0A@@std@@@2@XZ 10135bd0 f i CIVW.obj
 0002:00086c00       ?_Root@?$_Tree@V?$_Tmap_traits@PAX_NU?$less@PAX@std@@V?$allocator@U?$pair@QAX_N@std@@@2@$0A@@std@@@std@@IBEAAPAU_Node@?$_Tree_nod@V?$_Tmap_traits@PAX_NU?$less@PAX@std@@V?$allocator@U?$pair@QAX_N@std@@@2@$0A@@std@@@2@XZ 10135c00 f i CIVW.obj
 0002:00086c30       ?_Rrotate@?$_Tree@V?$_Tmap_traits@PAX_NU?$less@PAX@std@@V?$allocator@U?$pair@QAX_N@std@@@2@$0A@@std@@@std@@IAEXPAU_Node@?$_Tree_nod@V?$_Tmap_traits@PAX_NU?$less@PAX@std@@V?$allocator@U?$pair@QAX_N@std@@@2@$0A@@std@@@2@@Z 10135c30 f i CIVW.obj
 0002:00086dc0       ?_Tidy@?$_Tree@V?$_Tmap_traits@PAX_NU?$less@PAX@std@@V?$allocator@U?$pair@QAX_N@std@@@2@$0A@@std@@@std@@IAEXXZ 10135dc0 f i CIVW.obj
 0002:00086ed0       ??1?$_Container_base_aux_alloc_real@V?$allocator@U?$pair@QAX_N@std@@@std@@@std@@IAE@XZ 10135ed0 f i CIVW.obj
 0002:00086f50       ??0?$allocator@U?$pair@QAX_N@std@@@std@@QAE@XZ 10135f50 f i CIVW.obj
 0002:00086f70       ??R?$less@PAX@std@@QBE_NABQAX0@Z 10135f70 f i CIVW.obj
 0002:00086fa0       ?deallocate@?$allocator@U_Node@?$_Tree_nod@V?$_Tmap_traits@PAX_NU?$less@PAX@std@@V?$allocator@U?$pair@QAX_N@std@@@2@$0A@@std@@@std@@@std@@QAEXPAU_Node@?$_Tree_nod@V?$_Tmap_traits@PAX_NU?$less@PAX@std@@V?$allocator@U?$pair@QAX_N@std@@@2@$0A@@std@@@2@I@Z 10135fa0 f i CIVW.obj
 0002:00086fd0       ?destroy@?$allocator@U_Node@?$_Tree_nod@V?$_Tmap_traits@PAX_NU?$less@PAX@std@@V?$allocator@U?$pair@QAX_N@std@@@2@$0A@@std@@@std@@@std@@QAEXPAU_Node@?$_Tree_nod@V?$_Tmap_traits@PAX_NU?$less@PAX@std@@V?$allocator@U?$pair@QAX_N@std@@@2@$0A@@std@@@2@@Z 10135fd0 f i CIVW.obj
 0002:00087000       ?_Color@?$_Tree@V?$_Tmap_traits@PAXIU?$less@PAX@std@@V?$allocator@U?$pair@QAXI@std@@@2@$0A@@std@@@std@@KAAADPAU_Node@?$_Tree_nod@V?$_Tmap_traits@PAXIU?$less@PAX@std@@V?$allocator@U?$pair@QAXI@std@@@2@$0A@@std@@@2@@Z 10136000 f i CIVW.obj
 0002:00087020       ?_Isnil@?$_Tree@V?$_Tmap_traits@PAXIU?$less@PAX@std@@V?$allocator@U?$pair@QAXI@std@@@2@$0A@@std@@@std@@KAAADPAU_Node@?$_Tree_nod@V?$_Tmap_traits@PAXIU?$less@PAX@std@@V?$allocator@U?$pair@QAXI@std@@@2@$0A@@std@@@2@@Z 10136020 f i CIVW.obj
 0002:00087040       ?_Key@?$_Tree@V?$_Tmap_traits@PAXIU?$less@PAX@std@@V?$allocator@U?$pair@QAXI@std@@@2@$0A@@std@@@std@@KAABQAXPAU_Node@?$_Tree_nod@V?$_Tmap_traits@PAXIU?$less@PAX@std@@V?$allocator@U?$pair@QAXI@std@@@2@$0A@@std@@@2@@Z 10136040 f i CIVW.obj
 0002:00087070       ?_Left@?$_Tree@V?$_Tmap_traits@PAXIU?$less@PAX@std@@V?$allocator@U?$pair@QAXI@std@@@2@$0A@@std@@@std@@KAAAPAU_Node@?$_Tree_nod@V?$_Tmap_traits@PAXIU?$less@PAX@std@@V?$allocator@U?$pair@QAXI@std@@@2@$0A@@std@@@2@PAU342@@Z 10136070 f i CIVW.obj
 0002:00087090       ?_Parent@?$_Tree@V?$_Tmap_traits@PAXIU?$less@PAX@std@@V?$allocator@U?$pair@QAXI@std@@@2@$0A@@std@@@std@@KAAAPAU_Node@?$_Tree_nod@V?$_Tmap_traits@PAXIU?$less@PAX@std@@V?$allocator@U?$pair@QAXI@std@@@2@$0A@@std@@@2@PAU342@@Z 10136090 f i CIVW.obj
 0002:000870b0       ?_Right@?$_Tree@V?$_Tmap_traits@PAXIU?$less@PAX@std@@V?$allocator@U?$pair@QAXI@std@@@2@$0A@@std@@@std@@KAAAPAU_Node@?$_Tree_nod@V?$_Tmap_traits@PAXIU?$less@PAX@std@@V?$allocator@U?$pair@QAXI@std@@@2@$0A@@std@@@2@PAU342@@Z 101360b0 f i CIVW.obj
 0002:000870d0       ??0?$_Tree@V?$_Tmap_traits@PAXIU?$less@PAX@std@@V?$allocator@U?$pair@QAXI@std@@@2@$0A@@std@@@std@@QAE@ABU?$less@PAX@1@ABV?$allocator@U?$pair@QAXI@std@@@1@@Z 101360d0 f i CIVW.obj
 0002:00087160       ?_Make_iter@?$_Tree@V?$_Tmap_traits@PAXIU?$less@PAX@std@@V?$allocator@U?$pair@QAXI@std@@@2@$0A@@std@@@std@@QBE?AViterator@12@Vconst_iterator@12@@Z 10136160 f i CIVW.obj
 0002:000871b0       ?insert@?$_Tree@V?$_Tmap_traits@PAXIU?$less@PAX@std@@V?$allocator@U?$pair@QAXI@std@@@2@$0A@@std@@@std@@QAE?AViterator@12@Vconst_iterator@12@ABU?$pair@QAXI@2@@Z 101361b0 f i CIVW.obj
 0002:00087970       ?lower_bound@?$_Tree@V?$_Tmap_traits@PAXIU?$less@PAX@std@@V?$allocator@U?$pair@QAXI@std@@@2@$0A@@std@@@std@@QAE?AViterator@12@ABQAX@Z 10136970 f i CIVW.obj
 0002:000879b0       ?_Lmost@?$_Tree@V?$_Tmap_traits@PAXIU?$less@PAX@std@@V?$allocator@U?$pair@QAXI@std@@@2@$0A@@std@@@std@@IBEAAPAU_Node@?$_Tree_nod@V?$_Tmap_traits@PAXIU?$less@PAX@std@@V?$allocator@U?$pair@QAXI@std@@@2@$0A@@std@@@2@XZ 101369b0 f i CIVW.obj
 0002:000879e0       ?_Lrotate@?$_Tree@V?$_Tmap_traits@PAXIU?$less@PAX@std@@V?$allocator@U?$pair@QAXI@std@@@2@$0A@@std@@@std@@IAEXPAU_Node@?$_Tree_nod@V?$_Tmap_traits@PAXIU?$less@PAX@std@@V?$allocator@U?$pair@QAXI@std@@@2@$0A@@std@@@2@@Z 101369e0 f i CIVW.obj
 0002:00087b70       ?_Max@?$_Tree@V?$_Tmap_traits@PAXIU?$less@PAX@std@@V?$allocator@U?$pair@QAXI@std@@@2@$0A@@std@@@std@@KAPAU_Node@?$_Tree_nod@V?$_Tmap_traits@PAXIU?$less@PAX@std@@V?$allocator@U?$pair@QAXI@std@@@2@$0A@@std@@@2@PAU342@@Z 10136b70 f i CIVW.obj
 0002:00087bd0       ?_Min@?$_Tree@V?$_Tmap_traits@PAXIU?$less@PAX@std@@V?$allocator@U?$pair@QAXI@std@@@2@$0A@@std@@@std@@KAPAU_Node@?$_Tree_nod@V?$_Tmap_traits@PAXIU?$less@PAX@std@@V?$allocator@U?$pair@QAXI@std@@@2@$0A@@std@@@2@PAU342@@Z 10136bd0 f i CIVW.obj
 0002:00087c30       ?_Rmost@?$_Tree@V?$_Tmap_traits@PAXIU?$less@PAX@std@@V?$allocator@U?$pair@QAXI@std@@@2@$0A@@std@@@std@@IBEAAPAU_Node@?$_Tree_nod@V?$_Tmap_traits@PAXIU?$less@PAX@std@@V?$allocator@U?$pair@QAXI@std@@@2@$0A@@std@@@2@XZ 10136c30 f i CIVW.obj
 0002:00087c60       ?_Root@?$_Tree@V?$_Tmap_traits@PAXIU?$less@PAX@std@@V?$allocator@U?$pair@QAXI@std@@@2@$0A@@std@@@std@@IBEAAPAU_Node@?$_Tree_nod@V?$_Tmap_traits@PAXIU?$less@PAX@std@@V?$allocator@U?$pair@QAXI@std@@@2@$0A@@std@@@2@XZ 10136c60 f i CIVW.obj
 0002:00087c90       ?_Rrotate@?$_Tree@V?$_Tmap_traits@PAXIU?$less@PAX@std@@V?$allocator@U?$pair@QAXI@std@@@2@$0A@@std@@@std@@IAEXPAU_Node@?$_Tree_nod@V?$_Tmap_traits@PAXIU?$less@PAX@std@@V?$allocator@U?$pair@QAXI@std@@@2@$0A@@std@@@2@@Z 10136c90 f i CIVW.obj
 0002:00087e20       ?_Tidy@?$_Tree@V?$_Tmap_traits@PAXIU?$less@PAX@std@@V?$allocator@U?$pair@QAXI@std@@@2@$0A@@std@@@std@@IAEXXZ 10136e20 f i CIVW.obj
 0002:00087f30       ??1?$_Container_base_aux_alloc_real@V?$allocator@U?$pair@QAXI@std@@@std@@@std@@IAE@XZ 10136f30 f i CIVW.obj
 0002:00087fb0       ??0?$allocator@U?$pair@QAXI@std@@@std@@QAE@XZ 10136fb0 f i CIVW.obj
 0002:00087fd0       ?deallocate@?$allocator@U_Node@?$_Tree_nod@V?$_Tmap_traits@PAXIU?$less@PAX@std@@V?$allocator@U?$pair@QAXI@std@@@2@$0A@@std@@@std@@@std@@QAEXPAU_Node@?$_Tree_nod@V?$_Tmap_traits@PAXIU?$less@PAX@std@@V?$allocator@U?$pair@QAXI@std@@@2@$0A@@std@@@2@I@Z 10136fd0 f i CIVW.obj
 0002:00088000       ?destroy@?$allocator@U_Node@?$_Tree_nod@V?$_Tmap_traits@PAXIU?$less@PAX@std@@V?$allocator@U?$pair@QAXI@std@@@2@$0A@@std@@@std@@@std@@QAEXPAU_Node@?$_Tree_nod@V?$_Tmap_traits@PAXIU?$less@PAX@std@@V?$allocator@U?$pair@QAXI@std@@@2@$0A@@std@@@2@@Z 10137000 f i CIVW.obj
 0002:00088030       ??0?$deque@UMvwResultMsg@VA@@V?$allocator@UMvwResultMsg@VA@@@std@@@std@@QAE@XZ 10137030 f i CIVW.obj
 0002:000880a0       ?empty@?$deque@UMvwResultMsg@VA@@V?$allocator@UMvwResultMsg@VA@@@std@@@std@@QBE_NXZ 101370a0 f i CIVW.obj
 0002:000880d0       ?front@?$deque@UMvwResultMsg@VA@@V?$allocator@UMvwResultMsg@VA@@@std@@@std@@QAEAAUMvwResultMsg@VA@@XZ 101370d0 f i CIVW.obj
 0002:00088100       ?pop_front@?$deque@UMvwResultMsg@VA@@V?$allocator@UMvwResultMsg@VA@@@std@@@std@@QAEXXZ 10137100 f i CIVW.obj
 0002:000881d0       ?push_back@?$deque@UMvwResultMsg@VA@@V?$allocator@UMvwResultMsg@VA@@@std@@@std@@QAEXABUMvwResultMsg@VA@@@Z 101371d0 f i CIVW.obj
 0002:000882e0       ?_Tidy@?$deque@UMvwResultMsg@VA@@V?$allocator@UMvwResultMsg@VA@@@std@@@std@@IAEXXZ 101372e0 f i CIVW.obj
 0002:000883d0       ??1?$_Container_base_aux_alloc_real@V?$allocator@UMvwResultMsg@VA@@@std@@@std@@IAE@XZ 101373d0 f i CIVW.obj
 0002:00088450       ?capacity@?$vector@HV?$allocator@H@std@@@std@@QBEIXZ 10137450 f i CIVW.obj
 0002:000884a0       ?end@?$vector@HV?$allocator@H@std@@@std@@QAE?AV?$_Vector_iterator@HV?$allocator@H@std@@@2@XZ 101374a0 f i CIVW.obj
 0002:000884e0       ?empty@?$vector@HV?$allocator@H@std@@@std@@QBE_NXZ 101374e0 f i CIVW.obj
 0002:00088510       ?insert@?$vector@HV?$allocator@H@std@@@std@@QAE?AV?$_Vector_iterator@HV?$allocator@H@std@@@2@V?$_Vector_const_iterator@HV?$allocator@H@std@@@2@ABH@Z 10137510 f i CIVW.obj
 0002:000885b0       ?_Buy@?$vector@HV?$allocator@H@std@@@std@@IAE_NI@Z 101375b0 f i CIVW.obj
 0002:00088660       ?_Destroy@?$vector@HV?$allocator@H@std@@@std@@IAEXPAH0@Z 10137660 f i CIVW.obj
 0002:000886a0       ?_Tidy@?$vector@HV?$allocator@H@std@@@std@@IAEXXZ 101376a0 f i CIVW.obj
 0002:00088730       ?_Ufill@?$vector@HV?$allocator@H@std@@@std@@IAEPAHPAHIABH@Z 10137730 f i CIVW.obj
 0002:00088780       ??0?$_Vector_val@HV?$allocator@H@std@@@std@@IAE@V?$allocator@H@1@@Z 10137780 f i CIVW.obj
 0002:000887d0       ??1?$_Container_base_aux_alloc_real@V?$allocator@H@std@@@std@@IAE@XZ 101377d0 f i CIVW.obj
 0002:00088850       ?capacity@?$vector@PADV?$allocator@PAD@std@@@std@@QBEIXZ 10137850 f i CIVW.obj
 0002:000888a0       ?end@?$vector@PADV?$allocator@PAD@std@@@std@@QAE?AV?$_Vector_iterator@PADV?$allocator@PAD@std@@@2@XZ 101378a0 f i CIVW.obj
 0002:000888e0       ?insert@?$vector@PADV?$allocator@PAD@std@@@std@@QAE?AV?$_Vector_iterator@PADV?$allocator@PAD@std@@@2@V?$_Vector_const_iterator@PADV?$allocator@PAD@std@@@2@ABQAD@Z 101378e0 f i CIVW.obj
 0002:00088980       ?_Buy@?$vector@PADV?$allocator@PAD@std@@@std@@IAE_NI@Z 10137980 f i CIVW.obj
 0002:00088a30       ?_Tidy@?$vector@PADV?$allocator@PAD@std@@@std@@IAEXXZ 10137a30 f i CIVW.obj
 0002:00088ac0       ?_Ufill@?$vector@PADV?$allocator@PAD@std@@@std@@IAEPAPADPAPADIABQAD@Z 10137ac0 f i CIVW.obj
 0002:00088b10       ??0?$_Vector_val@PADV?$allocator@PAD@std@@@std@@IAE@V?$allocator@PAD@1@@Z 10137b10 f i CIVW.obj
 0002:00088b60       ??1?$_Container_base_aux_alloc_real@V?$allocator@PAD@std@@@std@@IAE@XZ 10137b60 f i CIVW.obj
 0002:00088be0       ??0?$allocator@PAD@std@@QAE@XZ 10137be0 f i CIVW.obj
 0002:00088c00       ?capacity@?$vector@UtagKeyWordAndThreshold@VA@@V?$allocator@UtagKeyWordAndThreshold@VA@@@std@@@std@@QBEIXZ 10137c00 f i CIVW.obj
 0002:00088c50       ?begin@?$vector@UtagKeyWordAndThreshold@VA@@V?$allocator@UtagKeyWordAndThreshold@VA@@@std@@@std@@QAE?AV?$_Vector_iterator@UtagKeyWordAndThreshold@VA@@V?$allocator@UtagKeyWordAndThreshold@VA@@@std@@@2@XZ 10137c50 f i CIVW.obj
 0002:00088c90       ?end@?$vector@UtagKeyWordAndThreshold@VA@@V?$allocator@UtagKeyWordAndThreshold@VA@@@std@@@std@@QAE?AV?$_Vector_iterator@UtagKeyWordAndThreshold@VA@@V?$allocator@UtagKeyWordAndThreshold@VA@@@std@@@2@XZ 10137c90 f i CIVW.obj
 0002:00088cd0       ?insert@?$vector@UtagKeyWordAndThreshold@VA@@V?$allocator@UtagKeyWordAndThreshold@VA@@@std@@@std@@QAE?AV?$_Vector_iterator@UtagKeyWordAndThreshold@VA@@V?$allocator@UtagKeyWordAndThreshold@VA@@@std@@@2@V?$_Vector_const_iterator@UtagKeyWordAndThreshold@VA@@V?$allocator@UtagKeyWordAndThreshold@VA@@@std@@@2@ABUtagKeyWordAndThreshold@VA@@@Z 10137cd0 f i CIVW.obj
 0002:00088d70       ?erase@?$vector@UtagKeyWordAndThreshold@VA@@V?$allocator@UtagKeyWordAndThreshold@VA@@@std@@@std@@QAE?AV?$_Vector_iterator@UtagKeyWordAndThreshold@VA@@V?$allocator@UtagKeyWordAndThreshold@VA@@@std@@@2@V?$_Vector_const_iterator@UtagKeyWordAndThreshold@VA@@V?$allocator@UtagKeyWordAndThreshold@VA@@@std@@@2@0@Z 10137d70 f i CIVW.obj
 0002:00088e30       ?_Buy@?$vector@UtagKeyWordAndThreshold@VA@@V?$allocator@UtagKeyWordAndThreshold@VA@@@std@@@std@@IAE_NI@Z 10137e30 f i CIVW.obj
 0002:00088ee0       ?_Tidy@?$vector@UtagKeyWordAndThreshold@VA@@V?$allocator@UtagKeyWordAndThreshold@VA@@@std@@@std@@IAEXXZ 10137ee0 f i CIVW.obj
 0002:00088f70       ?_Ufill@?$vector@UtagKeyWordAndThreshold@VA@@V?$allocator@UtagKeyWordAndThreshold@VA@@@std@@@std@@IAEPAUtagKeyWordAndThreshold@VA@@PAU34@IABU34@@Z 10137f70 f i CIVW.obj
 0002:00088fc0       ??0?$_Vector_val@UtagKeyWordAndThreshold@VA@@V?$allocator@UtagKeyWordAndThreshold@VA@@@std@@@std@@IAE@V?$allocator@UtagKeyWordAndThreshold@VA@@@1@@Z 10137fc0 f i CIVW.obj
 0002:00089010       ??1?$_Container_base_aux_alloc_real@V?$allocator@UtagKeyWordAndThreshold@VA@@@std@@@std@@IAE@XZ 10138010 f i CIVW.obj
 0002:00089090       ??0?$allocator@UtagKeyWordAndThreshold@VA@@@std@@QAE@XZ 10138090 f i CIVW.obj
 0002:000890b0       ??0iterator@?$_Tree@V?$_Tmap_traits@PAX_NU?$less@PAX@std@@V?$allocator@U?$pair@QAX_N@std@@@2@$0A@@std@@@std@@QAE@PAU_Node@?$_Tree_nod@V?$_Tmap_traits@PAX_NU?$less@PAX@std@@V?$allocator@U?$pair@QAX_N@std@@@2@$0A@@std@@@2@PBV12@@Z 101380b0 f i CIVW.obj
 0002:000890f0       ??Diterator@?$_Tree@V?$_Tmap_traits@PAX_NU?$less@PAX@std@@V?$allocator@U?$pair@QAX_N@std@@@2@$0A@@std@@@std@@QBEAAU?$pair@QAX_N@2@XZ 101380f0 f i CIVW.obj
 0002:00089120       ??Eiterator@?$_Tree@V?$_Tmap_traits@PAX_NU?$less@PAX@std@@V?$allocator@U?$pair@QAX_N@std@@@2@$0A@@std@@@std@@QAEAAV012@XZ 10138120 f i CIVW.obj
 0002:00089150       ??0const_iterator@?$_Tree@V?$_Tmap_traits@PAX_NU?$less@PAX@std@@V?$allocator@U?$pair@QAX_N@std@@@2@$0A@@std@@@std@@QAE@XZ 10138150 f i CIVW.obj
 0002:00089190       ??Econst_iterator@?$_Tree@V?$_Tmap_traits@PAX_NU?$less@PAX@std@@V?$allocator@U?$pair@QAX_N@std@@@2@$0A@@std@@@std@@QAEAAV012@XZ 10138190 f i CIVW.obj
 0002:000891c0       ?_Mynode@const_iterator@?$_Tree@V?$_Tmap_traits@PAX_NU?$less@PAX@std@@V?$allocator@U?$pair@QAX_N@std@@@2@$0A@@std@@@std@@QBEPAU_Node@?$_Tree_nod@V?$_Tmap_traits@PAX_NU?$less@PAX@std@@V?$allocator@U?$pair@QAX_N@std@@@2@$0A@@std@@@3@XZ 101381c0 f i CIVW.obj
 0002:000891e0       ??0iterator@?$_Tree@V?$_Tmap_traits@PAXIU?$less@PAX@std@@V?$allocator@U?$pair@QAXI@std@@@2@$0A@@std@@@std@@QAE@PAU_Node@?$_Tree_nod@V?$_Tmap_traits@PAXIU?$less@PAX@std@@V?$allocator@U?$pair@QAXI@std@@@2@$0A@@std@@@2@PBV12@@Z 101381e0 f i CIVW.obj
 0002:00089220       ??Diterator@?$_Tree@V?$_Tmap_traits@PAXIU?$less@PAX@std@@V?$allocator@U?$pair@QAXI@std@@@2@$0A@@std@@@std@@QBEAAU?$pair@QAXI@2@XZ 10138220 f i CIVW.obj
 0002:00089250       ??0const_iterator@?$_Tree@V?$_Tmap_traits@PAXIU?$less@PAX@std@@V?$allocator@U?$pair@QAXI@std@@@2@$0A@@std@@@std@@QAE@XZ 10138250 f i CIVW.obj
 0002:00089290       ??Econst_iterator@?$_Tree@V?$_Tmap_traits@PAXIU?$less@PAX@std@@V?$allocator@U?$pair@QAXI@std@@@2@$0A@@std@@@std@@QAEAAV012@XZ 10138290 f i CIVW.obj
 0002:000892c0       ?_Mynode@const_iterator@?$_Tree@V?$_Tmap_traits@PAXIU?$less@PAX@std@@V?$allocator@U?$pair@QAXI@std@@@2@$0A@@std@@@std@@QBEPAU_Node@?$_Tree_nod@V?$_Tmap_traits@PAXIU?$less@PAX@std@@V?$allocator@U?$pair@QAXI@std@@@2@$0A@@std@@@3@XZ 101382c0 f i CIVW.obj
 0002:000892e0       ??0iterator@?$_Tree@V?$_Tmap_traits@HUtagMulObjScene@VA@@U?$less@H@std@@V?$allocator@U?$pair@$$CBHUtagMulObjScene@VA@@@std@@@4@$0A@@std@@@std@@QAE@PAU_Node@?$_Tree_nod@V?$_Tmap_traits@HUtagMulObjScene@VA@@U?$less@H@std@@V?$allocator@U?$pair@$$CBHUtagMulObjScene@VA@@@std@@@4@$0A@@std@@@2@PBV12@@Z 101382e0 f i CIVW.obj
 0002:00089320       ??Diterator@?$_Tree@V?$_Tmap_traits@HUtagMulObjScene@VA@@U?$less@H@std@@V?$allocator@U?$pair@$$CBHUtagMulObjScene@VA@@@std@@@4@$0A@@std@@@std@@QBEAAU?$pair@$$CBHUtagMulObjScene@VA@@@2@XZ 10138320 f i CIVW.obj
 0002:00089350       ??0const_iterator@?$_Tree@V?$_Tmap_traits@HUtagMulObjScene@VA@@U?$less@H@std@@V?$allocator@U?$pair@$$CBHUtagMulObjScene@VA@@@std@@@4@$0A@@std@@@std@@QAE@XZ 10138350 f i CIVW.obj
 0002:00089390       ??Econst_iterator@?$_Tree@V?$_Tmap_traits@HUtagMulObjScene@VA@@U?$less@H@std@@V?$allocator@U?$pair@$$CBHUtagMulObjScene@VA@@@std@@@4@$0A@@std@@@std@@QAEAAV012@XZ 10138390 f i CIVW.obj
 0002:000893c0       ?_Mynode@const_iterator@?$_Tree@V?$_Tmap_traits@HUtagMulObjScene@VA@@U?$less@H@std@@V?$allocator@U?$pair@$$CBHUtagMulObjScene@VA@@@std@@@4@$0A@@std@@@std@@QBEPAU_Node@?$_Tree_nod@V?$_Tmap_traits@HUtagMulObjScene@VA@@U?$less@H@std@@V?$allocator@U?$pair@$$CBHUtagMulObjScene@VA@@@std@@@4@$0A@@std@@@3@XZ 101383c0 f i CIVW.obj
 0002:000893e0       ??0?$pair@$$CBHUtagMulObjScene@VA@@@std@@QAE@ABHABUtagMulObjScene@VA@@@Z 101383e0 f i CIVW.obj
 0002:00089420       ??0?$pair@QAXI@std@@QAE@ABQAXABI@Z 10138420 f i CIVW.obj
 0002:00089460       ??0?$pair@QAX_N@std@@QAE@ABQAXAB_N@Z 10138460 f i CIVW.obj
 0002:000894a0       ??0?$_Bidit@U?$pair@QAX_N@std@@HPBU12@ABU12@@std@@QAE@XZ 101384a0 f i CIVW.obj
 0002:000894d0       ??0?$_Bidit@U?$pair@QAXI@std@@HPBU12@ABU12@@std@@QAE@XZ 101384d0 f i CIVW.obj
 0002:00089500       ??0?$_Bidit@U?$pair@$$CBHUtagMulObjScene@VA@@@std@@HPBU12@ABU12@@std@@QAE@XZ 10138500 f i CIVW.obj
 0002:00089530       ??0?$_Iterator_with_base@Ubidirectional_iterator_tag@std@@U?$pair@QAX_N@2@HPBU32@ABU32@V_Iterator_base_aux@2@@std@@QAE@XZ 10138530 f i CIVW.obj
 0002:00089560       ??0?$_Iterator_with_base@Ubidirectional_iterator_tag@std@@U?$pair@QAXI@2@HPBU32@ABU32@V_Iterator_base_aux@2@@std@@QAE@XZ 10138560 f i CIVW.obj
 0002:00089590       ??0?$_Iterator_with_base@Ubidirectional_iterator_tag@std@@U?$pair@$$CBHUtagMulObjScene@VA@@@2@HPBU32@ABU32@V_Iterator_base_aux@2@@std@@QAE@XZ 10138590 f i CIVW.obj
 0002:000895c0       ??0?$allocator@H@std@@QAE@ABV01@@Z 101385c0 f i CIVW.obj
 0002:000895e0       ?deallocate@?$allocator@H@std@@QAEXPAHI@Z 101385e0 f i CIVW.obj
 0002:00089610       ?allocate@?$allocator@H@std@@QAEPAHI@Z 10138610 f i CIVW.obj
 0002:00089640       ?_Isnil@?$_Tree@V?$_Tmap_traits@HUtagMulObjScene@VA@@U?$less@H@std@@V?$allocator@U?$pair@$$CBHUtagMulObjScene@VA@@@std@@@4@$0A@@std@@@std@@KAAADPAU_Node@?$_Tree_nod@V?$_Tmap_traits@HUtagMulObjScene@VA@@U?$less@H@std@@V?$allocator@U?$pair@$$CBHUtagMulObjScene@VA@@@std@@@4@$0A@@std@@@2@@Z 10138640 f i CIVW.obj
 0002:00089660       ?_Left@?$_Tree@V?$_Tmap_traits@HUtagMulObjScene@VA@@U?$less@H@std@@V?$allocator@U?$pair@$$CBHUtagMulObjScene@VA@@@std@@@4@$0A@@std@@@std@@KAAAPAU_Node@?$_Tree_nod@V?$_Tmap_traits@HUtagMulObjScene@VA@@U?$less@H@std@@V?$allocator@U?$pair@$$CBHUtagMulObjScene@VA@@@std@@@4@$0A@@std@@@2@PAU342@@Z 10138660 f i CIVW.obj
 0002:00089680       ?_Parent@?$_Tree@V?$_Tmap_traits@HUtagMulObjScene@VA@@U?$less@H@std@@V?$allocator@U?$pair@$$CBHUtagMulObjScene@VA@@@std@@@4@$0A@@std@@@std@@KAAAPAU_Node@?$_Tree_nod@V?$_Tmap_traits@HUtagMulObjScene@VA@@U?$less@H@std@@V?$allocator@U?$pair@$$CBHUtagMulObjScene@VA@@@std@@@4@$0A@@std@@@2@PAU342@@Z 10138680 f i CIVW.obj
 0002:000896a0       ?_Right@?$_Tree@V?$_Tmap_traits@HUtagMulObjScene@VA@@U?$less@H@std@@V?$allocator@U?$pair@$$CBHUtagMulObjScene@VA@@@std@@@4@$0A@@std@@@std@@KAAAPAU_Node@?$_Tree_nod@V?$_Tmap_traits@HUtagMulObjScene@VA@@U?$less@H@std@@V?$allocator@U?$pair@$$CBHUtagMulObjScene@VA@@@std@@@4@$0A@@std@@@2@PAU342@@Z 101386a0 f i CIVW.obj
 0002:000896c0       ?_Myval@?$_Tree@V?$_Tmap_traits@HUtagMulObjScene@VA@@U?$less@H@std@@V?$allocator@U?$pair@$$CBHUtagMulObjScene@VA@@@std@@@4@$0A@@std@@@std@@KAAAU?$pair@$$CBHUtagMulObjScene@VA@@@2@PAU_Node@?$_Tree_nod@V?$_Tmap_traits@HUtagMulObjScene@VA@@U?$less@H@std@@V?$allocator@U?$pair@$$CBHUtagMulObjScene@VA@@@std@@@4@$0A@@std@@@2@@Z 101386c0 f i CIVW.obj
 0002:000896e0       ?_Make_iter@?$_Tree@V?$_Tmap_traits@HUtagMulObjScene@VA@@U?$less@H@std@@V?$allocator@U?$pair@$$CBHUtagMulObjScene@VA@@@std@@@4@$0A@@std@@@std@@QBE?AViterator@12@Vconst_iterator@12@@Z 101386e0 f i CIVW.obj
 0002:00089730       ?insert@?$_Tree@V?$_Tmap_traits@HUtagMulObjScene@VA@@U?$less@H@std@@V?$allocator@U?$pair@$$CBHUtagMulObjScene@VA@@@std@@@4@$0A@@std@@@std@@QAE?AU?$pair@Viterator@?$_Tree@V?$_Tmap_traits@HUtagMulObjScene@VA@@U?$less@H@std@@V?$allocator@U?$pair@$$CBHUtagMulObjScene@VA@@@std@@@4@$0A@@std@@@std@@_N@2@ABU?$pair@$$CBHUtagMulObjScene@VA@@@2@@Z 10138730 f i CIVW.obj
 0002:00089990       ?erase@?$_Tree@V?$_Tmap_traits@HUtagMulObjScene@VA@@U?$less@H@std@@V?$allocator@U?$pair@$$CBHUtagMulObjScene@VA@@@std@@@4@$0A@@std@@@std@@QAE?AViterator@12@Vconst_iterator@12@@Z 10138990 f i CIVW.obj
 0002:0008a380       ?_Copy@?$_Tree@V?$_Tmap_traits@HUtagMulObjScene@VA@@U?$less@H@std@@V?$allocator@U?$pair@$$CBHUtagMulObjScene@VA@@@std@@@4@$0A@@std@@@std@@IAEPAU_Node@?$_Tree_nod@V?$_Tmap_traits@HUtagMulObjScene@VA@@U?$less@H@std@@V?$allocator@U?$pair@$$CBHUtagMulObjScene@VA@@@std@@@4@$0A@@std@@@2@PAU342@0@Z 10139380 f i CIVW.obj
 0002:0008a540       ?_Init@?$_Tree@V?$_Tmap_traits@HUtagMulObjScene@VA@@U?$less@H@std@@V?$allocator@U?$pair@$$CBHUtagMulObjScene@VA@@@std@@@4@$0A@@std@@@std@@IAEXXZ 10139540 f i CIVW.obj
 0002:0008a5d0       ?_Insert@?$_Tree@V?$_Tmap_traits@HUtagMulObjScene@VA@@U?$less@H@std@@V?$allocator@U?$pair@$$CBHUtagMulObjScene@VA@@@std@@@4@$0A@@std@@@std@@IAE?AViterator@12@_NPAU_Node@?$_Tree_nod@V?$_Tmap_traits@HUtagMulObjScene@VA@@U?$less@H@std@@V?$allocator@U?$pair@$$CBHUtagMulObjScene@VA@@@std@@@4@$0A@@std@@@2@ABU?$pair@$$CBHUtagMulObjScene@VA@@@2@@Z 101395d0 f i CIVW.obj
 0002:0008ab80       ?_Lbound@?$_Tree@V?$_Tmap_traits@HUtagMulObjScene@VA@@U?$less@H@std@@V?$allocator@U?$pair@$$CBHUtagMulObjScene@VA@@@std@@@4@$0A@@std@@@std@@IBEPAU_Node@?$_Tree_nod@V?$_Tmap_traits@HUtagMulObjScene@VA@@U?$less@H@std@@V?$allocator@U?$pair@$$CBHUtagMulObjScene@VA@@@std@@@4@$0A@@std@@@2@ABH@Z 10139b80 f i CIVW.obj
 0002:0008ac40       ?_Max@?$_Tree@V?$_Tmap_traits@HUtagMulObjScene@VA@@U?$less@H@std@@V?$allocator@U?$pair@$$CBHUtagMulObjScene@VA@@@std@@@4@$0A@@std@@@std@@KAPAU_Node@?$_Tree_nod@V?$_Tmap_traits@HUtagMulObjScene@VA@@U?$less@H@std@@V?$allocator@U?$pair@$$CBHUtagMulObjScene@VA@@@std@@@4@$0A@@std@@@2@PAU342@@Z 10139c40 f i CIVW.obj
 0002:0008aca0       ?_Min@?$_Tree@V?$_Tmap_traits@HUtagMulObjScene@VA@@U?$less@H@std@@V?$allocator@U?$pair@$$CBHUtagMulObjScene@VA@@@std@@@4@$0A@@std@@@std@@KAPAU_Node@?$_Tree_nod@V?$_Tmap_traits@HUtagMulObjScene@VA@@U?$less@H@std@@V?$allocator@U?$pair@$$CBHUtagMulObjScene@VA@@@std@@@4@$0A@@std@@@2@PAU342@@Z 10139ca0 f i CIVW.obj
 0002:0008ad00       ??0?$_Tree_val@V?$_Tmap_traits@HUtagMulObjScene@VA@@U?$less@H@std@@V?$allocator@U?$pair@$$CBHUtagMulObjScene@VA@@@std@@@4@$0A@@std@@@std@@IAE@ABU?$less@H@1@V?$allocator@U?$pair@$$CBHUtagMulObjScene@VA@@@std@@@1@@Z 10139d00 f i CIVW.obj
 0002:0008ad60       ?_Kfn@?$_Tmap_traits@HUtagMulObjScene@VA@@U?$less@H@std@@V?$allocator@U?$pair@$$CBHUtagMulObjScene@VA@@@std@@@4@$0A@@std@@SAABHABU?$pair@$$CBHUtagMulObjScene@VA@@@2@@Z 10139d60 f i CIVW.obj
 0002:0008ad80       ??0?$allocator@U?$pair@$$CBHUtagMulObjScene@VA@@@std@@@std@@QAE@ABV01@@Z 10139d80 f i CIVW.obj
 0002:0008ada0       ?deallocate@?$allocator@U_Node@?$_Tree_nod@V?$_Tmap_traits@HUtagMulObjScene@VA@@U?$less@H@std@@V?$allocator@U?$pair@$$CBHUtagMulObjScene@VA@@@std@@@4@$0A@@std@@@std@@@std@@QAEXPAU_Node@?$_Tree_nod@V?$_Tmap_traits@HUtagMulObjScene@VA@@U?$less@H@std@@V?$allocator@U?$pair@$$CBHUtagMulObjScene@VA@@@std@@@4@$0A@@std@@@2@I@Z 10139da0 f i CIVW.obj
 0002:0008add0       ?destroy@?$allocator@U_Node@?$_Tree_nod@V?$_Tmap_traits@HUtagMulObjScene@VA@@U?$less@H@std@@V?$allocator@U?$pair@$$CBHUtagMulObjScene@VA@@@std@@@4@$0A@@std@@@std@@@std@@QAEXPAU_Node@?$_Tree_nod@V?$_Tmap_traits@HUtagMulObjScene@VA@@U?$less@H@std@@V?$allocator@U?$pair@$$CBHUtagMulObjScene@VA@@@std@@@4@$0A@@std@@@2@@Z 10139dd0 f i CIVW.obj
 0002:0008ae00       ?destroy@?$allocator@PAU_Node@?$_Tree_nod@V?$_Tmap_traits@HUtagMulObjScene@VA@@U?$less@H@std@@V?$allocator@U?$pair@$$CBHUtagMulObjScene@VA@@@std@@@4@$0A@@std@@@std@@@std@@QAEXPAPAU_Node@?$_Tree_nod@V?$_Tmap_traits@HUtagMulObjScene@VA@@U?$less@H@std@@V?$allocator@U?$pair@$$CBHUtagMulObjScene@VA@@@std@@@4@$0A@@std@@@2@@Z 10139e00 f i CIVW.obj
 0002:0008ae30       ?_Myval@?$_Tree@V?$_Tmap_traits@PAX_NU?$less@PAX@std@@V?$allocator@U?$pair@QAX_N@std@@@2@$0A@@std@@@std@@KAAAU?$pair@QAX_N@2@PAU_Node@?$_Tree_nod@V?$_Tmap_traits@PAX_NU?$less@PAX@std@@V?$allocator@U?$pair@QAX_N@std@@@2@$0A@@std@@@2@@Z 10139e30 f i CIVW.obj
 0002:0008ae50       ?size@?$_Tree@V?$_Tmap_traits@PAX_NU?$less@PAX@std@@V?$allocator@U?$pair@QAX_N@std@@@2@$0A@@std@@@std@@QBEIXZ 10139e50 f i CIVW.obj
 0002:0008ae70       ?insert@?$_Tree@V?$_Tmap_traits@PAX_NU?$less@PAX@std@@V?$allocator@U?$pair@QAX_N@std@@@2@$0A@@std@@@std@@QAE?AU?$pair@Viterator@?$_Tree@V?$_Tmap_traits@PAX_NU?$less@PAX@std@@V?$allocator@U?$pair@QAX_N@std@@@2@$0A@@std@@@std@@_N@2@ABU?$pair@QAX_N@2@@Z 10139e70 f i CIVW.obj
 0002:0008b0d0       ?_Copy@?$_Tree@V?$_Tmap_traits@PAX_NU?$less@PAX@std@@V?$allocator@U?$pair@QAX_N@std@@@2@$0A@@std@@@std@@IAEPAU_Node@?$_Tree_nod@V?$_Tmap_traits@PAX_NU?$less@PAX@std@@V?$allocator@U?$pair@QAX_N@std@@@2@$0A@@std@@@2@PAU342@0@Z 1013a0d0 f i CIVW.obj
 0002:0008b290       ?_Init@?$_Tree@V?$_Tmap_traits@PAX_NU?$less@PAX@std@@V?$allocator@U?$pair@QAX_N@std@@@2@$0A@@std@@@std@@IAEXXZ 1013a290 f i CIVW.obj
 0002:0008b320       ?_Insert@?$_Tree@V?$_Tmap_traits@PAX_NU?$less@PAX@std@@V?$allocator@U?$pair@QAX_N@std@@@2@$0A@@std@@@std@@IAE?AViterator@12@_NPAU_Node@?$_Tree_nod@V?$_Tmap_traits@PAX_NU?$less@PAX@std@@V?$allocator@U?$pair@QAX_N@std@@@2@$0A@@std@@@2@ABU?$pair@QAX_N@2@@Z 1013a320 f i CIVW.obj
 0002:0008b8d0       ?_Lbound@?$_Tree@V?$_Tmap_traits@PAX_NU?$less@PAX@std@@V?$allocator@U?$pair@QAX_N@std@@@2@$0A@@std@@@std@@IBEPAU_Node@?$_Tree_nod@V?$_Tmap_traits@PAX_NU?$less@PAX@std@@V?$allocator@U?$pair@QAX_N@std@@@2@$0A@@std@@@2@ABQAX@Z 1013a8d0 f i CIVW.obj
 0002:0008b990       ??0?$_Tree_val@V?$_Tmap_traits@PAX_NU?$less@PAX@std@@V?$allocator@U?$pair@QAX_N@std@@@2@$0A@@std@@@std@@IAE@ABU?$less@PAX@1@V?$allocator@U?$pair@QAX_N@std@@@1@@Z 1013a990 f i CIVW.obj
 0002:0008b9f0       ?_Kfn@?$_Tmap_traits@PAX_NU?$less@PAX@std@@V?$allocator@U?$pair@QAX_N@std@@@2@$0A@@std@@SAABQAXABU?$pair@QAX_N@2@@Z 1013a9f0 f i CIVW.obj
 0002:0008ba10       ??0?$allocator@U?$pair@QAX_N@std@@@std@@QAE@ABV01@@Z 1013aa10 f i CIVW.obj
 0002:0008ba30       ?destroy@?$allocator@PAU_Node@?$_Tree_nod@V?$_Tmap_traits@PAX_NU?$less@PAX@std@@V?$allocator@U?$pair@QAX_N@std@@@2@$0A@@std@@@std@@@std@@QAEXPAPAU_Node@?$_Tree_nod@V?$_Tmap_traits@PAX_NU?$less@PAX@std@@V?$allocator@U?$pair@QAX_N@std@@@2@$0A@@std@@@2@@Z 1013aa30 f i CIVW.obj
 0002:0008ba60       ?_Myval@?$_Tree@V?$_Tmap_traits@PAXIU?$less@PAX@std@@V?$allocator@U?$pair@QAXI@std@@@2@$0A@@std@@@std@@KAAAU?$pair@QAXI@2@PAU_Node@?$_Tree_nod@V?$_Tmap_traits@PAXIU?$less@PAX@std@@V?$allocator@U?$pair@QAXI@std@@@2@$0A@@std@@@2@@Z 1013aa60 f i CIVW.obj
 0002:0008ba80       ?begin@?$_Tree@V?$_Tmap_traits@PAXIU?$less@PAX@std@@V?$allocator@U?$pair@QAXI@std@@@2@$0A@@std@@@std@@QAE?AViterator@12@XZ 1013aa80 f i CIVW.obj
 0002:0008bac0       ?insert@?$_Tree@V?$_Tmap_traits@PAXIU?$less@PAX@std@@V?$allocator@U?$pair@QAXI@std@@@2@$0A@@std@@@std@@QAE?AU?$pair@Viterator@?$_Tree@V?$_Tmap_traits@PAXIU?$less@PAX@std@@V?$allocator@U?$pair@QAXI@std@@@2@$0A@@std@@@std@@_N@2@ABU?$pair@QAXI@2@@Z 1013aac0 f i CIVW.obj
 0002:0008bd20       ?erase@?$_Tree@V?$_Tmap_traits@PAXIU?$less@PAX@std@@V?$allocator@U?$pair@QAXI@std@@@2@$0A@@std@@@std@@QAE?AViterator@12@Vconst_iterator@12@0@Z 1013ad20 f i CIVW.obj
 0002:0008be10       ?_Init@?$_Tree@V?$_Tmap_traits@PAXIU?$less@PAX@std@@V?$allocator@U?$pair@QAXI@std@@@2@$0A@@std@@@std@@IAEXXZ 1013ae10 f i CIVW.obj
 0002:0008bea0       ?_Insert@?$_Tree@V?$_Tmap_traits@PAXIU?$less@PAX@std@@V?$allocator@U?$pair@QAXI@std@@@2@$0A@@std@@@std@@IAE?AViterator@12@_NPAU_Node@?$_Tree_nod@V?$_Tmap_traits@PAXIU?$less@PAX@std@@V?$allocator@U?$pair@QAXI@std@@@2@$0A@@std@@@2@ABU?$pair@QAXI@2@@Z 1013aea0 f i CIVW.obj
 0002:0008c450       ?_Lbound@?$_Tree@V?$_Tmap_traits@PAXIU?$less@PAX@std@@V?$allocator@U?$pair@QAXI@std@@@2@$0A@@std@@@std@@IBEPAU_Node@?$_Tree_nod@V?$_Tmap_traits@PAXIU?$less@PAX@std@@V?$allocator@U?$pair@QAXI@std@@@2@$0A@@std@@@2@ABQAX@Z 1013b450 f i CIVW.obj
 0002:0008c510       ??0?$_Tree_val@V?$_Tmap_traits@PAXIU?$less@PAX@std@@V?$allocator@U?$pair@QAXI@std@@@2@$0A@@std@@@std@@IAE@ABU?$less@PAX@1@V?$allocator@U?$pair@QAXI@std@@@1@@Z 1013b510 f i CIVW.obj
 0002:0008c570       ?_Kfn@?$_Tmap_traits@PAXIU?$less@PAX@std@@V?$allocator@U?$pair@QAXI@std@@@2@$0A@@std@@SAABQAXABU?$pair@QAXI@2@@Z 1013b570 f i CIVW.obj
 0002:0008c590       ??0?$allocator@U?$pair@QAXI@std@@@std@@QAE@ABV01@@Z 1013b590 f i CIVW.obj
 0002:0008c5b0       ?destroy@?$allocator@PAU_Node@?$_Tree_nod@V?$_Tmap_traits@PAXIU?$less@PAX@std@@V?$allocator@U?$pair@QAXI@std@@@2@$0A@@std@@@std@@@std@@QAEXPAPAU_Node@?$_Tree_nod@V?$_Tmap_traits@PAXIU?$less@PAX@std@@V?$allocator@U?$pair@QAXI@std@@@2@$0A@@std@@@2@@Z 1013b5b0 f i CIVW.obj
 0002:0008c5e0       ?begin@?$deque@UMvwResultMsg@VA@@V?$allocator@UMvwResultMsg@VA@@@std@@@std@@QAE?AV?$_Deque_iterator@UMvwResultMsg@VA@@V?$allocator@UMvwResultMsg@VA@@@std@@$00@2@XZ 1013b5e0 f i CIVW.obj
 0002:0008c620       ?pop_back@?$deque@UMvwResultMsg@VA@@V?$allocator@UMvwResultMsg@VA@@@std@@@std@@QAEXXZ 1013b620 f i CIVW.obj
 0002:0008c6f0       ?_Growmap@?$deque@UMvwResultMsg@VA@@V?$allocator@UMvwResultMsg@VA@@@std@@@std@@IAEXI@Z 1013b6f0 f i CIVW.obj
 0002:0008c9a0       ??0?$_Deque_val@UMvwResultMsg@VA@@V?$allocator@UMvwResultMsg@VA@@@std@@@std@@IAE@V?$allocator@UMvwResultMsg@VA@@@1@@Z 1013b9a0 f i CIVW.obj
 0002:0008c9f0       ??0?$allocator@UMvwResultMsg@VA@@@std@@QAE@XZ 1013b9f0 f i CIVW.obj
 0002:0008ca10       ?deallocate@?$allocator@UMvwResultMsg@VA@@@std@@QAEXPAUMvwResultMsg@VA@@I@Z 1013ba10 f i CIVW.obj
 0002:0008ca40       ?allocate@?$allocator@UMvwResultMsg@VA@@@std@@QAEPAUMvwResultMsg@VA@@I@Z 1013ba40 f i CIVW.obj
 0002:0008ca70       ?construct@?$allocator@UMvwResultMsg@VA@@@std@@QAEXPAUMvwResultMsg@VA@@ABU34@@Z 1013ba70 f i CIVW.obj
 0002:0008caa0       ?destroy@?$allocator@UMvwResultMsg@VA@@@std@@QAEXPAUMvwResultMsg@VA@@@Z 1013baa0 f i CIVW.obj
 0002:0008cad0       ?deallocate@?$allocator@PAUMvwResultMsg@VA@@@std@@QAEXPAPAUMvwResultMsg@VA@@I@Z 1013bad0 f i CIVW.obj
 0002:0008cb00       ?destroy@?$allocator@PAUMvwResultMsg@VA@@@std@@QAEXPAPAUMvwResultMsg@VA@@@Z 1013bb00 f i CIVW.obj
 0002:0008cb30       ?begin@?$vector@HV?$allocator@H@std@@@std@@QAE?AV?$_Vector_iterator@HV?$allocator@H@std@@@2@XZ 1013bb30 f i CIVW.obj
 0002:0008cb70       ?max_size@?$vector@HV?$allocator@H@std@@@std@@QBEIXZ 1013bb70 f i CIVW.obj
 0002:0008cba0       ?_Insert_n@?$vector@HV?$allocator@H@std@@@std@@IAEXV?$_Vector_const_iterator@HV?$allocator@H@std@@@2@IABH@Z 1013bba0 f i CIVW.obj
 0002:0008cfd0       ?_Xlen@?$vector@HV?$allocator@H@std@@@std@@KAXXZ 1013bfd0 f i CIVW.obj
 0002:0008d080       ??0?$_Container_base_aux_alloc_real@V?$allocator@H@std@@@std@@IAE@V?$allocator@H@1@@Z 1013c080 f i CIVW.obj
 0002:0008d170       ?begin@?$vector@PADV?$allocator@PAD@std@@@std@@QAE?AV?$_Vector_iterator@PADV?$allocator@PAD@std@@@2@XZ 1013c170 f i CIVW.obj
 0002:0008d1b0       ?max_size@?$vector@PADV?$allocator@PAD@std@@@std@@QBEIXZ 1013c1b0 f i CIVW.obj
 0002:0008d1e0       ?_Destroy@?$vector@PADV?$allocator@PAD@std@@@std@@IAEXPAPAD0@Z 1013c1e0 f i CIVW.obj
 0002:0008d220       ?_Insert_n@?$vector@PADV?$allocator@PAD@std@@@std@@IAEXV?$_Vector_const_iterator@PADV?$allocator@PAD@std@@@2@IABQAD@Z 1013c220 f i CIVW.obj
 0002:0008d650       ?_Xlen@?$vector@PADV?$allocator@PAD@std@@@std@@KAXXZ 1013c650 f i CIVW.obj
 0002:0008d700       ??0?$_Container_base_aux_alloc_real@V?$allocator@PAD@std@@@std@@IAE@V?$allocator@PAD@1@@Z 1013c700 f i CIVW.obj
 0002:0008d7f0       ??0?$allocator@PAD@std@@QAE@ABV01@@Z 1013c7f0 f i CIVW.obj
 0002:0008d810       ?deallocate@?$allocator@PAD@std@@QAEXPAPADI@Z 1013c810 f i CIVW.obj
 0002:0008d840       ?allocate@?$allocator@PAD@std@@QAEPAPADI@Z 1013c840 f i CIVW.obj
 0002:0008d870       ?_Make_iter@?$vector@UtagKeyWordAndThreshold@VA@@V?$allocator@UtagKeyWordAndThreshold@VA@@@std@@@std@@QBE?AV?$_Vector_iterator@UtagKeyWordAndThreshold@VA@@V?$allocator@UtagKeyWordAndThreshold@VA@@@std@@@2@V?$_Vector_const_iterator@UtagKeyWordAndThreshold@VA@@V?$allocator@UtagKeyWordAndThreshold@VA@@@std@@@2@@Z 1013c870 f i CIVW.obj
 0002:0008d8b0       ?max_size@?$vector@UtagKeyWordAndThreshold@VA@@V?$allocator@UtagKeyWordAndThreshold@VA@@@std@@@std@@QBEIXZ 1013c8b0 f i CIVW.obj
 0002:0008d8e0       ?_Destroy@?$vector@UtagKeyWordAndThreshold@VA@@V?$allocator@UtagKeyWordAndThreshold@VA@@@std@@@std@@IAEXPAUtagKeyWordAndThreshold@VA@@0@Z 1013c8e0 f i CIVW.obj
 0002:0008d920       ?_Insert_n@?$vector@UtagKeyWordAndThreshold@VA@@V?$allocator@UtagKeyWordAndThreshold@VA@@@std@@@std@@IAEXV?$_Vector_const_iterator@UtagKeyWordAndThreshold@VA@@V?$allocator@UtagKeyWordAndThreshold@VA@@@std@@@2@IABUtagKeyWordAndThreshold@VA@@@Z 1013c920 f i CIVW.obj
 0002:0008ddc0       ?_Xlen@?$vector@UtagKeyWordAndThreshold@VA@@V?$allocator@UtagKeyWordAndThreshold@VA@@@std@@@std@@KAXXZ 1013cdc0 f i CIVW.obj
 0002:0008de70       ??0?$_Container_base_aux_alloc_real@V?$allocator@UtagKeyWordAndThreshold@VA@@@std@@@std@@IAE@V?$allocator@UtagKeyWordAndThreshold@VA@@@1@@Z 1013ce70 f i CIVW.obj
 0002:0008df60       ??0?$allocator@UtagKeyWordAndThreshold@VA@@@std@@QAE@ABV01@@Z 1013cf60 f i CIVW.obj
 0002:0008df80       ?deallocate@?$allocator@UtagKeyWordAndThreshold@VA@@@std@@QAEXPAUtagKeyWordAndThreshold@VA@@I@Z 1013cf80 f i CIVW.obj
 0002:0008dfb0       ?allocate@?$allocator@UtagKeyWordAndThreshold@VA@@@std@@QAEPAUtagKeyWordAndThreshold@VA@@I@Z 1013cfb0 f i CIVW.obj
 0002:0008dfe0       ??0const_iterator@?$_Tree@V?$_Tmap_traits@PAX_NU?$less@PAX@std@@V?$allocator@U?$pair@QAX_N@std@@@2@$0A@@std@@@std@@QAE@PAU_Node@?$_Tree_nod@V?$_Tmap_traits@PAX_NU?$less@PAX@std@@V?$allocator@U?$pair@QAX_N@std@@@2@$0A@@std@@@2@PBV12@@Z 1013cfe0 f i CIVW.obj
 0002:0008e040       ??Dconst_iterator@?$_Tree@V?$_Tmap_traits@PAX_NU?$less@PAX@std@@V?$allocator@U?$pair@QAX_N@std@@@2@$0A@@std@@@std@@QBEABU?$pair@QAX_N@2@XZ 1013d040 f i CIVW.obj
 0002:0008e0b0       ??Econst_iterator@?$_Tree@V?$_Tmap_traits@PAX_NU?$less@PAX@std@@V?$allocator@U?$pair@QAX_N@std@@@2@$0A@@std@@@std@@QAE?AV012@H@Z 1013d0b0 f i CIVW.obj
 0002:0008e100       ??Fconst_iterator@?$_Tree@V?$_Tmap_traits@PAX_NU?$less@PAX@std@@V?$allocator@U?$pair@QAX_N@std@@@2@$0A@@std@@@std@@QAEAAV012@XZ 1013d100 f i CIVW.obj
 0002:0008e130       ?_Inc@const_iterator@?$_Tree@V?$_Tmap_traits@PAX_NU?$less@PAX@std@@V?$allocator@U?$pair@QAX_N@std@@@2@$0A@@std@@@std@@QAEXXZ 1013d130 f i CIVW.obj
 0002:0008e250       ??0const_iterator@?$_Tree@V?$_Tmap_traits@PAXIU?$less@PAX@std@@V?$allocator@U?$pair@QAXI@std@@@2@$0A@@std@@@std@@QAE@PAU_Node@?$_Tree_nod@V?$_Tmap_traits@PAXIU?$less@PAX@std@@V?$allocator@U?$pair@QAXI@std@@@2@$0A@@std@@@2@PBV12@@Z 1013d250 f i CIVW.obj
 0002:0008e2b0       ??Dconst_iterator@?$_Tree@V?$_Tmap_traits@PAXIU?$less@PAX@std@@V?$allocator@U?$pair@QAXI@std@@@2@$0A@@std@@@std@@QBEABU?$pair@QAXI@2@XZ 1013d2b0 f i CIVW.obj
 0002:0008e320       ??Fconst_iterator@?$_Tree@V?$_Tmap_traits@PAXIU?$less@PAX@std@@V?$allocator@U?$pair@QAXI@std@@@2@$0A@@std@@@std@@QAEAAV012@XZ 1013d320 f i CIVW.obj
 0002:0008e350       ?_Inc@const_iterator@?$_Tree@V?$_Tmap_traits@PAXIU?$less@PAX@std@@V?$allocator@U?$pair@QAXI@std@@@2@$0A@@std@@@std@@QAEXXZ 1013d350 f i CIVW.obj
 0002:0008e470       ??0const_iterator@?$_Tree@V?$_Tmap_traits@HUtagMulObjScene@VA@@U?$less@H@std@@V?$allocator@U?$pair@$$CBHUtagMulObjScene@VA@@@std@@@4@$0A@@std@@@std@@QAE@PAU_Node@?$_Tree_nod@V?$_Tmap_traits@HUtagMulObjScene@VA@@U?$less@H@std@@V?$allocator@U?$pair@$$CBHUtagMulObjScene@VA@@@std@@@4@$0A@@std@@@2@PBV12@@Z 1013d470 f i CIVW.obj
 0002:0008e4d0       ??Dconst_iterator@?$_Tree@V?$_Tmap_traits@HUtagMulObjScene@VA@@U?$less@H@std@@V?$allocator@U?$pair@$$CBHUtagMulObjScene@VA@@@std@@@4@$0A@@std@@@std@@QBEABU?$pair@$$CBHUtagMulObjScene@VA@@@2@XZ 1013d4d0 f i CIVW.obj
 0002:0008e540       ??Econst_iterator@?$_Tree@V?$_Tmap_traits@HUtagMulObjScene@VA@@U?$less@H@std@@V?$allocator@U?$pair@$$CBHUtagMulObjScene@VA@@@std@@@4@$0A@@std@@@std@@QAE?AV012@H@Z 1013d540 f i CIVW.obj
 0002:0008e590       ??Fconst_iterator@?$_Tree@V?$_Tmap_traits@HUtagMulObjScene@VA@@U?$less@H@std@@V?$allocator@U?$pair@$$CBHUtagMulObjScene@VA@@@std@@@4@$0A@@std@@@std@@QAEAAV012@XZ 1013d590 f i CIVW.obj
 0002:0008e5c0       ?_Inc@const_iterator@?$_Tree@V?$_Tmap_traits@HUtagMulObjScene@VA@@U?$less@H@std@@V?$allocator@U?$pair@$$CBHUtagMulObjScene@VA@@@std@@@4@$0A@@std@@@std@@QAEXXZ 1013d5c0 f i CIVW.obj
 0002:0008e6e0       ??0?$_Vector_iterator@HV?$allocator@H@std@@@std@@QAE@PAHPBV_Container_base_aux@1@@Z 1013d6e0 f i CIVW.obj
 0002:0008e720       ??H?$_Vector_iterator@HV?$allocator@H@std@@@std@@QBE?AV01@H@Z 1013d720 f i CIVW.obj
 0002:0008e770       ??G?$_Vector_const_iterator@HV?$allocator@H@std@@@std@@QBEHABV01@@Z 1013d770 f i CIVW.obj
 0002:0008e7e0       ??0?$_Vector_iterator@PADV?$allocator@PAD@std@@@std@@QAE@PAPADPBV_Container_base_aux@1@@Z 1013d7e0 f i CIVW.obj
 0002:0008e820       ??H?$_Vector_iterator@PADV?$allocator@PAD@std@@@std@@QBE?AV01@H@Z 1013d820 f i CIVW.obj
 0002:0008e870       ??G?$_Vector_const_iterator@PADV?$allocator@PAD@std@@@std@@QBEHABV01@@Z 1013d870 f i CIVW.obj
 0002:0008e8e0       ??0?$_Vector_iterator@UtagKeyWordAndThreshold@VA@@V?$allocator@UtagKeyWordAndThreshold@VA@@@std@@@std@@QAE@PAUtagKeyWordAndThreshold@VA@@PBV_Container_base_aux@1@@Z 1013d8e0 f i CIVW.obj
 0002:0008e920       ??H?$_Vector_iterator@UtagKeyWordAndThreshold@VA@@V?$allocator@UtagKeyWordAndThreshold@VA@@@std@@@std@@QBE?AV01@H@Z 1013d920 f i CIVW.obj
 0002:0008e970       ??G?$_Vector_const_iterator@UtagKeyWordAndThreshold@VA@@V?$allocator@UtagKeyWordAndThreshold@VA@@@std@@@std@@QBEHABV01@@Z 1013d970 f i CIVW.obj
 0002:0008e9e0       ??9?$_Vector_const_iterator@UtagKeyWordAndThreshold@VA@@V?$allocator@UtagKeyWordAndThreshold@VA@@@std@@@std@@QBE_NABV01@@Z 1013d9e0 f i CIVW.obj
 0002:0008ea20       ??D?$_Deque_iterator@UMvwResultMsg@VA@@V?$allocator@UMvwResultMsg@VA@@@std@@$00@std@@QBEAAUMvwResultMsg@VA@@XZ 1013da20 f i CIVW.obj
 0002:0008ea50       ?max_size@?$allocator@H@std@@QBEIXZ 1013da50 f i CIVW.obj
 0002:0008ea90       ?_Color@?$_Tree@V?$_Tmap_traits@HUtagMulObjScene@VA@@U?$less@H@std@@V?$allocator@U?$pair@$$CBHUtagMulObjScene@VA@@@std@@@4@$0A@@std@@@std@@KAAADPAU_Node@?$_Tree_nod@V?$_Tmap_traits@HUtagMulObjScene@VA@@U?$less@H@std@@V?$allocator@U?$pair@$$CBHUtagMulObjScene@VA@@@std@@@4@$0A@@std@@@2@@Z 1013da90 f i CIVW.obj
 0002:0008eab0       ?max_size@?$_Tree@V?$_Tmap_traits@HUtagMulObjScene@VA@@U?$less@H@std@@V?$allocator@U?$pair@$$CBHUtagMulObjScene@VA@@@std@@@4@$0A@@std@@@std@@QBEIXZ 1013dab0 f i CIVW.obj
 0002:0008eae0       ?_Lrotate@?$_Tree@V?$_Tmap_traits@HUtagMulObjScene@VA@@U?$less@H@std@@V?$allocator@U?$pair@$$CBHUtagMulObjScene@VA@@@std@@@4@$0A@@std@@@std@@IAEXPAU_Node@?$_Tree_nod@V?$_Tmap_traits@HUtagMulObjScene@VA@@U?$less@H@std@@V?$allocator@U?$pair@$$CBHUtagMulObjScene@VA@@@std@@@4@$0A@@std@@@2@@Z 1013dae0 f i CIVW.obj
 0002:0008ec70       ?_Rrotate@?$_Tree@V?$_Tmap_traits@HUtagMulObjScene@VA@@U?$less@H@std@@V?$allocator@U?$pair@$$CBHUtagMulObjScene@VA@@@std@@@4@$0A@@std@@@std@@IAEXPAU_Node@?$_Tree_nod@V?$_Tmap_traits@HUtagMulObjScene@VA@@U?$less@H@std@@V?$allocator@U?$pair@$$CBHUtagMulObjScene@VA@@@std@@@4@$0A@@std@@@2@@Z 1013dc70 f i CIVW.obj
 0002:0008ee00       ?_Buynode@?$_Tree@V?$_Tmap_traits@HUtagMulObjScene@VA@@U?$less@H@std@@V?$allocator@U?$pair@$$CBHUtagMulObjScene@VA@@@std@@@4@$0A@@std@@@std@@IAEPAU_Node@?$_Tree_nod@V?$_Tmap_traits@HUtagMulObjScene@VA@@U?$less@H@std@@V?$allocator@U?$pair@$$CBHUtagMulObjScene@VA@@@std@@@4@$0A@@std@@@2@XZ 1013de00 f i CIVW.obj
 0002:0008efe0       ?_Buynode@?$_Tree@V?$_Tmap_traits@HUtagMulObjScene@VA@@U?$less@H@std@@V?$allocator@U?$pair@$$CBHUtagMulObjScene@VA@@@std@@@4@$0A@@std@@@std@@IAEPAU_Node@?$_Tree_nod@V?$_Tmap_traits@HUtagMulObjScene@VA@@U?$less@H@std@@V?$allocator@U?$pair@$$CBHUtagMulObjScene@VA@@@std@@@4@$0A@@std@@@2@PAU342@00ABU?$pair@$$CBHUtagMulObjScene@VA@@@2@D@Z 1013dfe0 f i CIVW.obj
 0002:0008f100       ??0?$_Tree_ptr@V?$_Tmap_traits@HUtagMulObjScene@VA@@U?$less@H@std@@V?$allocator@U?$pair@$$CBHUtagMulObjScene@VA@@@std@@@4@$0A@@std@@@std@@IAE@ABU?$less@H@1@V?$allocator@U?$pair@$$CBHUtagMulObjScene@VA@@@std@@@1@@Z 1013e100 f i CIVW.obj
 0002:0008f160       ?max_size@?$_Tree@V?$_Tmap_traits@PAX_NU?$less@PAX@std@@V?$allocator@U?$pair@QAX_N@std@@@2@$0A@@std@@@std@@QBEIXZ 1013e160 f i CIVW.obj
 0002:0008f190       ?_Buynode@?$_Tree@V?$_Tmap_traits@PAX_NU?$less@PAX@std@@V?$allocator@U?$pair@QAX_N@std@@@2@$0A@@std@@@std@@IAEPAU_Node@?$_Tree_nod@V?$_Tmap_traits@PAX_NU?$less@PAX@std@@V?$allocator@U?$pair@QAX_N@std@@@2@$0A@@std@@@2@XZ 1013e190 f i CIVW.obj
 0002:0008f370       ?_Buynode@?$_Tree@V?$_Tmap_traits@PAX_NU?$less@PAX@std@@V?$allocator@U?$pair@QAX_N@std@@@2@$0A@@std@@@std@@IAEPAU_Node@?$_Tree_nod@V?$_Tmap_traits@PAX_NU?$less@PAX@std@@V?$allocator@U?$pair@QAX_N@std@@@2@$0A@@std@@@2@PAU342@00ABU?$pair@QAX_N@2@D@Z 1013e370 f i CIVW.obj
 0002:0008f490       ??0?$_Tree_ptr@V?$_Tmap_traits@PAX_NU?$less@PAX@std@@V?$allocator@U?$pair@QAX_N@std@@@2@$0A@@std@@@std@@IAE@ABU?$less@PAX@1@V?$allocator@U?$pair@QAX_N@std@@@1@@Z 1013e490 f i CIVW.obj
 0002:0008f4f0       ?max_size@?$_Tree@V?$_Tmap_traits@PAXIU?$less@PAX@std@@V?$allocator@U?$pair@QAXI@std@@@2@$0A@@std@@@std@@QBEIXZ 1013e4f0 f i CIVW.obj
 0002:0008f520       ?clear@?$_Tree@V?$_Tmap_traits@PAXIU?$less@PAX@std@@V?$allocator@U?$pair@QAXI@std@@@2@$0A@@std@@@std@@QAEXXZ 1013e520 f i CIVW.obj
 0002:0008f5a0       ?_Buynode@?$_Tree@V?$_Tmap_traits@PAXIU?$less@PAX@std@@V?$allocator@U?$pair@QAXI@std@@@2@$0A@@std@@@std@@IAEPAU_Node@?$_Tree_nod@V?$_Tmap_traits@PAXIU?$less@PAX@std@@V?$allocator@U?$pair@QAXI@std@@@2@$0A@@std@@@2@XZ 1013e5a0 f i CIVW.obj
 0002:0008f780       ?_Buynode@?$_Tree@V?$_Tmap_traits@PAXIU?$less@PAX@std@@V?$allocator@U?$pair@QAXI@std@@@2@$0A@@std@@@std@@IAEPAU_Node@?$_Tree_nod@V?$_Tmap_traits@PAXIU?$less@PAX@std@@V?$allocator@U?$pair@QAXI@std@@@2@$0A@@std@@@2@PAU342@00ABU?$pair@QAXI@2@D@Z 1013e780 f i CIVW.obj
 0002:0008f8a0       ??0?$_Tree_ptr@V?$_Tmap_traits@PAXIU?$less@PAX@std@@V?$allocator@U?$pair@QAXI@std@@@2@$0A@@std@@@std@@IAE@ABU?$less@PAX@1@V?$allocator@U?$pair@QAXI@std@@@1@@Z 1013e8a0 f i CIVW.obj
 0002:0008f900       ?max_size@?$deque@UMvwResultMsg@VA@@V?$allocator@UMvwResultMsg@VA@@@std@@@std@@QBEIXZ 1013e900 f i CIVW.obj
