 test_libisssr_win32

 Timestamp is 59a5171e (Tue Aug 29 15:26:22 2017)

 Preferred load address is 00400000

 Start         Length     Name                   Class
 0001:00000000 00014dd8H .text                   CODE
 0001:00014de0 0000148fH .text$x                 CODE
 0002:00000000 00000360H .idata$5                DATA
 0002:00000360 00000004H .CRT$XCA                DATA
 0002:00000364 00000004H .CRT$XCAA               DATA
 0002:00000368 00000004H .CRT$XCZ                DATA
 0002:0000036c 00000004H .CRT$XIA                DATA
 0002:00000370 00000004H .CRT$XIAA               DATA
 0002:00000374 00000004H .CRT$XIY                DATA
 0002:00000378 00000004H .CRT$XIZ                DATA
 0002:00000380 00001590H .rdata                  DATA
 0002:00001910 00000098H .rdata$debug            DATA
 0002:000019a8 00000264H .rdata$r                DATA
 0002:00001c10 00000170H .rdata$sxdata           DATA
 0002:00001d80 00000004H .rtc$IAA                DATA
 0002:00001d84 00000004H .rtc$IZZ                DATA
 0002:00001d88 00000004H .rtc$TAA                DATA
 0002:00001d8c 00000004H .rtc$TZZ                DATA
 0002:00001d90 00001c2cH .xdata$x                DATA
 0002:000039bc 0000008cH .idata$2                DATA
 0002:00003a48 00000014H .idata$3                DATA
 0002:00003a5c 00000360H .idata$4                DATA
 0002:00003dbc 00002064H .idata$6                DATA
 0002:00005e20 00000000H .edata                  DATA
 0003:00000000 00029ab0H .data                   DATA
 0003:00029ab0 00000384H .bss                    DATA

  Address         Publics by Value              Rva+Base       Lib:Object

 0000:0000005c       ___safe_se_handler_count   0000005c     <absolute>
 0000:00000000       ___ImageBase               00400000     <linker-defined>
 0001:00000000       ?OpenDevice@CRecord@@QAEIPBUtWAVEFORMATEX@@@Z 00401000 f   Record.obj
 0001:00000250       ?CloseDevice@CRecord@@QAEIXZ 00401250 f   Record.obj
 0001:000002d0       ?StartRecord@CRecord@@QAEIXZ 004012d0 f   Record.obj
 0001:00000320       ?StopRecord@CRecord@@QAEIXZ 00401320 f   Record.obj
 0001:00000370       ?Uninitialize@CRecord@@AAEXXZ 00401370 f   Record.obj
 0001:000003c0       ??0CRecord@@QAE@XZ         004013c0 f   Record.obj
 0001:00000410       ?OnRecordHandle@CRecord@@MAEXPADK@Z 00401410 f   Record.obj
 0001:00000430       ?ThreadProc@CRecord@@MAEKXZ 00401430 f   Record.obj
 0001:00000520       ?OnEndRecord@@YAXXZ        00401520 f   test_libisssr_win32.obj
 0001:00000550       ?g_Proc_OnMsgProc@@YAXPBXII0@Z 00401550 f   test_libisssr_win32.obj
 0001:00000b90       ?LoadRes_char@@YAHPBDPAPADPAH@Z 00401b90 f   test_libisssr_win32.obj
 0001:00000d60       _wmain                     00401d60 f   test_libisssr_win32.obj
 0001:000019f0       ??0Recorder@@QAE@XZ        004029f0 f i test_libisssr_win32.obj
 0001:00001a30       ?OnRecordHandle@Recorder@@UAEXPADK@Z 00402a30 f i test_libisssr_win32.obj
 0001:00001af0       ??0CThread@@IAE@XZ         00402af0 f   Thread.obj
 0001:00001b30       ?SetThreadPriority@CThread@@IAEHH@Z 00402b30 f   Thread.obj
 0001:00001b60       ?GetThreadPriority@CThread@@IBEHXZ 00402b60 f   Thread.obj
 0001:00001b80       ?SuspendThread@CThread@@IAEKXZ 00402b80 f   Thread.obj
 0001:00001ba0       ?ResumeThread@CThread@@IAEKXZ 00402ba0 f   Thread.obj
 0001:00001bc0       ?StartThread@CThread@@IAEHXZ 00402bc0 f   Thread.obj
 0001:00001c10       ?ThreadProcS@CThread@@KGKPAX@Z 00402c10 f   Thread.obj
 0001:00001c3e       _PostQuitMessage@4         00402c3e f   user32:USER32.dll
 0001:00001c44       _GetMessageW@16            00402c44 f   user32:USER32.dll
 0001:00001c4a       _ISSSRUpLoadDict@12        00402c4a f   libisssr:libisssr.dll
 0001:00001c50       _ISSSRDestroy@4            00402c50 f   libisssr:libisssr.dll
 0001:00001c56       _ISSSRLocalNli@16          00402c56 f   libisssr:libisssr.dll
 0001:00001c5c       _ISSSRStop@4               00402c5c f   libisssr:libisssr.dll
 0001:00001c62       _ISSSREndAudioData@4       00402c62 f   libisssr:libisssr.dll
 0001:00001c68       _ISSSRStart@16             00402c68 f   libisssr:libisssr.dll
 0001:00001c6e       _ISSSRSetParam@12          00402c6e f   libisssr:libisssr.dll
 0001:00001c74       _ISSSRCreateEx@20          00402c74 f   libisssr:libisssr.dll
 0001:00001c7a       _ISSSRAppendAudioData@16   00402c7a f   libisssr:libisssr.dll
 0001:00001c80       ?ConvertUTF32toUTF16@VA@@YA?AW4ConversionResult@1@PBK0PA_W1W4ConversionFlags@1@@Z 00402c80 f   vacommon:VAString.obj
 0001:00001dd0       ?ConvertUTF16toUTF32@VA@@YA?AW4ConversionResult@1@PB_W0PAK1W4ConversionFlags@1@@Z 00402dd0 f   vacommon:VAString.obj
 0001:00001f00       ?ConvertUTF16toUTF8@VA@@YA?AW4ConversionResult@1@PB_W0PAD1W4ConversionFlags@1@@Z 00402f00 f   vacommon:VAString.obj
 0001:00002180       ?ConvertUTF32toUTF8@VA@@YA?AW4ConversionResult@1@PBK0PAD1W4ConversionFlags@1@@Z 00403180 f   vacommon:VAString.obj
 0001:00002370       ?isLegalUTF8Sequence@VA@@YA_NPBE0@Z 00403370 f   vacommon:VAString.obj
 0001:00002580       ?getNumBytesForUTF8@VA@@YAIE@Z 00403580 f   vacommon:VAString.obj
 0001:000025a0       ?isLegalUTF8String@VA@@YA_NPBE0@Z 004035a0 f   vacommon:VAString.obj
 0001:00002610       ?ConvertUTF8toUTF16@VA@@YA?AW4ConversionResult@1@PBD0PA_W1W4ConversionFlags@1@@Z 00403610 f   vacommon:VAString.obj
 0001:000028d0       ?ConvertUTF8toUTF32@VA@@YA?AW4ConversionResult@1@PBD0PAK1W4ConversionFlags@1@@Z 004038d0 f   vacommon:VAString.obj
 0001:00002af0       ?TrimLeft@VA@@YA?AV?$basic_string@DU?$char_traits@D@std@@V?$allocator@D@2@@std@@ABV23@@Z 00403af0 f   vacommon:VAString.obj
 0001:00002c00       ?TrimRight@VA@@YA?AV?$basic_string@DU?$char_traits@D@std@@V?$allocator@D@2@@std@@ABV23@@Z 00403c00 f   vacommon:VAString.obj
 0001:00002d20       ?Trim@VA@@YA?AV?$basic_string@DU?$char_traits@D@std@@V?$allocator@D@2@@std@@ABV23@@Z 00403d20 f   vacommon:VAString.obj
 0001:00002ec0       ?strlen_utf8@VA@@YAIPBD@Z  00403ec0 f   vacommon:VAString.obj
 0001:00002f20       ?split@VA@@YAAAV?$vector@V?$basic_string@DU?$char_traits@D@std@@V?$allocator@D@2@@std@@V?$allocator@V?$basic_string@DU?$char_traits@D@std@@V?$allocator@D@2@@std@@@2@@std@@ABV?$basic_string@DU?$char_traits@D@std@@V?$allocator@D@2@@3@DAAV23@@Z 00403f20 f   vacommon:VAString.obj
 0001:00003020       ?split@VA@@YA?AV?$vector@V?$basic_string@DU?$char_traits@D@std@@V?$allocator@D@2@@std@@V?$allocator@V?$basic_string@DU?$char_traits@D@std@@V?$allocator@D@2@@std@@@2@@std@@ABV?$basic_string@DU?$char_traits@D@std@@V?$allocator@D@2@@3@D@Z 00404020 f   vacommon:VAString.obj
 0001:000030b0       ?stringFormatV@VA@@YAXAAV?$basic_string@DU?$char_traits@D@std@@V?$allocator@D@2@@std@@PBDPAD@Z 004040b0 f   vacommon:VAString.obj
 0001:00003120       ?StringCchVPrintfA@@YGJPADIPBD0@Z 00404120 f i vacommon:VAString.obj
 0001:00003300       ?stringFormat@VA@@YAXAAV?$basic_string@DU?$char_traits@D@std@@V?$allocator@D@2@@std@@PBDZZ 00404300 f   vacommon:VAString.obj
 0001:00003340       ?stringFormatAppendV@VA@@YAXAAV?$basic_string@DU?$char_traits@D@std@@V?$allocator@D@2@@std@@PBDPAD@Z 00404340 f   vacommon:VAString.obj
 0001:00003410       ?stringFormatAppend@VA@@YAXAAV?$basic_string@DU?$char_traits@D@std@@V?$allocator@D@2@@std@@PBDZZ 00404410 f   vacommon:VAString.obj
 0001:00003450       ?wstringFormatV@VA@@YAXAAV?$basic_string@_WU?$char_traits@_W@std@@V?$allocator@_W@2@@std@@PB_WPAD@Z 00404450 f   vacommon:VAString.obj
 0001:000034c0       ?StringCchVPrintfW@@YGJPA_WIPB_WPAD@Z 004044c0 f i vacommon:VAString.obj
 0001:000036b0       ?wstringFormat@VA@@YAXAAV?$basic_string@_WU?$char_traits@_W@std@@V?$allocator@_W@2@@std@@PB_WZZ 004046b0 f   vacommon:VAString.obj
 0001:000036f0       ?wstringFormatAppendV@VA@@YAXAAV?$basic_string@_WU?$char_traits@_W@std@@V?$allocator@_W@2@@std@@PB_WPAD@Z 004046f0 f   vacommon:VAString.obj
 0001:000037c0       ?wstringFormatAppend@VA@@YAXAAV?$basic_string@_WU?$char_traits@_W@std@@V?$allocator@_W@2@@std@@PB_WZZ 004047c0 f   vacommon:VAString.obj
 0001:00003800       ?U16CharToU8Char@VA@@YAI_WPAD@Z 00404800 f   vacommon:VAString.obj
 0001:00003920       ?U8CharToU16Char@VA@@YAIPBDAA_W@Z 00404920 f   vacommon:VAString.obj
 0001:00003bd0       ?U32CharToU8Char@VA@@YAIKPAD@Z 00404bd0 f   vacommon:VAString.obj
 0001:00003d60       ?U8CharToU32Char@VA@@YAIPBDAAK@Z 00404d60 f   vacommon:VAString.obj
 0001:00004120       ?U32CharToU16Char@VA@@YAIKPA_W@Z 00405120 f   vacommon:VAString.obj
 0001:000041a0       ?U16CharToU32Char@VA@@YAIPB_WAAK@Z 004051a0 f   vacommon:VAString.obj
 0001:00004250       ?IsGBKChar@VA@@YAHG@Z      00405250 f   vacommon:VAString.obj
 0001:000042e0       ?IsUTF16Char@VA@@YAH_W@Z   004052e0 f   vacommon:VAString.obj
 0001:00004370       ?U16CharToGBKChar@VA@@YAI_WPAD@Z 00405370 f   vacommon:VAString.obj
 0001:000043f0       ?GBKCharToU16Char@VA@@YAIPBDAA_W@Z 004053f0 f   vacommon:VAString.obj
 0001:00004470       ??0U16StrToU8Str@VA@@QAE@PB_W@Z 00405470 f   vacommon:VAString.obj
 0001:00004520       ??0U8StrToU16Str@VA@@QAE@PBD@Z 00405520 f   vacommon:VAString.obj
 0001:000045e0       ??0U32StrToU8Str@VA@@QAE@PBK@Z 004055e0 f   vacommon:VAString.obj
 0001:00004690       ??1U16StrToU8Str@VA@@QAE@XZ 00405690 f   vacommon:VAString.obj
 0001:00004690       ??1U16StrToU32Str@VA@@QAE@XZ 00405690 f   vacommon:VAString.obj
 0001:00004690       ??1GBKStrToU16Str@VA@@QAE@XZ 00405690 f   vacommon:VAString.obj
 0001:00004690       ??1U32StrToU8Str@VA@@QAE@XZ 00405690 f   vacommon:VAString.obj
 0001:00004690       ??1U8StrToGBKStr@VA@@QAE@XZ 00405690 f   vacommon:VAString.obj
 0001:00004690       ??1U16StrToGBKStr@VA@@QAE@XZ 00405690 f   vacommon:VAString.obj
 0001:00004690       ??1U8StrToU16Str@VA@@QAE@XZ 00405690 f   vacommon:VAString.obj
 0001:00004690       ??1U8StrToU32Str@VA@@QAE@XZ 00405690 f   vacommon:VAString.obj
 0001:00004690       ??1GBKStrToU8Str@VA@@QAE@XZ 00405690 f   vacommon:VAString.obj
 0001:00004690       ??1U32StrToU16Str@VA@@QAE@XZ 00405690 f   vacommon:VAString.obj
 0001:000046c0       ??0U8StrToU32Str@VA@@QAE@PBD@Z 004056c0 f   vacommon:VAString.obj
 0001:00004790       ??0U32StrToU16Str@VA@@QAE@PBK@Z 00405790 f   vacommon:VAString.obj
 0001:00004850       ??0U16StrToU32Str@VA@@QAE@PB_W@Z 00405850 f   vacommon:VAString.obj
 0001:00004910       ??0GBKStrToU8Str@VA@@QAE@PBD@Z 00405910 f   vacommon:VAString.obj
 0001:00004a90       ??0GBKStrToU16Str@VA@@QAE@PBD@Z 00405a90 f   vacommon:VAString.obj
 0001:00004b70       ??0U8StrToGBKStr@VA@@QAE@PBD@Z 00405b70 f   vacommon:VAString.obj
 0001:00004cd0       ??0U16StrToGBKStr@VA@@QAE@PB_W@Z 00405cd0 f   vacommon:VAString.obj
 0001:00004d90       ?__StrRStr@U8String@VA@@ABEPADPBD0@Z 00405d90 f   vacommon:VAString.obj
 0001:00004e00       ?__Reverse@U8String@VA@@AAEDD@Z 00405e00 f   vacommon:VAString.obj
 0001:00004e60       ?__ConcatCopy@U8String@VA@@AAEXPBDI0I@Z 00405e60 f   vacommon:VAString.obj
 0001:00005000       ?StringCchCopyNA@@YGJPADIPBDI@Z 00406000 f i vacommon:VAString.obj
 0001:00005070       ?StringCchCatNA@@YGJPADIPBDI@Z 00406070 f i vacommon:VAString.obj
 0001:00005190       ??0U8String@VA@@QAE@ABV01@@Z 00406190 f   vacommon:VAString.obj
 0001:000052f0       ??0U8String@VA@@QAE@DI@Z   004062f0 f   vacommon:VAString.obj
 0001:00005450       ??0U8String@VA@@QAE@PBDI@Z 00406450 f   vacommon:VAString.obj
 0001:000055c0       ??0U8String@VA@@QAE@ABV?$basic_string@DU?$char_traits@D@std@@V?$allocator@D@2@@std@@@Z 004065c0 f   vacommon:VAString.obj
 0001:00005710       ??0U8String@VA@@QAE@ABVU16String@1@@Z 00406710 f   vacommon:VAString.obj
 0001:00005750       ??0U8String@VA@@QAE@PB_W@Z 00406750 f   vacommon:VAString.obj
 0001:00005790       ??4U8String@VA@@QAEABV01@ABV01@@Z 00406790 f   vacommon:VAString.obj
 0001:00005900       ??4U8String@VA@@QAEABV01@D@Z 00406900 f   vacommon:VAString.obj
 0001:00005a40       ??4U8String@VA@@QAEABV01@PBD@Z 00406a40 f   vacommon:VAString.obj
 0001:00005bb0       ??4U8String@VA@@QAEABV01@ABVU16String@1@@Z 00406bb0 f   vacommon:VAString.obj
 0001:00005be0       ??4U8String@VA@@QAEABV01@PB_W@Z 00406be0 f   vacommon:VAString.obj
 0001:00005c10       ??4U8String@VA@@QAEABV01@ABV?$basic_string@DU?$char_traits@D@std@@V?$allocator@D@2@@std@@@Z 00406c10 f   vacommon:VAString.obj
 0001:00005d80       ??YU8String@VA@@QAEABV01@ABV01@@Z 00406d80 f   vacommon:VAString.obj
 0001:00006030       ??YU8String@VA@@QAEABV01@D@Z 00407030 f   vacommon:VAString.obj
 0001:000062b0       ??YU8String@VA@@QAEABV01@PBD@Z 004072b0 f   vacommon:VAString.obj
 0001:00006570       ??AU8String@VA@@QBEDI@Z    00407570 f   vacommon:VAString.obj
 0001:00006570       ?GetAt@U8String@VA@@QBEDH@Z 00407570 f   vacommon:VAString.obj
 0001:00006590       ??AU8String@VA@@QAEAADI@Z  00407590 f   vacommon:VAString.obj
 0001:000065b0       ??1U8String@VA@@QAE@XZ     004075b0 f   vacommon:VAString.obj
 0001:000065b0       ?Empty@U8String@VA@@QAEXXZ 004075b0 f   vacommon:VAString.obj
 0001:00006610       ?Compare@U8String@VA@@QBEHPBD@Z 00407610 f   vacommon:VAString.obj
 0001:00006640       ?CompareNoCase@U8String@VA@@QBEHPBD@Z 00407640 f   vacommon:VAString.obj
 0001:00006670       ?Delete@U8String@VA@@QAEIII@Z 00407670 f   vacommon:VAString.obj
 0001:000066f0       ?Find@U8String@VA@@QBEHD@Z 004076f0 f   vacommon:VAString.obj
 0001:00006720       ?Find@U8String@VA@@QBEHPBD@Z 00407720 f   vacommon:VAString.obj
 0001:00006750       ?Find@U8String@VA@@QBEHDH@Z 00407750 f   vacommon:VAString.obj
 0001:000067c0       ?strchr@@YAPADPADH@Z       004077c0 f i vacommon:VAString.obj
 0001:000067f0       ?Find@U8String@VA@@QBEHPBDH@Z 004077f0 f   vacommon:VAString.obj
 0001:00006860       ?strstr@@YAPADPADPBD@Z     00407860 f i vacommon:VAString.obj
 0001:00006890       ?FindOneOf@U8String@VA@@QBEHPBD@Z 00407890 f   vacommon:VAString.obj
 0001:000068c0       ?FindOneOf@U8String@VA@@QBEHPBDH@Z 004078c0 f   vacommon:VAString.obj
 0001:00006930       ?strpbrk@@YAPADPADPBD@Z    00407930 f i vacommon:VAString.obj
 0001:00006960       ?Format@U8String@VA@@QAAXPBDZZ 00407960 f   vacommon:VAString.obj
 0001:00006990       ?FormatV@U8String@VA@@QAEXPBDPAD@Z 00407990 f   vacommon:VAString.obj
 0001:00006b10       ?Insert@U8String@VA@@QAEIID@Z 00407b10 f   vacommon:VAString.obj
 0001:00006c90       ?Insert@U8String@VA@@QAEIIPBD@Z 00407c90 f   vacommon:VAString.obj
 0001:00006e40       ?IsNull@U8String@VA@@QBE_NXZ 00407e40 f   vacommon:VAString.obj
 0001:00006e40       ?IsNull@U16String@VA@@QBE_NXZ 00407e40 f   vacommon:VAString.obj
 0001:00006e60       ??BU16String@VA@@QBE_NXZ   00407e60 f   vacommon:VAString.obj
 0001:00006e60       ??BU8String@VA@@QBE_NXZ    00407e60 f   vacommon:VAString.obj
 0001:00006e60       ?_Has_container@_Iterator_base_aux@std@@QBE_NXZ 00407e60 f   vacommon:VAString.obj
 0001:00006e60       ?_Has_container@_Iterator_base_secure@std@@QBE_NXZ 00407e60 f   vacommon:Manip.obj
 0001:00006e80       ?Left@U8String@VA@@QBE?AV12@H@Z 00407e80 f   vacommon:VAString.obj
 0001:00006ec0       ?MakeLower@U8String@VA@@QAEXXZ 00407ec0 f   vacommon:VAString.obj
 0001:00006f20       ?MakeReverse@U8String@VA@@QAEXXZ 00407f20 f   vacommon:VAString.obj
 0001:00006f80       ?MakeUpper@U8String@VA@@QAEXXZ 00407f80 f   vacommon:VAString.obj
 0001:00006fe0       ?Mid@U8String@VA@@QBE?AV12@I@Z 00407fe0 f   vacommon:VAString.obj
 0001:00007030       ?Mid@U8String@VA@@QBE?AV12@II@Z 00408030 f   vacommon:VAString.obj
 0001:000070c0       ?Remove@U8String@VA@@QAEID@Z 004080c0 f   vacommon:VAString.obj
 0001:00007120       ?Replace@U8String@VA@@QAEIDD@Z 00408120 f   vacommon:VAString.obj
 0001:00007170       ?ReverseFind@U8String@VA@@QBEHD@Z 00408170 f   vacommon:VAString.obj
 0001:000071a0       ?ReverseFind@U8String@VA@@QBEHPBD@Z 004081a0 f   vacommon:VAString.obj
 0001:000071d0       ?ReverseFind@U8String@VA@@QBEHDI@Z 004081d0 f   vacommon:VAString.obj
 0001:00007240       ?strrchr@@YAPADPADH@Z      00408240 f i vacommon:VAString.obj
 0001:00007270       ?ReverseFind@U8String@VA@@QBEHPBDI@Z 00408270 f   vacommon:VAString.obj
 0001:000072e0       ?Right@U8String@VA@@QBE?AV12@H@Z 004082e0 f   vacommon:VAString.obj
 0001:00007330       ?SetAt@U8String@VA@@QBEXID@Z 00408330 f   vacommon:VAString.obj
 0001:00007360       ?TrimLeft@U8String@VA@@QAEXXZ 00408360 f   vacommon:VAString.obj
 0001:00007400       ?TrimLeft@U8String@VA@@QAEXD@Z 00408400 f   vacommon:VAString.obj
 0001:000074a0       ?TrimLeft@U8String@VA@@QAEXPBD@Z 004084a0 f   vacommon:VAString.obj
 0001:00007550       ?TrimRight@U8String@VA@@QAEXXZ 00408550 f   vacommon:VAString.obj
 0001:000075f0       ?TrimRight@U8String@VA@@QAEXD@Z 004085f0 f   vacommon:VAString.obj
 0001:00007690       ?TrimRight@U8String@VA@@QAEXPBD@Z 00408690 f   vacommon:VAString.obj
 0001:00007750       ??8VA@@YA_NABVU8String@0@0@Z 00408750 f   vacommon:VAString.obj
 0001:00007780       ??8VA@@YA_NABVU8String@0@PBD@Z 00408780 f   vacommon:VAString.obj
 0001:000077b0       ??8VA@@YA_NPBDABVU8String@0@@Z 004087b0 f   vacommon:VAString.obj
 0001:000077e0       ??9VA@@YA_NABVU8String@0@0@Z 004087e0 f   vacommon:VAString.obj
 0001:00007810       ??9VA@@YA_NABVU8String@0@PBD@Z 00408810 f   vacommon:VAString.obj
 0001:00007840       ??9VA@@YA_NPBDABVU8String@0@@Z 00408840 f   vacommon:VAString.obj
 0001:00007870       ??MVA@@YA_NABVU8String@0@0@Z 00408870 f   vacommon:VAString.obj
 0001:000078a0       ??MVA@@YA_NABVU8String@0@PBD@Z 004088a0 f   vacommon:VAString.obj
 0001:000078d0       ??MVA@@YA_NPBDABVU8String@0@@Z 004088d0 f   vacommon:VAString.obj
 0001:00007900       ??OVA@@YA_NABVU8String@0@0@Z 00408900 f   vacommon:VAString.obj
 0001:00007930       ??OVA@@YA_NABVU8String@0@PBD@Z 00408930 f   vacommon:VAString.obj
 0001:00007960       ??OVA@@YA_NPBDABVU8String@0@@Z 00408960 f   vacommon:VAString.obj
 0001:00007990       ??NVA@@YA_NABVU8String@0@0@Z 00408990 f   vacommon:VAString.obj
 0001:000079c0       ??NVA@@YA_NABVU8String@0@PBD@Z 004089c0 f   vacommon:VAString.obj
 0001:000079f0       ??NVA@@YA_NPBDABVU8String@0@@Z 004089f0 f   vacommon:VAString.obj
 0001:00007a20       ??PVA@@YA_NABVU8String@0@0@Z 00408a20 f   vacommon:VAString.obj
 0001:00007a50       ??PVA@@YA_NABVU8String@0@PBD@Z 00408a50 f   vacommon:VAString.obj
 0001:00007a80       ??PVA@@YA_NPBDABVU8String@0@@Z 00408a80 f   vacommon:VAString.obj
 0001:00007ab0       ??HVA@@YA?AVU8String@0@ABV10@0@Z 00408ab0 f   vacommon:VAString.obj
 0001:00007b60       ??HVA@@YA?AVU8String@0@ABV10@D@Z 00408b60 f   vacommon:VAString.obj
 0001:00007c10       ??HVA@@YA?AVU8String@0@DABV10@@Z 00408c10 f   vacommon:VAString.obj
 0001:00007cc0       ??HVA@@YA?AVU8String@0@ABV10@PBD@Z 00408cc0 f   vacommon:VAString.obj
 0001:00007d70       ??HVA@@YA?AVU8String@0@PBDABV10@@Z 00408d70 f   vacommon:VAString.obj
 0001:00007e20       ?fromU16String@U8String@VA@@QAEXABVU16String@2@@Z 00408e20 f   vacommon:VAString.obj
 0001:00007fc0       ?fromU16String@U8String@VA@@QAEXPB_W@Z 00408fc0 f   vacommon:VAString.obj
 0001:00008160       ?__StrLen@U16String@VA@@ABEIPB_W@Z 00409160 f   vacommon:VAString.obj
 0001:00008190       ?__StrNCpy@U16String@VA@@ABEPA_WPA_WPB_WI@Z 00409190 f   vacommon:VAString.obj
 0001:000081c0       ?StringCchCopyNW@@YGJPA_WIPB_WI@Z 004091c0 f i vacommon:VAString.obj
 0001:000082e0       ?__StrCmp@U16String@VA@@ABEHPB_W0@Z 004092e0 f   vacommon:VAString.obj
 0001:00008310       ?__StrNoCaseCmp@U16String@VA@@ABEHPB_W0@Z 00409310 f   vacommon:VAString.obj
 0001:00008340       ?__StrChr@U16String@VA@@ABEPB_WPB_W_W@Z 00409340 f   vacommon:VAString.obj
 0001:00008370       ?__StrRChr@U16String@VA@@ABEPA_WPA_W_W@Z 00409370 f   vacommon:VAString.obj
 0001:000083a0       ?wcsrchr@@YAPA_WPA_W_W@Z   004093a0 f i vacommon:VAString.obj
 0001:000083d0       ?__StrStr@U16String@VA@@ABEPB_WPB_W0@Z 004093d0 f   vacommon:VAString.obj
 0001:00008400       ?__StrRStr@U16String@VA@@ABEPB_WPB_W0@Z 00409400 f   vacommon:VAString.obj
 0001:00008470       ?__StrPbrk@U16String@VA@@ABEPA_WPA_WPB_W@Z 00409470 f   vacommon:VAString.obj
 0001:000084a0       ?wcspbrk@@YAPA_WPA_WPB_W@Z 004094a0 f i vacommon:VAString.obj
 0001:000084d0       ?__ToLower@U16String@VA@@AAE_W_W@Z 004094d0 f   vacommon:VAString.obj
 0001:00008500       ?__ToUpper@U16String@VA@@AAE_W_W@Z 00409500 f   vacommon:VAString.obj
 0001:00008530       ?__Reverse@U16String@VA@@AAE_W_W@Z 00409530 f   vacommon:VAString.obj
 0001:00008590       ?__ConcatCopy@U16String@VA@@AAEXPB_WI0I@Z 00409590 f   vacommon:VAString.obj
 0001:00008730       ??0U16String@VA@@QAE@ABV01@@Z 00409730 f   vacommon:VAString.obj
 0001:000088a0       ??0U16String@VA@@QAE@_WI@Z 004098a0 f   vacommon:VAString.obj
 0001:00008a10       ??0U16String@VA@@QAE@PB_WI@Z 00409a10 f   vacommon:VAString.obj
 0001:00008b90       ??4U16String@VA@@QAEABV01@ABV01@@Z 00409b90 f   vacommon:VAString.obj
 0001:00008d10       ??4U16String@VA@@QAEABV01@_W@Z 00409d10 f   vacommon:VAString.obj
 0001:00008e50       ??4U16String@VA@@QAEABV01@PB_W@Z 00409e50 f   vacommon:VAString.obj
 0001:00008fd0       ??YU16String@VA@@QAEABV01@ABV01@@Z 00409fd0 f   vacommon:VAString.obj
 0001:000092a0       ??YU16String@VA@@QAEABV01@_W@Z 0040a2a0 f   vacommon:VAString.obj
 0001:00009540       ??YU16String@VA@@QAEABV01@PB_W@Z 0040a540 f   vacommon:VAString.obj
 0001:00009820       ??AU16String@VA@@QAEAA_WI@Z 0040a820 f   vacommon:VAString.obj
 0001:00009840       ?Empty@U16String@VA@@QAEXXZ 0040a840 f   vacommon:VAString.obj
 0001:00009840       ??1U16String@VA@@QAE@XZ    0040a840 f   vacommon:VAString.obj
 0001:000098a0       ?Compare@U16String@VA@@QBEHPB_W@Z 0040a8a0 f   vacommon:VAString.obj
 0001:000098d0       ?CompareNoCase@U16String@VA@@QBEHPB_W@Z 0040a8d0 f   vacommon:VAString.obj
 0001:00009900       ?Delete@U16String@VA@@QAEIHH@Z 0040a900 f   vacommon:VAString.obj
 0001:00009990       ?Find@U16String@VA@@QBEH_W@Z 0040a990 f   vacommon:VAString.obj
 0001:000099c0       ?Find@U16String@VA@@QBEHPB_W@Z 0040a9c0 f   vacommon:VAString.obj
 0001:000099f0       ?Find@U16String@VA@@QBEH_WH@Z 0040a9f0 f   vacommon:VAString.obj
 0001:00009a60       ?Find@U16String@VA@@QBEHPB_WH@Z 0040aa60 f   vacommon:VAString.obj
 0001:00009ad0       ?FindOneOf@U16String@VA@@QBEHPB_W@Z 0040aad0 f   vacommon:VAString.obj
 0001:00009b00       ?FindOneOf@U16String@VA@@QBEHPB_WH@Z 0040ab00 f   vacommon:VAString.obj
 0001:00009b70       ?Format@U16String@VA@@QAAXPB_WZZ 0040ab70 f   vacommon:VAString.obj
 0001:00009ba0       ?FormatV@U16String@VA@@QAEXPB_WPAD@Z 0040aba0 f   vacommon:VAString.obj
 0001:00009d30       ??AU16String@VA@@QBE_WI@Z  0040ad30 f   vacommon:VAString.obj
 0001:00009d30       ?GetAt@U16String@VA@@QBE_WH@Z 0040ad30 f   vacommon:VAString.obj
 0001:00009d60       ?Insert@U16String@VA@@QAEII_W@Z 0040ad60 f   vacommon:VAString.obj
 0001:00009ef0       ?Insert@U16String@VA@@QAEIIPB_W@Z 0040aef0 f   vacommon:VAString.obj
 0001:0000a0b0       ?IsEmpty@U8String@VA@@QBE_NXZ 0040b0b0 f   vacommon:VAString.obj
 0001:0000a0b0       ?IsEmpty@U16String@VA@@QBE_NXZ 0040b0b0 f   vacommon:VAString.obj
 0001:0000a0e0       ?Left@U16String@VA@@QBE?AV12@H@Z 0040b0e0 f   vacommon:VAString.obj
 0001:0000a120       ?MakeLower@U16String@VA@@QAEXXZ 0040b120 f   vacommon:VAString.obj
 0001:0000a180       ?MakeReverse@U16String@VA@@QAEXXZ 0040b180 f   vacommon:VAString.obj
 0001:0000a1e0       ?MakeUpper@U16String@VA@@QAEXXZ 0040b1e0 f   vacommon:VAString.obj
 0001:0000a240       ?Mid@U16String@VA@@QBE?AV12@I@Z 0040b240 f   vacommon:VAString.obj
 0001:0000a290       ?Mid@U16String@VA@@QBE?AV12@II@Z 0040b290 f   vacommon:VAString.obj
 0001:0000a320       ?Remove@U16String@VA@@QAEI_W@Z 0040b320 f   vacommon:VAString.obj
 0001:0000a380       ?Replace@U16String@VA@@QAEI_W0@Z 0040b380 f   vacommon:VAString.obj
 0001:0000a3e0       ?ReverseFind@U16String@VA@@QBEH_W@Z 0040b3e0 f   vacommon:VAString.obj
 0001:0000a410       ?ReverseFind@U16String@VA@@QBEHPB_W@Z 0040b410 f   vacommon:VAString.obj
 0001:0000a440       ?ReverseFind@U16String@VA@@QBEH_WH@Z 0040b440 f   vacommon:VAString.obj
 0001:0000a4b0       ?ReverseFind@U16String@VA@@QBEHPB_WH@Z 0040b4b0 f   vacommon:VAString.obj
 0001:0000a520       ?Right@U16String@VA@@QBE?AV12@H@Z 0040b520 f   vacommon:VAString.obj
 0001:0000a570       ?SetAt@U16String@VA@@QBEXI_W@Z 0040b570 f   vacommon:VAString.obj
 0001:0000a5a0       ?TrimLeft@U16String@VA@@QAEXXZ 0040b5a0 f   vacommon:VAString.obj
 0001:0000a640       ?TrimLeft@U16String@VA@@QAEX_W@Z 0040b640 f   vacommon:VAString.obj
 0001:0000a6e0       ?TrimLeft@U16String@VA@@QAEXPB_W@Z 0040b6e0 f   vacommon:VAString.obj
 0001:0000a7a0       ?TrimRight@U16String@VA@@QAEXXZ 0040b7a0 f   vacommon:VAString.obj
 0001:0000a840       ?TrimRight@U16String@VA@@QAEX_W@Z 0040b840 f   vacommon:VAString.obj
 0001:0000a8f0       ?TrimRight@U16String@VA@@QAEXPB_W@Z 0040b8f0 f   vacommon:VAString.obj
 0001:0000a9c0       ??8VA@@YA_NABVU16String@0@0@Z 0040b9c0 f   vacommon:VAString.obj
 0001:0000a9f0       ??8VA@@YA_NABVU16String@0@PB_W@Z 0040b9f0 f   vacommon:VAString.obj
 0001:0000aa20       ??8VA@@YA_NPB_WABVU16String@0@@Z 0040ba20 f   vacommon:VAString.obj
 0001:0000aa50       ??9VA@@YA_NABVU16String@0@0@Z 0040ba50 f   vacommon:VAString.obj
 0001:0000aa80       ??9VA@@YA_NABVU16String@0@PB_W@Z 0040ba80 f   vacommon:VAString.obj
 0001:0000aab0       ??9VA@@YA_NPB_WABVU16String@0@@Z 0040bab0 f   vacommon:VAString.obj
 0001:0000aae0       ??MVA@@YA_NABVU16String@0@0@Z 0040bae0 f   vacommon:VAString.obj
 0001:0000ab10       ??MVA@@YA_NABVU16String@0@PB_W@Z 0040bb10 f   vacommon:VAString.obj
 0001:0000ab40       ??MVA@@YA_NPB_WABVU16String@0@@Z 0040bb40 f   vacommon:VAString.obj
 0001:0000ab70       ??OVA@@YA_NABVU16String@0@0@Z 0040bb70 f   vacommon:VAString.obj
 0001:0000aba0       ??OVA@@YA_NABVU16String@0@PB_W@Z 0040bba0 f   vacommon:VAString.obj
 0001:0000abd0       ??OVA@@YA_NPB_WABVU16String@0@@Z 0040bbd0 f   vacommon:VAString.obj
 0001:0000ac00       ??NVA@@YA_NABVU16String@0@0@Z 0040bc00 f   vacommon:VAString.obj
 0001:0000ac30       ??NVA@@YA_NABVU16String@0@PB_W@Z 0040bc30 f   vacommon:VAString.obj
 0001:0000ac60       ??NVA@@YA_NPB_WABVU16String@0@@Z 0040bc60 f   vacommon:VAString.obj
 0001:0000ac90       ??PVA@@YA_NABVU16String@0@0@Z 0040bc90 f   vacommon:VAString.obj
 0001:0000acc0       ??PVA@@YA_NABVU16String@0@PB_W@Z 0040bcc0 f   vacommon:VAString.obj
 0001:0000acf0       ??PVA@@YA_NPB_WABVU16String@0@@Z 0040bcf0 f   vacommon:VAString.obj
 0001:0000ad20       ??HVA@@YA?AVU16String@0@ABV10@0@Z 0040bd20 f   vacommon:VAString.obj
 0001:0000add0       ??HVA@@YA?AVU16String@0@ABV10@_W@Z 0040bdd0 f   vacommon:VAString.obj
 0001:0000ae80       ??HVA@@YA?AVU16String@0@_WABV10@@Z 0040be80 f   vacommon:VAString.obj
 0001:0000af30       ??HVA@@YA?AVU16String@0@ABV10@PB_W@Z 0040bf30 f   vacommon:VAString.obj
 0001:0000afe0       ??HVA@@YA?AVU16String@0@PB_WABV10@@Z 0040bfe0 f   vacommon:VAString.obj
 0001:0000b090       ??0U16String@VA@@QAE@ABVU8String@1@@Z 0040c090 f   vacommon:VAString.obj
 0001:0000b0d0       ??0U16String@VA@@QAE@PBD@Z 0040c0d0 f   vacommon:VAString.obj
 0001:0000b110       ?fromU8String@U16String@VA@@QAEXABVU8String@2@@Z 0040c110 f   vacommon:VAString.obj
 0001:0000b2d0       ?fromU8String@U16String@VA@@QAEXPBD@Z 0040c2d0 f   vacommon:VAString.obj
 0001:0000b480       ??4U16String@VA@@QAEABV01@ABVU8String@1@@Z 0040c480 f   vacommon:VAString.obj
 0001:0000b4b0       ??4U16String@VA@@QAEABV01@PBD@Z 0040c4b0 f   vacommon:VAString.obj
 0001:0000b4e0       ??0?$vector@V?$basic_string@DU?$char_traits@D@std@@V?$allocator@D@2@@std@@V?$allocator@V?$basic_string@DU?$char_traits@D@std@@V?$allocator@D@2@@std@@@2@@std@@QAE@XZ 0040c4e0 f i vacommon:VAString.obj
 0001:0000b550       ??0?$vector@V?$basic_string@DU?$char_traits@D@std@@V?$allocator@D@2@@std@@V?$allocator@V?$basic_string@DU?$char_traits@D@std@@V?$allocator@D@2@@std@@@2@@std@@QAE@ABV01@@Z 0040c550 f i vacommon:VAString.obj
 0001:0000b650       ??1?$vector@V?$basic_string@DU?$char_traits@D@std@@V?$allocator@D@2@@std@@V?$allocator@V?$basic_string@DU?$char_traits@D@std@@V?$allocator@D@2@@std@@@2@@std@@QAE@XZ 0040c650 f i vacommon:VAString.obj
 0001:0000b6b0       ?push_back@?$vector@V?$basic_string@DU?$char_traits@D@std@@V?$allocator@D@2@@std@@V?$allocator@V?$basic_string@DU?$char_traits@D@std@@V?$allocator@D@2@@std@@@2@@std@@QAEXABV?$basic_string@DU?$char_traits@D@std@@V?$allocator@D@2@@2@@Z 0040c6b0 f i vacommon:VAString.obj
 0001:0000b730       ?capacity@?$vector@V?$basic_string@DU?$char_traits@D@std@@V?$allocator@D@2@@std@@V?$allocator@V?$basic_string@DU?$char_traits@D@std@@V?$allocator@D@2@@std@@@2@@std@@QBEIXZ 0040c730 f i vacommon:VAString.obj
 0001:0000b770       ?begin@?$vector@V?$basic_string@DU?$char_traits@D@std@@V?$allocator@D@2@@std@@V?$allocator@V?$basic_string@DU?$char_traits@D@std@@V?$allocator@D@2@@std@@@2@@std@@QBE?AV?$_Vector_const_iterator@V?$basic_string@DU?$char_traits@D@std@@V?$allocator@D@2@@std@@V?$allocator@V?$basic_string@DU?$char_traits@D@std@@V?$allocator@D@2@@std@@@2@@2@XZ 0040c770 f i vacommon:VAString.obj
 0001:0000b7a0       ?end@?$vector@V?$basic_string@DU?$char_traits@D@std@@V?$allocator@D@2@@std@@V?$allocator@V?$basic_string@DU?$char_traits@D@std@@V?$allocator@D@2@@std@@@2@@std@@QAE?AV?$_Vector_iterator@V?$basic_string@DU?$char_traits@D@std@@V?$allocator@D@2@@std@@V?$allocator@V?$basic_string@DU?$char_traits@D@std@@V?$allocator@D@2@@std@@@2@@2@XZ 0040c7a0 f i vacommon:VAString.obj
 0001:0000b7d0       ?end@?$vector@V?$basic_string@DU?$char_traits@D@std@@V?$allocator@D@2@@std@@V?$allocator@V?$basic_string@DU?$char_traits@D@std@@V?$allocator@D@2@@std@@@2@@std@@QBE?AV?$_Vector_const_iterator@V?$basic_string@DU?$char_traits@D@std@@V?$allocator@D@2@@std@@V?$allocator@V?$basic_string@DU?$char_traits@D@std@@V?$allocator@D@2@@std@@@2@@2@XZ 0040c7d0 f i vacommon:VAString.obj
 0001:0000b800       ?size@?$vector@V?$basic_string@DU?$char_traits@D@std@@V?$allocator@D@2@@std@@V?$allocator@V?$basic_string@DU?$char_traits@D@std@@V?$allocator@D@2@@std@@@2@@std@@QBEIXZ 0040c800 f i vacommon:VAString.obj
 0001:0000b830       ?insert@?$vector@V?$basic_string@DU?$char_traits@D@std@@V?$allocator@D@2@@std@@V?$allocator@V?$basic_string@DU?$char_traits@D@std@@V?$allocator@D@2@@std@@@2@@std@@QAE?AV?$_Vector_iterator@V?$basic_string@DU?$char_traits@D@std@@V?$allocator@D@2@@std@@V?$allocator@V?$basic_string@DU?$char_traits@D@std@@V?$allocator@D@2@@std@@@2@@2@V?$_Vector_const_iterator@V?$basic_string@DU?$char_traits@D@std@@V?$allocator@D@2@@std@@V?$allocator@V?$basic_string@DU?$char_traits@D@std@@V?$allocator@D@2@@std@@@2@@2@ABV?$basic_string@DU?$char_traits@D@std@@V?$allocator@D@2@@2@@Z 0040c830 f i vacommon:VAString.obj
 0001:0000b8b0       ?_Buy@?$vector@V?$basic_string@DU?$char_traits@D@std@@V?$allocator@D@2@@std@@V?$allocator@V?$basic_string@DU?$char_traits@D@std@@V?$allocator@D@2@@std@@@2@@std@@IAE_NI@Z 0040c8b0 f i vacommon:VAString.obj
 0001:0000b940       ?_Tidy@?$vector@V?$basic_string@DU?$char_traits@D@std@@V?$allocator@D@2@@std@@V?$allocator@V?$basic_string@DU?$char_traits@D@std@@V?$allocator@D@2@@std@@@2@@std@@IAEXXZ 0040c940 f i vacommon:VAString.obj
 0001:0000b9c0       ?_Ufill@?$vector@V?$basic_string@DU?$char_traits@D@std@@V?$allocator@D@2@@std@@V?$allocator@V?$basic_string@DU?$char_traits@D@std@@V?$allocator@D@2@@std@@@2@@std@@IAEPAV?$basic_string@DU?$char_traits@D@std@@V?$allocator@D@2@@2@PAV32@IABV32@@Z 0040c9c0 f i vacommon:VAString.obj
 0001:0000ba00       ??0?$_Vector_val@V?$basic_string@DU?$char_traits@D@std@@V?$allocator@D@2@@std@@V?$allocator@V?$basic_string@DU?$char_traits@D@std@@V?$allocator@D@2@@std@@@2@@std@@IAE@V?$allocator@V?$basic_string@DU?$char_traits@D@std@@V?$allocator@D@2@@std@@@1@@Z 0040ca00 f i vacommon:VAString.obj
 0001:0000ba00       ??0?$_Deque_map@V?$basic_string@DU?$char_traits@D@std@@V?$allocator@D@2@@std@@V?$allocator@V?$basic_string@DU?$char_traits@D@std@@V?$allocator@D@2@@std@@@2@@std@@IAE@V?$allocator@V?$basic_string@DU?$char_traits@D@std@@V?$allocator@D@2@@std@@@1@@Z 0040ca00 f i vacommon:Path.obj
 0001:0000ba00       ??0?$_Vector_val@IV?$allocator@I@std@@@std@@IAE@V?$allocator@I@1@@Z 0040ca00 f i vacommon:Manip.obj
 0001:0000ba40       ??1?$_Container_base_aux_alloc_real@V?$allocator@I@std@@@std@@IAE@XZ 0040ca40 f i vacommon:Manip.obj
 0001:0000ba40       ??1?$_Container_base_aux_alloc_real@V?$allocator@V?$basic_string@DU?$char_traits@D@std@@V?$allocator@D@2@@std@@@std@@@std@@IAE@XZ 0040ca40 f i vacommon:VAString.obj
 0001:0000ba40       ??1?$_Container_base_aux_alloc_real@V?$allocator@_N@std@@@std@@IAE@XZ 0040ca40 f i vacommon:Manip.obj
 0001:0000bab0       ??1_Container_base_aux@std@@QAE@XZ 0040cab0 f i vacommon:VAString.obj
 0001:0000bad0       ?begin@?$vector@V?$basic_string@DU?$char_traits@D@std@@V?$allocator@D@2@@std@@V?$allocator@V?$basic_string@DU?$char_traits@D@std@@V?$allocator@D@2@@std@@@2@@std@@QAE?AV?$_Vector_iterator@V?$basic_string@DU?$char_traits@D@std@@V?$allocator@D@2@@std@@V?$allocator@V?$basic_string@DU?$char_traits@D@std@@V?$allocator@D@2@@std@@@2@@2@XZ 0040cad0 f i vacommon:VAString.obj
 0001:0000bb00       ?max_size@?$vector@V?$basic_string@DU?$char_traits@D@std@@V?$allocator@D@2@@std@@V?$allocator@V?$basic_string@DU?$char_traits@D@std@@V?$allocator@D@2@@std@@@2@@std@@QBEIXZ 0040cb00 f i vacommon:VAString.obj
 0001:0000bb20       ?_Destroy@?$vector@V?$basic_string@DU?$char_traits@D@std@@V?$allocator@D@2@@std@@V?$allocator@V?$basic_string@DU?$char_traits@D@std@@V?$allocator@D@2@@std@@@2@@std@@IAEXPAV?$basic_string@DU?$char_traits@D@std@@V?$allocator@D@2@@2@0@Z 0040cb20 f i vacommon:VAString.obj
 0001:0000bb50       ?_Insert_n@?$vector@V?$basic_string@DU?$char_traits@D@std@@V?$allocator@D@2@@std@@V?$allocator@V?$basic_string@DU?$char_traits@D@std@@V?$allocator@D@2@@std@@@2@@std@@IAEXV?$_Vector_const_iterator@V?$basic_string@DU?$char_traits@D@std@@V?$allocator@D@2@@std@@V?$allocator@V?$basic_string@DU?$char_traits@D@std@@V?$allocator@D@2@@std@@@2@@2@IABV?$basic_string@DU?$char_traits@D@std@@V?$allocator@D@2@@2@@Z 0040cb50 f i vacommon:VAString.obj
 0001:0000bf10       ?_Xlen@?$vector@IV?$allocator@I@std@@@std@@KAXXZ 0040cf10 f i vacommon:Manip.obj
 0001:0000bf10       ?_Xlen@?$vector@V?$basic_string@DU?$char_traits@D@std@@V?$allocator@D@2@@std@@V?$allocator@V?$basic_string@DU?$char_traits@D@std@@V?$allocator@D@2@@std@@@2@@std@@KAXXZ 0040cf10 f i vacommon:VAString.obj
 0001:0000bfa0       ??0length_error@std@@QAE@ABV?$basic_string@DU?$char_traits@D@std@@V?$allocator@D@2@@1@@Z 0040cfa0 f i vacommon:VAString.obj
 0001:0000bfd0       ??0logic_error@std@@QAE@ABV?$basic_string@DU?$char_traits@D@std@@V?$allocator@D@2@@1@@Z 0040cfd0 f i vacommon:VAString.obj
 0001:0000c050       ?what@logic_error@std@@UBEPBDXZ 0040d050 f i vacommon:VAString.obj
 0001:0000c070       ??_Elogic_error@std@@UAEPAXI@Z 0040d070 f i vacommon:VAString.obj
 0001:0000c070       ??_Glogic_error@std@@UAEPAXI@Z 0040d070 f i vacommon:VAString.obj
 0001:0000c0b0       ??1logic_error@std@@UAE@XZ 0040d0b0 f i vacommon:VAString.obj
 0001:0000c0f0       ??1length_error@std@@UAE@XZ 0040d0f0 f i vacommon:VAString.obj
 0001:0000c120       ??_Elength_error@std@@UAEPAXI@Z 0040d120 f i vacommon:VAString.obj
 0001:0000c120       ??_Glength_error@std@@UAEPAXI@Z 0040d120 f i vacommon:VAString.obj
 0001:0000c160       ??0logic_error@std@@QAE@ABV01@@Z 0040d160 f i vacommon:VAString.obj
 0001:0000c1e0       ??2@YAPAXIPAX@Z            0040d1e0 f i vacommon:VAString.obj
 0001:0000c200       ??0_Aux_cont@std@@QAE@QBV_Container_base_aux@1@@Z 0040d200 f i vacommon:VAString.obj
 0001:0000c220       ?allocate@?$allocator@V?$basic_string@DU?$char_traits@D@std@@V?$allocator@D@2@@std@@@std@@QAEPAV?$basic_string@DU?$char_traits@D@std@@V?$allocator@D@2@@2@I@Z 0040d220 f i vacommon:VAString.obj
 0001:0000c250       ??0?$_Vector_const_iterator@V?$basic_string@DU?$char_traits@D@std@@V?$allocator@D@2@@std@@V?$allocator@V?$basic_string@DU?$char_traits@D@std@@V?$allocator@D@2@@std@@@2@@std@@QAE@PAV?$basic_string@DU?$char_traits@D@std@@V?$allocator@D@2@@1@PBV_Container_base_aux@1@@Z 0040d250 f i vacommon:VAString.obj
 0001:0000c2b0       ?_Set_container@_Iterator_base_aux@std@@QAEXQBV_Container_base_aux@2@@Z 0040d2b0 f i vacommon:VAString.obj
 0001:0000c2d0       ??G?$_Vector_const_iterator@V?$basic_string@DU?$char_traits@D@std@@V?$allocator@D@2@@std@@V?$allocator@V?$basic_string@DU?$char_traits@D@std@@V?$allocator@D@2@@std@@@2@@std@@QBEHABV01@@Z 0040d2d0 f i vacommon:VAString.obj
 0001:0000c330       ?_Same_container@_Iterator_base_secure@std@@QBE_NABV12@@Z 0040d330 f i vacommon:Manip.obj
 0001:0000c330       ?_Same_container@_Iterator_base_aux@std@@QBE_NABV12@@Z 0040d330 f i vacommon:VAString.obj
 0001:0000c360       ??0?$_Vector_iterator@V?$basic_string@DU?$char_traits@D@std@@V?$allocator@D@2@@std@@V?$allocator@V?$basic_string@DU?$char_traits@D@std@@V?$allocator@D@2@@std@@@2@@std@@QAE@PAV?$basic_string@DU?$char_traits@D@std@@V?$allocator@D@2@@1@PBV_Container_base_aux@1@@Z 0040d360 f i vacommon:VAString.obj
 0001:0000c390       ??H?$_Vector_iterator@V?$basic_string@DU?$char_traits@D@std@@V?$allocator@D@2@@std@@V?$allocator@V?$basic_string@DU?$char_traits@D@std@@V?$allocator@D@2@@std@@@2@@std@@QBE?AV01@H@Z 0040d390 f i vacommon:VAString.obj
 0001:0000c3d0       ??0length_error@std@@QAE@ABV01@@Z 0040d3d0 f i vacommon:VAString.obj
 0001:0000c400       ??0_Iterator_base_aux@std@@QAE@XZ 0040d400 f i vacommon:VAString.obj
 0001:0000c420       ?max_size@?$allocator@V?$basic_string@DU?$char_traits@D@std@@V?$allocator@D@2@@std@@@std@@QBEIXZ 0040d420 f i vacommon:VAString.obj
 0001:0000c460       ?allocate@?$allocator@V_Aux_cont@std@@@std@@QAEPAV_Aux_cont@2@I@Z 0040d460 f i vacommon:VAString.obj
 0001:0000c460       ?allocate@?$allocator@PAV?$basic_string@DU?$char_traits@D@std@@V?$allocator@D@2@@std@@@std@@QAEPAPAV?$basic_string@DU?$char_traits@D@std@@V?$allocator@D@2@@2@I@Z 0040d460 f i vacommon:Path.obj
 0001:0000c460       ?allocate@?$allocator@I@std@@QAEPAII@Z 0040d460 f i vacommon:Manip.obj
 0001:0000c490       ??Y?$_Vector_iterator@V?$basic_string@DU?$char_traits@D@std@@V?$allocator@D@2@@std@@V?$allocator@V?$basic_string@DU?$char_traits@D@std@@V?$allocator@D@2@@std@@@2@@std@@QAEAAV01@H@Z 0040d490 f i vacommon:VAString.obj
 0001:0000c4c0       ??Y?$_Vector_const_iterator@V?$basic_string@DU?$char_traits@D@std@@V?$allocator@D@2@@std@@V?$allocator@V?$basic_string@DU?$char_traits@D@std@@V?$allocator@D@2@@std@@@2@@std@@QAEAAV01@H@Z 0040d4c0 f i vacommon:VAString.obj
 0001:0000c540       ?_Getmycont@_Iterator_base_aux@std@@QBEPBV_Container_base_aux@2@XZ 0040d540 f i vacommon:VAString.obj
 0001:0000c580       ?_Getcont@_Aux_cont@std@@QBEPBV_Container_base_aux@2@XZ 0040d580 f i vacommon:VAString.obj
 0001:0000c580       ??BGBKStrToU16Str@VA@@QBEPB_WXZ 0040d580 f i vacommon:VAString.obj
 0001:0000c580       ?GetBuffer@U16String@VA@@QBEPB_WXZ 0040d580 f i vacommon:VAString.obj
 0001:0000c580       ??BGBKStrToU8Str@VA@@QBEPBDXZ 0040d580 f i vacommon:VAString.obj
 0001:0000c580       ??BU32StrToU16Str@VA@@QBEPB_WXZ 0040d580 f i vacommon:VAString.obj
 0001:0000c580       ??BU8StrToU16Str@VA@@QBEPB_WXZ 0040d580 f i vacommon:VAString.obj
 0001:0000c580       ??BU8String@VA@@QBEPBEXZ   0040d580 f i vacommon:VAString.obj
 0001:0000c580       ??BU8String@VA@@QBEPAEXZ   0040d580 f i vacommon:VAString.obj
 0001:0000c580       ??BU32StrToU8Str@VA@@QBEPBDXZ 0040d580 f i vacommon:VAString.obj
 0001:0000c580       ??BU8StrToU32Str@VA@@QBEPBKXZ 0040d580 f i vacommon:VAString.obj
 0001:0000c580       ??BU8String@VA@@QBEPADXZ   0040d580 f i vacommon:VAString.obj
 0001:0000c580       ?GetBuffer@U8String@VA@@QBEPBDXZ 0040d580 f i vacommon:VAString.obj
 0001:0000c580       ??BU8StrToGBKStr@VA@@QBEPBDXZ 0040d580 f i vacommon:VAString.obj
 0001:0000c580       ??BU16StrToGBKStr@VA@@QBEPBDXZ 0040d580 f i vacommon:VAString.obj
 0001:0000c580       ??BU16String@VA@@QBEPB_WXZ 0040d580 f i vacommon:VAString.obj
 0001:0000c580       ??BU16StrToU8Str@VA@@QBEPBDXZ 0040d580 f i vacommon:VAString.obj
 0001:0000c580       ??BU8String@VA@@QBEPBDXZ   0040d580 f i vacommon:VAString.obj
 0001:0000c580       ??BU16String@VA@@QBEPA_WXZ 0040d580 f i vacommon:VAString.obj
 0001:0000c580       ??BU16StrToU32Str@VA@@QBEPBKXZ 0040d580 f i vacommon:VAString.obj
 0001:0000c5a0       ??$ustrlen@K@VA@@YAIPBK@Z  0040d5a0 f i vacommon:VAString.obj
 0001:0000c5e0       ??$?6U?$char_traits@D@std@@@std@@YAAAV?$basic_ostream@DU?$char_traits@D@std@@@0@AAV10@PBD@Z 0040d5e0 f i vacommon:VAString.obj
 0001:0000c8f0       ??0sentry@?$basic_ostream@DU?$char_traits@D@std@@@std@@QAE@AAV12@@Z 0040d8f0 f i vacommon:VAString.obj
 0001:0000c9c0       ??1sentry@?$basic_ostream@DU?$char_traits@D@std@@@std@@QAE@XZ 0040d9c0 f i vacommon:VAString.obj
 0001:0000ca30       ??Bsentry@?$basic_ostream@DU?$char_traits@D@std@@@std@@QBE_NXZ 0040da30 f i vacommon:VAString.obj
 0001:0000ca50       ??0_Sentry_base@?$basic_ostream@DU?$char_traits@D@std@@@std@@QAE@AAV12@@Z 0040da50 f i vacommon:VAString.obj
 0001:0000cab0       ??1_Sentry_base@?$basic_ostream@DU?$char_traits@D@std@@@std@@QAE@XZ 0040dab0 f i vacommon:VAString.obj
 0001:0000cb00       ??$_Ucopy@V?$_Vector_const_iterator@V?$basic_string@DU?$char_traits@D@std@@V?$allocator@D@2@@std@@V?$allocator@V?$basic_string@DU?$char_traits@D@std@@V?$allocator@D@2@@std@@@2@@std@@@?$vector@V?$basic_string@DU?$char_traits@D@std@@V?$allocator@D@2@@std@@V?$allocator@V?$basic_string@DU?$char_traits@D@std@@V?$allocator@D@2@@std@@@2@@std@@IAEPAV?$basic_string@DU?$char_traits@D@std@@V?$allocator@D@2@@1@V?$_Vector_const_iterator@V?$basic_string@DU?$char_traits@D@std@@V?$allocator@D@2@@std@@V?$allocator@V?$basic_string@DU?$char_traits@D@std@@V?$allocator@D@2@@std@@@2@@1@0PAV21@@Z 0040db00 f i vacommon:VAString.obj
 0001:0000cb40       ??$unchecked_uninitialized_fill_n@PAV?$basic_string@DU?$char_traits@D@std@@V?$allocator@D@2@@std@@IV12@V?$allocator@V?$basic_string@DU?$char_traits@D@std@@V?$allocator@D@2@@std@@@2@@stdext@@YAXPAV?$basic_string@DU?$char_traits@D@std@@V?$allocator@D@2@@std@@IABV12@AAV?$allocator@V?$basic_string@DU?$char_traits@D@std@@V?$allocator@D@2@@std@@@2@@Z 0040db40 f i vacommon:VAString.obj
 0001:0000cb90       ??$_Destroy_range@V?$allocator@V?$basic_string@DU?$char_traits@D@std@@V?$allocator@D@2@@std@@@std@@@std@@YAXPAV?$basic_string@DU?$char_traits@D@std@@V?$allocator@D@2@@0@0AAV?$allocator@V?$basic_string@DU?$char_traits@D@std@@V?$allocator@D@2@@std@@@0@@Z 0040db90 f i vacommon:VAString.obj
 0001:0000cbd0       ??$_Umove@PAV?$basic_string@DU?$char_traits@D@std@@V?$allocator@D@2@@std@@@?$vector@V?$basic_string@DU?$char_traits@D@std@@V?$allocator@D@2@@std@@V?$allocator@V?$basic_string@DU?$char_traits@D@std@@V?$allocator@D@2@@std@@@2@@std@@IAEPAV?$basic_string@DU?$char_traits@D@std@@V?$allocator@D@2@@1@PAV21@00@Z 0040dbd0 f i vacommon:VAString.obj
 0001:0000cc00       ??$fill@PAV?$basic_string@DU?$char_traits@D@std@@V?$allocator@D@2@@std@@V12@@std@@YAXPAV?$basic_string@DU?$char_traits@D@std@@V?$allocator@D@2@@0@0ABV10@@Z 0040dc00 f i vacommon:VAString.obj
 0001:0000cc40       ??$_Unchecked_move_backward@PAV?$basic_string@DU?$char_traits@D@std@@V?$allocator@D@2@@std@@PAV12@@stdext@@YAPAV?$basic_string@DU?$char_traits@D@std@@V?$allocator@D@2@@std@@PAV12@00@Z 0040dc40 f i vacommon:VAString.obj
 0001:0000ccb0       ??$_Allocate@V?$basic_string@DU?$char_traits@D@std@@V?$allocator@D@2@@std@@@std@@YAPAV?$basic_string@DU?$char_traits@D@std@@V?$allocator@D@2@@0@IPAV10@@Z 0040dcb0 f i vacommon:VAString.obj
 0001:0000cd10       ??0bad_alloc@std@@QAE@PBD@Z 0040dd10 f i vacommon:VAString.obj
 0001:0000cd40       ??1bad_alloc@std@@UAE@XZ   0040dd40 f i vacommon:VAString.obj
 0001:0000cd70       ??_Ebad_alloc@std@@UAEPAXI@Z 0040dd70 f i vacommon:VAString.obj
 0001:0000cd70       ??_Gbad_alloc@std@@UAEPAXI@Z 0040dd70 f i vacommon:VAString.obj
 0001:0000cdb0       ??$_Allocate@PAV?$basic_string@DU?$char_traits@D@std@@V?$allocator@D@2@@std@@@std@@YAPAPAV?$basic_string@DU?$char_traits@D@std@@V?$allocator@D@2@@0@IPAPAV10@@Z 0040ddb0 f i vacommon:Path.obj
 0001:0000cdb0       ??$_Allocate@I@std@@YAPAIIPAI@Z 0040ddb0 f i vacommon:Manip.obj
 0001:0000cdb0       ??$_Allocate@V_Aux_cont@std@@@std@@YAPAV_Aux_cont@0@IPAV10@@Z 0040ddb0 f i vacommon:VAString.obj
 0001:0000ce10       ??0bad_alloc@std@@QAE@ABV01@@Z 0040de10 f i vacommon:VAString.obj
 0001:0000ce40       ??$unchecked_uninitialized_copy@V?$_Vector_const_iterator@V?$basic_string@DU?$char_traits@D@std@@V?$allocator@D@2@@std@@V?$allocator@V?$basic_string@DU?$char_traits@D@std@@V?$allocator@D@2@@std@@@2@@std@@PAV?$basic_string@DU?$char_traits@D@std@@V?$allocator@D@2@@2@V?$allocator@V?$basic_string@DU?$char_traits@D@std@@V?$allocator@D@2@@std@@@2@@stdext@@YAPAV?$basic_string@DU?$char_traits@D@std@@V?$allocator@D@2@@std@@V?$_Vector_const_iterator@V?$basic_string@DU?$char_traits@D@std@@V?$allocator@D@2@@std@@V?$allocator@V?$basic_string@DU?$char_traits@D@std@@V?$allocator@D@2@@std@@@2@@2@0PAV12@AAV?$allocator@V?$basic_string@DU?$char_traits@D@std@@V?$allocator@D@2@@std@@@2@@Z 0040de40 f i vacommon:VAString.obj
 0001:0000cea0       ??$_Uninit_fill_n@PAV?$basic_string@DU?$char_traits@D@std@@V?$allocator@D@2@@std@@IV12@V?$allocator@V?$basic_string@DU?$char_traits@D@std@@V?$allocator@D@2@@std@@@2@@std@@YAXPAV?$basic_string@DU?$char_traits@D@std@@V?$allocator@D@2@@0@IABV10@AAV?$allocator@V?$basic_string@DU?$char_traits@D@std@@V?$allocator@D@2@@std@@@0@U_Nonscalar_ptr_iterator_tag@0@U_Range_checked_iterator_tag@0@@Z 0040dea0 f i vacommon:VAString.obj
 0001:0000cf60       ??$_Destroy_range@V?$allocator@V?$basic_string@DU?$char_traits@D@std@@V?$allocator@D@2@@std@@@std@@@std@@YAXPAV?$basic_string@DU?$char_traits@D@std@@V?$allocator@D@2@@0@0AAV?$allocator@V?$basic_string@DU?$char_traits@D@std@@V?$allocator@D@2@@std@@@0@U_Nonscalar_ptr_iterator_tag@0@@Z 0040df60 f i vacommon:VAString.obj
 0001:0000cfa0       ??$_Unchecked_uninitialized_move@PAV?$basic_string@DU?$char_traits@D@std@@V?$allocator@D@2@@std@@PAV12@V?$allocator@V?$basic_string@DU?$char_traits@D@std@@V?$allocator@D@2@@std@@@2@@stdext@@YAPAV?$basic_string@DU?$char_traits@D@std@@V?$allocator@D@2@@std@@PAV12@00AAV?$allocator@V?$basic_string@DU?$char_traits@D@std@@V?$allocator@D@2@@std@@@2@@Z 0040dfa0 f i vacommon:VAString.obj
 0001:0000d000       ??$_Checked_base@PAPAV?$basic_string@DU?$char_traits@D@std@@V?$allocator@D@2@@std@@@std@@YAPAPAV?$basic_string@DU?$char_traits@D@std@@V?$allocator@D@2@@0@AAPAPAV10@@Z 0040e000 f i vacommon:Path.obj
 0001:0000d000       ??$_Checked_base@PAV?$basic_string@DU?$char_traits@D@std@@V?$allocator@D@2@@std@@@std@@YAPAV?$basic_string@DU?$char_traits@D@std@@V?$allocator@D@2@@0@AAPAV10@@Z 0040e000 f i vacommon:VAString.obj
 0001:0000d000       ??$_Checked_base@PAI@std@@YAPAIAAPAI@Z 0040e000 f i vacommon:Manip.obj
 0001:0000d030       ??$_Fill@PAV?$basic_string@DU?$char_traits@D@std@@V?$allocator@D@2@@std@@V12@@std@@YAXPAV?$basic_string@DU?$char_traits@D@std@@V?$allocator@D@2@@0@0ABV10@@Z 0040e030 f i vacommon:VAString.obj
 0001:0000d070       ??$_Ptr_cat@V?$_Vector_const_iterator@V?$basic_string@DU?$char_traits@D@std@@V?$allocator@D@2@@std@@V?$allocator@V?$basic_string@DU?$char_traits@D@std@@V?$allocator@D@2@@std@@@2@@std@@PAV?$basic_string@DU?$char_traits@D@std@@V?$allocator@D@2@@2@@std@@YA?AU_Nonscalar_ptr_iterator_tag@0@AAV?$_Vector_const_iterator@V?$basic_string@DU?$char_traits@D@std@@V?$allocator@D@2@@std@@V?$allocator@V?$basic_string@DU?$char_traits@D@std@@V?$allocator@D@2@@std@@@2@@0@AAPAV?$basic_string@DU?$char_traits@D@std@@V?$allocator@D@2@@0@@Z 0040e070 f i vacommon:VAString.obj
 0001:0000d070       ??$_Ptr_cat@PAIPAI@std@@YA?AU_Scalar_ptr_iterator_tag@0@AAPAI0@Z 0040e070 f i vacommon:Manip.obj
 0001:0000d070       ??$_Ptr_cat@PAPAV?$basic_string@DU?$char_traits@D@std@@V?$allocator@D@2@@std@@PAPAV12@@std@@YA?AU_Scalar_ptr_iterator_tag@0@AAPAPAV?$basic_string@DU?$char_traits@D@std@@V?$allocator@D@2@@0@0@Z 0040e070 f i vacommon:Path.obj
 0001:0000d070       ??$_Ptr_cat@PAV?$basic_string@DU?$char_traits@D@std@@V?$allocator@D@2@@std@@PAV12@@std@@YA?AU_Nonscalar_ptr_iterator_tag@0@AAPAV?$basic_string@DU?$char_traits@D@std@@V?$allocator@D@2@@0@0@Z 0040e070 f i vacommon:VAString.obj
 0001:0000d070       ??$_Move_cat@PAV?$basic_string@DU?$char_traits@D@std@@V?$allocator@D@2@@std@@@std@@YA?AU_Swap_move_tag@0@ABQAV?$basic_string@DU?$char_traits@D@std@@V?$allocator@D@2@@0@@Z 0040e070 f i vacommon:VAString.obj
 0001:0000d090       ??$_Move_backward_opt@PAV?$basic_string@DU?$char_traits@D@std@@V?$allocator@D@2@@std@@PAV12@@std@@YAPAV?$basic_string@DU?$char_traits@D@std@@V?$allocator@D@2@@0@PAV10@00Urandom_access_iterator_tag@0@U_Swap_move_tag@0@U_Range_checked_iterator_tag@0@@Z 0040e090 f i vacommon:VAString.obj
 0001:0000d0f0       ?construct@?$allocator@V?$basic_string@DU?$char_traits@D@std@@V?$allocator@D@2@@std@@@std@@QAEXPAV?$basic_string@DU?$char_traits@D@std@@V?$allocator@D@2@@2@ABV32@@Z 0040e0f0 f i vacommon:VAString.obj
 0001:0000d120       ?destroy@?$allocator@V?$basic_string@DU?$char_traits@D@std@@V?$allocator@D@2@@std@@@std@@QAEXPAV?$basic_string@DU?$char_traits@D@std@@V?$allocator@D@2@@2@@Z 0040e120 f i vacommon:VAString.obj
 0001:0000d150       ??$_Uninit_copy@PBV?$basic_string@DU?$char_traits@D@std@@V?$allocator@D@2@@std@@PAV12@V?$allocator@V?$basic_string@DU?$char_traits@D@std@@V?$allocator@D@2@@std@@@2@@std@@YAPAV?$basic_string@DU?$char_traits@D@std@@V?$allocator@D@2@@0@PBV10@0PAV10@AAV?$allocator@V?$basic_string@DU?$char_traits@D@std@@V?$allocator@D@2@@std@@@0@U_Nonscalar_ptr_iterator_tag@0@U_Range_checked_iterator_tag@0@@Z 0040e150 f i vacommon:VAString.obj
 0001:0000d210       ??$_Uninit_move@PAV?$basic_string@DU?$char_traits@D@std@@V?$allocator@D@2@@std@@PAV12@V?$allocator@V?$basic_string@DU?$char_traits@D@std@@V?$allocator@D@2@@std@@@2@@std@@YAPAV?$basic_string@DU?$char_traits@D@std@@V?$allocator@D@2@@0@PAV10@00AAV?$allocator@V?$basic_string@DU?$char_traits@D@std@@V?$allocator@D@2@@std@@@0@U_Swap_move_tag@0@U_Range_checked_iterator_tag@0@@Z 0040e210 f i vacommon:VAString.obj
 0001:0000d310       ??$_Move_backward_opt@PAV?$basic_string@DU?$char_traits@D@std@@V?$allocator@D@2@@std@@PAV12@Uforward_iterator_tag@2@@std@@YAPAV?$basic_string@DU?$char_traits@D@std@@V?$allocator@D@2@@0@PAV10@00Uforward_iterator_tag@0@U_Swap_move_tag@0@U_Range_checked_iterator_tag@0@@Z 0040e310 f i vacommon:VAString.obj
 0001:0000d350       ??$_Construct@V?$basic_string@DU?$char_traits@D@std@@V?$allocator@D@2@@std@@V12@@std@@YAXPAV?$basic_string@DU?$char_traits@D@std@@V?$allocator@D@2@@0@ABV10@@Z 0040e350 f i vacommon:VAString.obj
 0001:0000d3e0       ??$_Destroy@V?$basic_string@DU?$char_traits@D@std@@V?$allocator@D@2@@std@@@std@@YAXPAV?$basic_string@DU?$char_traits@D@std@@V?$allocator@D@2@@0@@Z 0040e3e0 f i vacommon:VAString.obj
 0001:0000d400       ??_G?$basic_string@DU?$char_traits@D@std@@V?$allocator@D@2@@std@@QAEPAXI@Z 0040e400 f i vacommon:VAString.obj
 0001:0000d440       ??$_Checked_base@V?$_String_iterator@DU?$char_traits@D@std@@V?$allocator@D@2@@std@@U_Different_checked_iterator_base_type_tag@2@@std@@YAPADAAV?$_String_iterator@DU?$char_traits@D@std@@V?$allocator@D@2@@0@U_Different_checked_iterator_base_type_tag@0@@Z 0040e440 f i vacommon:Manip.obj
 0001:0000d440       ??$_Checked_base@V?$_Vector_iterator@V?$basic_string@DU?$char_traits@D@std@@V?$allocator@D@2@@std@@V?$allocator@V?$basic_string@DU?$char_traits@D@std@@V?$allocator@D@2@@std@@@2@@std@@U_Different_checked_iterator_base_type_tag@2@@std@@YAPAV?$basic_string@DU?$char_traits@D@std@@V?$allocator@D@2@@0@AAV?$_Vector_iterator@V?$basic_string@DU?$char_traits@D@std@@V?$allocator@D@2@@std@@V?$allocator@V?$basic_string@DU?$char_traits@D@std@@V?$allocator@D@2@@std@@@2@@0@U_Different_checked_iterator_base_type_tag@0@@Z 0040e440 f i vacommon:Path.obj
 0001:0000d440       ??$_Checked_base@V?$_Vector_const_iterator@V?$basic_string@DU?$char_traits@D@std@@V?$allocator@D@2@@std@@V?$allocator@V?$basic_string@DU?$char_traits@D@std@@V?$allocator@D@2@@std@@@2@@std@@U_Different_checked_iterator_base_type_tag@2@@std@@YAPBV?$basic_string@DU?$char_traits@D@std@@V?$allocator@D@2@@0@AAV?$_Vector_const_iterator@V?$basic_string@DU?$char_traits@D@std@@V?$allocator@D@2@@std@@V?$allocator@V?$basic_string@DU?$char_traits@D@std@@V?$allocator@D@2@@std@@@2@@0@U_Different_checked_iterator_base_type_tag@0@@Z 0040e440 f i vacommon:VAString.obj
 0001:0000d460       ??$swap@DU?$char_traits@D@std@@V?$allocator@D@2@@std@@YAXAAV?$basic_string@DU?$char_traits@D@std@@V?$allocator@D@2@@0@0@Z 0040e460 f i vacommon:VAString.obj
 0001:0000d480       ?CheckFolderExists@VA@@YA_NPBD@Z 0040e480 f   vacommon:VAFileSystem.obj
 0001:0000d5f0       ?CheckFileExists@VA@@YA_NPBD@Z 0040e5f0 f   vacommon:VAFileSystem.obj
 0001:0000d6f0       ?DeleteFolder@VA@@YA_NPBD@Z 0040e6f0 f   vacommon:VAFileSystem.obj
 0001:0000da70       ?CopyFiles@VA@@YA_NPBD00@Z 0040ea70 f   vacommon:VAFileSystem.obj
 0001:0000dee0       ?CheckFolderWritePrivilege@VA@@YA_NPBD@Z 0040eee0 f   vacommon:VAFileSystem.obj
 0001:0000dfd0       ?MakeDir@VA@@YA_NPBD@Z     0040efd0 f   vacommon:VAFileSystem.obj
 0001:0000e1f0       ?GetPathLastName@VA@@YA_NPBDPAD@Z 0040f1f0 f   vacommon:VAFileSystem.obj
 0001:0000e2e0       ?VACopyFile@VA@@YA_NPBD0@Z 0040f2e0 f   vacommon:VAFileSystem.obj
 0001:0000e4d0       ?CopyDir@VA@@YA_NPBD0@Z    0040f4d0 f   vacommon:VAFileSystem.obj
 0001:0000e870       ?NormalizePath@VA@@YA?AV?$basic_string@DU?$char_traits@D@std@@V?$allocator@D@2@@std@@PBD@Z 0040f870 f   vacommon:VAFileSystem.obj
 0001:0000e8f0       ?IsAbsolutePath@VA@@YAHPBD@Z 0040f8f0 f   vacommon:VAFileSystem.obj
 0001:0000e970       ?Pathname2Path@VA@@YA?AV?$basic_string@DU?$char_traits@D@std@@V?$allocator@D@2@@std@@PBD@Z 0040f970 f   vacommon:VAFileSystem.obj
 0001:0000ea70       ??1?$pair@V?$basic_string@DU?$char_traits@D@std@@V?$allocator@D@2@@std@@V12@@std@@QAE@XZ 0040fa70 f i vacommon:VAFileSystem.obj
 0001:0000ead0       ?Pathname2Name@VA@@YA?AV?$basic_string@DU?$char_traits@D@std@@V?$allocator@D@2@@std@@PBD@Z 0040fad0 f   vacommon:VAFileSystem.obj
 0001:0000ebd0       ?Pathname2Noextname@VA@@YA?AV?$basic_string@DU?$char_traits@D@std@@V?$allocator@D@2@@std@@PBD@Z 0040fbd0 f   vacommon:VAFileSystem.obj
 0001:0000eca0       ?IsDirExist@VA@@YAHPBD@Z   0040fca0 f   vacommon:VAFileSystem.obj
 0001:0000ece0       ?IsFileExist@VA@@YAHPBD@Z  0040fce0 f   vacommon:VAFileSystem.obj
 0001:0000ed20       ?Match_String_i@VA@@YA_NPADPBD@Z 0040fd20 f   vacommon:VAFileSystem.obj
 0001:0000ee90       ?Match_String@VA@@YA_NPBD0@Z 0040fe90 f   vacommon:VAFileSystem.obj
 0001:0000ef80       ?FindFiles@VA@@YAHPBD0AAV?$vector@V?$basic_string@DU?$char_traits@D@std@@V?$allocator@D@2@@std@@V?$allocator@V?$basic_string@DU?$char_traits@D@std@@V?$allocator@D@2@@std@@@2@@std@@_N@Z 0040ff80 f   vacommon:VAFileSystem.obj
 0001:0000f180       ?PathtoDirTree@VA@@YAHPBDAAV?$vector@V?$basic_string@DU?$char_traits@D@std@@V?$allocator@D@2@@std@@V?$allocator@V?$basic_string@DU?$char_traits@D@std@@V?$allocator@D@2@@std@@@2@@std@@@Z 00410180 f   vacommon:VAFileSystem.obj
 0001:0000f390       ?GetAppPath@VA@@YA?AV?$basic_string@DU?$char_traits@D@std@@V?$allocator@D@2@@std@@XZ 00410390 f   vacommon:VAFileSystem.obj
 0001:0000f430       ?remove@VA@@YAHPBD@Z       00410430 f   vacommon:VAFileSystem.obj
 0001:0000f480       ?move@VA@@YAHPBD0@Z        00410480 f   vacommon:VAFileSystem.obj
 0001:0000f4b0       ?IsFile@VA@@YAHPBD@Z       004104b0 f   vacommon:VAFileSystem.obj
 0001:0000f4f0       ?IsDirectory@VA@@YAHPBD@Z  004104f0 f   vacommon:VAFileSystem.obj
 0001:0000f530       ?IsSamePath@VA@@YA_NQBD0@Z 00410530 f   vacommon:VAFileSystem.obj
 0001:0000f7a0       ?GetFatherDir@VA@@YA_NPAD@Z 004107a0 f   vacommon:VAFileSystem.obj
 0001:0000f860       ??0Path@sys@@QAE@XZ        00410860 f   vacommon:Path.obj
 0001:0000f880       ??0Path@sys@@QAE@ABV01@V?$basic_string@DU?$char_traits@D@std@@V?$allocator@D@2@@std@@@Z 00410880 f   vacommon:Path.obj
 0001:0000f930       ??0Path@sys@@QAE@V?$basic_string@DU?$char_traits@D@std@@V?$allocator@D@2@@std@@0@Z 00410930 f   vacommon:Path.obj
 0001:0000f9e0       ??0Path@sys@@QAE@V?$basic_string@DU?$char_traits@D@std@@V?$allocator@D@2@@std@@@Z 004109e0 f   vacommon:Path.obj
 0001:0000fa50       ??4Path@sys@@QAEAAV01@ABV01@@Z 00410a50 f   vacommon:Path.obj
 0001:0000fa80       ??0Path@sys@@QAE@ABV01@@Z  00410a80 f   vacommon:Path.obj
 0001:0000faf0       ??1Path@sys@@QAE@XZ        00410af0 f   vacommon:Path.obj
 0001:0000fb10       ?isAbsolutePath@Path@sys@@SA_NABV?$basic_string@DU?$char_traits@D@std@@V?$allocator@D@2@@std@@@Z 00410b10 f   vacommon:Path.obj
 0001:0000fba0       ?normalizePath@Path@sys@@SA?AV?$basic_string@DU?$char_traits@D@std@@V?$allocator@D@2@@std@@ABV34@@Z 00410ba0 f   vacommon:Path.obj
 0001:00010120       ??1Tokenizer@str@@QAE@XZ   00411120 f i vacommon:Path.obj
 0001:00010140       ?joinPaths@Path@sys@@SA?AV?$basic_string@DU?$char_traits@D@std@@V?$allocator@D@2@@std@@ABV34@0@Z 00411140 f   vacommon:Path.obj
 0001:00010430       ?separate@Path@sys@@SA?AV?$vector@V?$basic_string@DU?$char_traits@D@std@@V?$allocator@D@2@@std@@V?$allocator@V?$basic_string@DU?$char_traits@D@std@@V?$allocator@D@2@@std@@@2@@std@@ABV?$basic_string@DU?$char_traits@D@std@@V?$allocator@D@2@@4@@Z 00411430 f   vacommon:Path.obj
 0001:00010650       ?split@Path@sys@@QBE?AU?$pair@V?$basic_string@DU?$char_traits@D@std@@V?$allocator@D@2@@std@@V12@@std@@XZ 00411650 f i vacommon:Path.obj
 0001:00010690       ?getPath@Path@sys@@QBE?AV?$basic_string@DU?$char_traits@D@std@@V?$allocator@D@2@@std@@XZ 00411690 f i vacommon:Path.obj
 0001:000106d0       ??4?$pair@V?$basic_string@DU?$char_traits@D@std@@V?$allocator@D@2@@std@@V12@@std@@QAEAAU01@ABU01@@Z 004116d0 f i vacommon:Path.obj
 0001:00010710       ?splitPath@Path@sys@@SA?AU?$pair@V?$basic_string@DU?$char_traits@D@std@@V?$allocator@D@2@@std@@V12@@std@@ABV?$basic_string@DU?$char_traits@D@std@@V?$allocator@D@2@@4@@Z 00411710 f   vacommon:Path.obj
 0001:00010a20       ?splitExt@Path@sys@@SA?AU?$pair@V?$basic_string@DU?$char_traits@D@std@@V?$allocator@D@2@@std@@V12@@std@@ABV?$basic_string@DU?$char_traits@D@std@@V?$allocator@D@2@@4@@Z 00411a20 f   vacommon:Path.obj
 0001:00010b80       ?basename@Path@sys@@SA?AV?$basic_string@DU?$char_traits@D@std@@V?$allocator@D@2@@std@@ABV34@_N@Z 00411b80 f   vacommon:Path.obj
 0001:00010cb0       ?splitDrive@Path@sys@@SA?AU?$pair@V?$basic_string@DU?$char_traits@D@std@@V?$allocator@D@2@@std@@V12@@std@@ABV?$basic_string@DU?$char_traits@D@std@@V?$allocator@D@2@@4@@Z 00411cb0 f   vacommon:Path.obj
 0001:00010e10       ?delimiter@Path@sys@@SAPBDXZ 00411e10 f   vacommon:Path.obj
 0001:00010e30       ?separator@Path@sys@@SAPBDXZ 00411e30 f   vacommon:Path.obj
 0001:00010e50       ??6@YAAAV?$basic_ostream@DU?$char_traits@D@std@@@std@@AAV01@ABVPath@sys@@@Z 00411e50 f   vacommon:Path.obj
 0001:00010ed0       ??5@YAAAV?$basic_istream@DU?$char_traits@D@std@@@std@@AAV01@AAVPath@sys@@@Z 00411ed0 f   vacommon:Path.obj
 0001:00010f70       ?reset@Path@sys@@QAEXV?$basic_string@DU?$char_traits@D@std@@V?$allocator@D@2@@std@@@Z 00411f70 f i vacommon:Path.obj
 0001:00010fe0       ??0?$pair@V?$basic_string@DU?$char_traits@D@std@@V?$allocator@D@2@@std@@V12@@std@@QAE@XZ 00411fe0 f i vacommon:Path.obj
 0001:00011050       ??0?$pair@V?$basic_string@DU?$char_traits@D@std@@V?$allocator@D@2@@std@@V12@@std@@QAE@ABV?$basic_string@DU?$char_traits@D@std@@V?$allocator@D@2@@1@0@Z 00412050 f i vacommon:Path.obj
 0001:000110c0       ??0?$deque@V?$basic_string@DU?$char_traits@D@std@@V?$allocator@D@2@@std@@V?$allocator@V?$basic_string@DU?$char_traits@D@std@@V?$allocator@D@2@@std@@@2@@std@@QAE@XZ 004120c0 f i vacommon:Path.obj
 0001:00011120       ??1?$deque@V?$basic_string@DU?$char_traits@D@std@@V?$allocator@D@2@@std@@V?$allocator@V?$basic_string@DU?$char_traits@D@std@@V?$allocator@D@2@@std@@@2@@std@@QAE@XZ 00412120 f i vacommon:Path.obj
 0001:00011180       ?begin@?$deque@V?$basic_string@DU?$char_traits@D@std@@V?$allocator@D@2@@std@@V?$allocator@V?$basic_string@DU?$char_traits@D@std@@V?$allocator@D@2@@std@@@2@@std@@QAE?AV?$_Deque_iterator@V?$basic_string@DU?$char_traits@D@std@@V?$allocator@D@2@@std@@V?$allocator@V?$basic_string@DU?$char_traits@D@std@@V?$allocator@D@2@@std@@@2@$00@2@XZ 00412180 f i vacommon:Path.obj
 0001:000111b0       ?end@?$deque@V?$basic_string@DU?$char_traits@D@std@@V?$allocator@D@2@@std@@V?$allocator@V?$basic_string@DU?$char_traits@D@std@@V?$allocator@D@2@@std@@@2@@std@@QAE?AV?$_Deque_iterator@V?$basic_string@DU?$char_traits@D@std@@V?$allocator@D@2@@std@@V?$allocator@V?$basic_string@DU?$char_traits@D@std@@V?$allocator@D@2@@std@@@2@$00@2@XZ 004121b0 f i vacommon:Path.obj
 0001:000111f0       ?size@?$deque@V?$basic_string@DU?$char_traits@D@std@@V?$allocator@D@2@@std@@V?$allocator@V?$basic_string@DU?$char_traits@D@std@@V?$allocator@D@2@@std@@@2@@std@@QBEIXZ 004121f0 f i vacommon:Path.obj
 0001:00011210       ?empty@?$deque@V?$basic_string@DU?$char_traits@D@std@@V?$allocator@D@2@@std@@V?$allocator@V?$basic_string@DU?$char_traits@D@std@@V?$allocator@D@2@@std@@@2@@std@@QBE_NXZ 00412210 f i vacommon:Path.obj
 0001:00011240       ?push_back@?$deque@V?$basic_string@DU?$char_traits@D@std@@V?$allocator@D@2@@std@@V?$allocator@V?$basic_string@DU?$char_traits@D@std@@V?$allocator@D@2@@std@@@2@@std@@QAEXABV?$basic_string@DU?$char_traits@D@std@@V?$allocator@D@2@@2@@Z 00412240 f i vacommon:Path.obj
 0001:00011320       ?pop_back@?$deque@V?$basic_string@DU?$char_traits@D@std@@V?$allocator@D@2@@std@@V?$allocator@V?$basic_string@DU?$char_traits@D@std@@V?$allocator@D@2@@std@@@2@@std@@QAEXXZ 00412320 f i vacommon:Path.obj
 0001:000113c0       ??D?$_Vector_iterator@V?$basic_string@DU?$char_traits@D@std@@V?$allocator@D@2@@std@@V?$allocator@V?$basic_string@DU?$char_traits@D@std@@V?$allocator@D@2@@std@@@2@@std@@QBEAAV?$basic_string@DU?$char_traits@D@std@@V?$allocator@D@2@@1@XZ 004123c0 f i vacommon:Path.obj
 0001:000113e0       ??E?$_Vector_iterator@V?$basic_string@DU?$char_traits@D@std@@V?$allocator@D@2@@std@@V?$allocator@V?$basic_string@DU?$char_traits@D@std@@V?$allocator@D@2@@std@@@2@@std@@QAEAAV01@XZ 004123e0 f i vacommon:Path.obj
 0001:00011400       ??8?$_Vector_const_iterator@V?$basic_string@DU?$char_traits@D@std@@V?$allocator@D@2@@std@@V?$allocator@V?$basic_string@DU?$char_traits@D@std@@V?$allocator@D@2@@std@@@2@@std@@QBE_NABV01@@Z 00412400 f i vacommon:Path.obj
 0001:00011400       ??8?$_Vector_const_iterator@IV?$allocator@I@std@@@std@@QBE_NABV01@@Z 00412400 f i vacommon:Manip.obj
 0001:00011450       ??9?$_Vector_const_iterator@IV?$allocator@I@std@@@std@@QBE_NABV01@@Z 00412450 f i vacommon:Manip.obj
 0001:00011450       ??9?$_Vector_const_iterator@V?$basic_string@DU?$char_traits@D@std@@V?$allocator@D@2@@std@@V?$allocator@V?$basic_string@DU?$char_traits@D@std@@V?$allocator@D@2@@std@@@2@@std@@QBE_NABV01@@Z 00412450 f i vacommon:Path.obj
 0001:00011480       ??D?$_Deque_iterator@V?$basic_string@DU?$char_traits@D@std@@V?$allocator@D@2@@std@@V?$allocator@V?$basic_string@DU?$char_traits@D@std@@V?$allocator@D@2@@std@@@2@$00@std@@QBEAAV?$basic_string@DU?$char_traits@D@std@@V?$allocator@D@2@@1@XZ 00412480 f i vacommon:Path.obj
 0001:000114a0       ??E?$_Deque_iterator@V?$basic_string@DU?$char_traits@D@std@@V?$allocator@D@2@@std@@V?$allocator@V?$basic_string@DU?$char_traits@D@std@@V?$allocator@D@2@@std@@@2@$00@std@@QAEAAV01@XZ 004124a0 f i vacommon:Path.obj
 0001:000114c0       ??E?$_Deque_iterator@V?$basic_string@DU?$char_traits@D@std@@V?$allocator@D@2@@std@@V?$allocator@V?$basic_string@DU?$char_traits@D@std@@V?$allocator@D@2@@std@@@2@$00@std@@QAE?AV01@H@Z 004124c0 f i vacommon:Path.obj
 0001:00011500       ??9?$_Deque_const_iterator@V?$basic_string@DU?$char_traits@D@std@@V?$allocator@D@2@@std@@V?$allocator@V?$basic_string@DU?$char_traits@D@std@@V?$allocator@D@2@@std@@@2@$00@std@@QBE_NABV01@@Z 00412500 f i vacommon:Path.obj
 0001:00011530       ??1?$_Deque_val@V?$basic_string@DU?$char_traits@D@std@@V?$allocator@D@2@@std@@V?$allocator@V?$basic_string@DU?$char_traits@D@std@@V?$allocator@D@2@@std@@@2@@std@@QAE@XZ 00412530 f i vacommon:Path.obj
 0001:00011550       ??1?$_Deque_map@V?$basic_string@DU?$char_traits@D@std@@V?$allocator@D@2@@std@@V?$allocator@V?$basic_string@DU?$char_traits@D@std@@V?$allocator@D@2@@std@@@2@@std@@QAE@XZ 00412550 f i vacommon:Path.obj
 0001:00011550       ??1?$_Vector_val@V?$basic_string@DU?$char_traits@D@std@@V?$allocator@D@2@@std@@V?$allocator@V?$basic_string@DU?$char_traits@D@std@@V?$allocator@D@2@@std@@@2@@std@@QAE@XZ 00412550 f i vacommon:VAString.obj
 0001:00011550       ??1?$_Vector_val@IV?$allocator@I@std@@@std@@QAE@XZ 00412550 f i vacommon:Manip.obj
 0001:00011570       ?_Growmap@?$deque@V?$basic_string@DU?$char_traits@D@std@@V?$allocator@D@2@@std@@V?$allocator@V?$basic_string@DU?$char_traits@D@std@@V?$allocator@D@2@@std@@@2@@std@@IAEXI@Z 00412570 f i vacommon:Path.obj
 0001:00011790       ?_Tidy@?$deque@V?$basic_string@DU?$char_traits@D@std@@V?$allocator@D@2@@std@@V?$allocator@V?$basic_string@DU?$char_traits@D@std@@V?$allocator@D@2@@std@@@2@@std@@IAEXXZ 00412790 f i vacommon:Path.obj
 0001:00011850       ??0?$_Deque_val@V?$basic_string@DU?$char_traits@D@std@@V?$allocator@D@2@@std@@V?$allocator@V?$basic_string@DU?$char_traits@D@std@@V?$allocator@D@2@@std@@@2@@std@@IAE@V?$allocator@V?$basic_string@DU?$char_traits@D@std@@V?$allocator@D@2@@std@@@1@@Z 00412850 f i vacommon:Path.obj
 0001:00011890       ??D?$_Vector_const_iterator@V?$basic_string@DU?$char_traits@D@std@@V?$allocator@D@2@@std@@V?$allocator@V?$basic_string@DU?$char_traits@D@std@@V?$allocator@D@2@@std@@@2@@std@@QBEABV?$basic_string@DU?$char_traits@D@std@@V?$allocator@D@2@@1@XZ 00412890 f i vacommon:Path.obj
 0001:000118e0       ??E?$_Vector_const_iterator@V?$basic_string@DU?$char_traits@D@std@@V?$allocator@D@2@@std@@V?$allocator@V?$basic_string@DU?$char_traits@D@std@@V?$allocator@D@2@@std@@@2@@std@@QAEAAV01@XZ 004128e0 f i vacommon:Path.obj
 0001:00011940       ??0?$_Deque_iterator@V?$basic_string@DU?$char_traits@D@std@@V?$allocator@D@2@@std@@V?$allocator@V?$basic_string@DU?$char_traits@D@std@@V?$allocator@D@2@@std@@@2@$00@std@@QAE@IPBV_Container_base_aux@1@@Z 00412940 f i vacommon:Path.obj
 0001:00011970       ??D?$_Deque_const_iterator@V?$basic_string@DU?$char_traits@D@std@@V?$allocator@D@2@@std@@V?$allocator@V?$basic_string@DU?$char_traits@D@std@@V?$allocator@D@2@@std@@@2@$00@std@@QBEABV?$basic_string@DU?$char_traits@D@std@@V?$allocator@D@2@@1@XZ 00412970 f i vacommon:Path.obj
 0001:00011a10       ??E?$_Deque_const_iterator@V?$basic_string@DU?$char_traits@D@std@@V?$allocator@D@2@@std@@V?$allocator@V?$basic_string@DU?$char_traits@D@std@@V?$allocator@D@2@@std@@@2@$00@std@@QAEAAV01@XZ 00412a10 f i vacommon:Path.obj
 0001:00011a90       ??8?$_Deque_const_iterator@V?$basic_string@DU?$char_traits@D@std@@V?$allocator@D@2@@std@@V?$allocator@V?$basic_string@DU?$char_traits@D@std@@V?$allocator@D@2@@std@@@2@$00@std@@QBE_NABV01@@Z 00412a90 f i vacommon:Path.obj
 0001:00011af0       ?max_size@?$deque@V?$basic_string@DU?$char_traits@D@std@@V?$allocator@D@2@@std@@V?$allocator@V?$basic_string@DU?$char_traits@D@std@@V?$allocator@D@2@@std@@@2@@std@@QBEIXZ 00412af0 f i vacommon:Path.obj
 0001:00011b10       ?_Xlen@?$deque@V?$basic_string@DU?$char_traits@D@std@@V?$allocator@D@2@@std@@V?$allocator@V?$basic_string@DU?$char_traits@D@std@@V?$allocator@D@2@@std@@@2@@std@@KAXXZ 00412b10 f i vacommon:Path.obj
 0001:00011ba0       ?destroy@?$allocator@PAV?$basic_string@DU?$char_traits@D@std@@V?$allocator@D@2@@std@@@std@@QAEXPAPAV?$basic_string@DU?$char_traits@D@std@@V?$allocator@D@2@@2@@Z 00412ba0 f i vacommon:Path.obj
 0001:00011bd0       ??0?$_Deque_const_iterator@V?$basic_string@DU?$char_traits@D@std@@V?$allocator@D@2@@std@@V?$allocator@V?$basic_string@DU?$char_traits@D@std@@V?$allocator@D@2@@std@@@2@$00@std@@QAE@IPBV_Container_base_aux@1@@Z 00412bd0 f i vacommon:Path.obj
 0001:00011c40       ??$reverse@V?$_Vector_iterator@V?$basic_string@DU?$char_traits@D@std@@V?$allocator@D@2@@std@@V?$allocator@V?$basic_string@DU?$char_traits@D@std@@V?$allocator@D@2@@std@@@2@@std@@@std@@YAXV?$_Vector_iterator@V?$basic_string@DU?$char_traits@D@std@@V?$allocator@D@2@@std@@V?$allocator@V?$basic_string@DU?$char_traits@D@std@@V?$allocator@D@2@@std@@@2@@0@0@Z 00412c40 f i vacommon:Path.obj
 0001:00011c90       ??$unchecked_uninitialized_copy@PAPAV?$basic_string@DU?$char_traits@D@std@@V?$allocator@D@2@@std@@PAPAV12@V?$allocator@PAV?$basic_string@DU?$char_traits@D@std@@V?$allocator@D@2@@std@@@2@@stdext@@YAPAPAV?$basic_string@DU?$char_traits@D@std@@V?$allocator@D@2@@std@@PAPAV12@00AAV?$allocator@PAV?$basic_string@DU?$char_traits@D@std@@V?$allocator@D@2@@std@@@2@@Z 00412c90 f i vacommon:Path.obj
 0001:00011cf0       ??$unchecked_uninitialized_fill_n@PAPAV?$basic_string@DU?$char_traits@D@std@@V?$allocator@D@2@@std@@IPAV12@V?$allocator@PAV?$basic_string@DU?$char_traits@D@std@@V?$allocator@D@2@@std@@@2@@stdext@@YAXPAPAV?$basic_string@DU?$char_traits@D@std@@V?$allocator@D@2@@std@@IABQAV12@AAV?$allocator@PAV?$basic_string@DU?$char_traits@D@std@@V?$allocator@D@2@@std@@@2@@Z 00412cf0 f i vacommon:Path.obj
 0001:00011cf0       ??$unchecked_uninitialized_fill_n@PAIIIV?$allocator@I@std@@@stdext@@YAXPAIIABIAAV?$allocator@I@std@@@Z 00412cf0 f i vacommon:Manip.obj
 0001:00011d40       ??$_Destroy_range@V?$allocator@PAV?$basic_string@DU?$char_traits@D@std@@V?$allocator@D@2@@std@@@std@@@std@@YAXPAPAV?$basic_string@DU?$char_traits@D@std@@V?$allocator@D@2@@0@0AAV?$allocator@PAV?$basic_string@DU?$char_traits@D@std@@V?$allocator@D@2@@std@@@0@@Z 00412d40 f i vacommon:Path.obj
 0001:00011d40       ??$_Destroy_range@V?$allocator@I@std@@@std@@YAXPAI0AAV?$allocator@I@0@@Z 00412d40 f i vacommon:Manip.obj
 0001:00011d80       ??$_Checked_base@V?$_Vector_iterator@V?$basic_string@DU?$char_traits@D@std@@V?$allocator@D@2@@std@@V?$allocator@V?$basic_string@DU?$char_traits@D@std@@V?$allocator@D@2@@std@@@2@@std@@@std@@YAPAV?$basic_string@DU?$char_traits@D@std@@V?$allocator@D@2@@0@AAV?$_Vector_iterator@V?$basic_string@DU?$char_traits@D@std@@V?$allocator@D@2@@std@@V?$allocator@V?$basic_string@DU?$char_traits@D@std@@V?$allocator@D@2@@std@@@2@@0@@Z 00412d80 f i vacommon:Path.obj
 0001:00011d80       ??$_Checked_base@V?$_String_iterator@DU?$char_traits@D@std@@V?$allocator@D@2@@std@@@std@@YAPADAAV?$_String_iterator@DU?$char_traits@D@std@@V?$allocator@D@2@@0@@Z 00412d80 f i vacommon:Manip.obj
 0001:00011d80       ??$_Checked_base@V?$_Vector_const_iterator@V?$basic_string@DU?$char_traits@D@std@@V?$allocator@D@2@@std@@V?$allocator@V?$basic_string@DU?$char_traits@D@std@@V?$allocator@D@2@@std@@@2@@std@@@std@@YAPBV?$basic_string@DU?$char_traits@D@std@@V?$allocator@D@2@@0@AAV?$_Vector_const_iterator@V?$basic_string@DU?$char_traits@D@std@@V?$allocator@D@2@@std@@V?$allocator@V?$basic_string@DU?$char_traits@D@std@@V?$allocator@D@2@@std@@@2@@0@@Z 00412d80 f i vacommon:VAString.obj
 0001:00011db0       ??$_Reverse@PAV?$basic_string@DU?$char_traits@D@std@@V?$allocator@D@2@@std@@@std@@YAXPAV?$basic_string@DU?$char_traits@D@std@@V?$allocator@D@2@@0@0Urandom_access_iterator_tag@0@@Z 00412db0 f i vacommon:Path.obj
 0001:00011df0       ??$_Uninit_copy@PAPAV?$basic_string@DU?$char_traits@D@std@@V?$allocator@D@2@@std@@PAPAV12@V?$allocator@PAV?$basic_string@DU?$char_traits@D@std@@V?$allocator@D@2@@std@@@2@@std@@YAPAPAV?$basic_string@DU?$char_traits@D@std@@V?$allocator@D@2@@0@PAPAV10@00AAV?$allocator@PAV?$basic_string@DU?$char_traits@D@std@@V?$allocator@D@2@@std@@@0@U_Scalar_ptr_iterator_tag@0@U_Range_checked_iterator_tag@0@@Z 00412df0 f i vacommon:Path.obj
 0001:00011e40       ??$_Uninit_fill_n@PAIIIV?$allocator@I@std@@@std@@YAXPAIIABIAAV?$allocator@I@0@U_Scalar_ptr_iterator_tag@0@U_Range_checked_iterator_tag@0@@Z 00412e40 f i vacommon:Manip.obj
 0001:00011e40       ??$_Uninit_fill_n@PAPAV?$basic_string@DU?$char_traits@D@std@@V?$allocator@D@2@@std@@IPAV12@V?$allocator@PAV?$basic_string@DU?$char_traits@D@std@@V?$allocator@D@2@@std@@@2@@std@@YAXPAPAV?$basic_string@DU?$char_traits@D@std@@V?$allocator@D@2@@0@IABQAV10@AAV?$allocator@PAV?$basic_string@DU?$char_traits@D@std@@V?$allocator@D@2@@std@@@0@U_Scalar_ptr_iterator_tag@0@U_Range_checked_iterator_tag@0@@Z 00412e40 f i vacommon:Path.obj
 0001:00011e70       ??$_Destroy@PAV?$basic_string@DU?$char_traits@D@std@@V?$allocator@D@2@@std@@@std@@YAXPAPAV?$basic_string@DU?$char_traits@D@std@@V?$allocator@D@2@@0@@Z 00412e70 f i vacommon:Path.obj
 0001:00011e70       ??$_Destroy_range@V?$allocator@I@std@@@std@@YAXPAI0AAV?$allocator@I@0@U_Scalar_ptr_iterator_tag@0@@Z 00412e70 f i vacommon:Manip.obj
 0001:00011e70       ??$_Destroy_range@V?$allocator@PAV?$basic_string@DU?$char_traits@D@std@@V?$allocator@D@2@@std@@@std@@@std@@YAXPAPAV?$basic_string@DU?$char_traits@D@std@@V?$allocator@D@2@@0@0AAV?$allocator@PAV?$basic_string@DU?$char_traits@D@std@@V?$allocator@D@2@@std@@@0@U_Scalar_ptr_iterator_tag@0@@Z 00412e70 f i vacommon:Path.obj
 0001:00011e70       ??3@YAXPAX0@Z              00412e70 f i vacommon:VAString.obj
 0001:00011e80       ??$iter_swap@PAV?$basic_string@DU?$char_traits@D@std@@V?$allocator@D@2@@std@@PAV12@@std@@YAXPAV?$basic_string@DU?$char_traits@D@std@@V?$allocator@D@2@@0@0@Z 00412e80 f i vacommon:Path.obj
 0001:00011ea0       ??$_Checked_base@PAV?$basic_string@DU?$char_traits@D@std@@V?$allocator@D@2@@std@@@std@@YAPAV?$basic_string@DU?$char_traits@D@std@@V?$allocator@D@2@@0@AAPAV10@U_Unchanged_checked_iterator_base_type_tag@0@@Z 00412ea0 f i vacommon:VAString.obj
 0001:00011ea0       ??$_Checked_base@PAI@std@@YAPAIAAPAIU_Unchanged_checked_iterator_base_type_tag@0@@Z 00412ea0 f i vacommon:Manip.obj
 0001:00011ea0       ??$_Checked_base@PAPAV?$basic_string@DU?$char_traits@D@std@@V?$allocator@D@2@@std@@@std@@YAPAPAV?$basic_string@DU?$char_traits@D@std@@V?$allocator@D@2@@0@AAPAPAV10@U_Unchanged_checked_iterator_base_type_tag@0@@Z 00412ea0 f i vacommon:Path.obj
 0001:00011ec0       ??$unchecked_fill_n@PAPAV?$basic_string@DU?$char_traits@D@std@@V?$allocator@D@2@@std@@IPAV12@@stdext@@YAXPAPAV?$basic_string@DU?$char_traits@D@std@@V?$allocator@D@2@@std@@IABQAV12@@Z 00412ec0 f i vacommon:Path.obj
 0001:00011ec0       ??$unchecked_fill_n@PAIII@stdext@@YAXPAIIABI@Z 00412ec0 f i vacommon:Manip.obj
 0001:00011f10       ??$_Iter_random@PAV?$basic_string@DU?$char_traits@D@std@@V?$allocator@D@2@@std@@PAV12@@std@@YA?AUrandom_access_iterator_tag@0@ABQAV?$basic_string@DU?$char_traits@D@std@@V?$allocator@D@2@@0@0@Z 00412f10 f i vacommon:VAString.obj
 0001:00011f10       ??$_Iter_cat@V?$_Vector_iterator@V?$basic_string@DU?$char_traits@D@std@@V?$allocator@D@2@@std@@V?$allocator@V?$basic_string@DU?$char_traits@D@std@@V?$allocator@D@2@@std@@@2@@std@@@std@@YA?AUrandom_access_iterator_tag@0@ABV?$_Vector_iterator@V?$basic_string@DU?$char_traits@D@std@@V?$allocator@D@2@@std@@V?$allocator@V?$basic_string@DU?$char_traits@D@std@@V?$allocator@D@2@@std@@@2@@0@@Z 00412f10 f i vacommon:Path.obj
 0001:00011f10       ??$_Iter_cat@PAI@std@@YA?AUrandom_access_iterator_tag@0@ABQAI@Z 00412f10 f i vacommon:Manip.obj
 0001:00011f10       ??$_Iter_random@V?$_String_iterator@DU?$char_traits@D@std@@V?$allocator@D@2@@std@@V12@@std@@YA?AUrandom_access_iterator_tag@0@ABV?$_String_iterator@DU?$char_traits@D@std@@V?$allocator@D@2@@0@0@Z 00412f10 f i vacommon:Manip.obj
 0001:00011f10       ??$_Iter_random@PAIPAI@std@@YA?AUrandom_access_iterator_tag@0@ABQAI0@Z 00412f10 f i vacommon:Manip.obj
 0001:00011f10       ??$_Iter_cat@PAPAV?$basic_string@DU?$char_traits@D@std@@V?$allocator@D@2@@std@@@std@@YA?AUrandom_access_iterator_tag@0@ABQAPAV?$basic_string@DU?$char_traits@D@std@@V?$allocator@D@2@@0@@Z 00412f10 f i vacommon:Path.obj
 0001:00011f30       ??$_Fill_n@PAIII@std@@YAXPAIIABIUrandom_access_iterator_tag@0@U_Range_checked_iterator_tag@0@@Z 00412f30 f i vacommon:Manip.obj
 0001:00011f30       ??$_Fill_n@PAPAV?$basic_string@DU?$char_traits@D@std@@V?$allocator@D@2@@std@@IPAV12@@std@@YAXPAPAV?$basic_string@DU?$char_traits@D@std@@V?$allocator@D@2@@0@IABQAV10@Urandom_access_iterator_tag@0@U_Range_checked_iterator_tag@0@@Z 00412f30 f i vacommon:Path.obj
 0001:00011f80       ??$_Fill_n@PAIII@std@@YAXPAIIABIU_Range_checked_iterator_tag@0@@Z 00412f80 f i vacommon:Manip.obj
 0001:00011f80       ??$_Fill_n@PAPAV?$basic_string@DU?$char_traits@D@std@@V?$allocator@D@2@@std@@IPAV12@@std@@YAXPAPAV?$basic_string@DU?$char_traits@D@std@@V?$allocator@D@2@@0@IABQAV10@U_Range_checked_iterator_tag@0@@Z 00412f80 f i vacommon:Path.obj
 0001:00011fc0       ?trim@str@@YAXAAV?$basic_string@DU?$char_traits@D@std@@V?$allocator@D@2@@std@@@Z 00412fc0 f   vacommon:Manip.obj
 0001:00012090       ?endsWith@str@@YA_NABV?$basic_string@DU?$char_traits@D@std@@V?$allocator@D@2@@std@@0@Z 00413090 f   vacommon:Manip.obj
 0001:00012120       ?startsWith@str@@YA_NABV?$basic_string@DU?$char_traits@D@std@@V?$allocator@D@2@@std@@0@Z 00413120 f   vacommon:Manip.obj
 0001:000121b0       ?replace@str@@YAIAAV?$basic_string@DU?$char_traits@D@std@@V?$allocator@D@2@@std@@ABV23@1I@Z 004131b0 f   vacommon:Manip.obj
 0001:00012220       ?replaceAll@str@@YAXAAV?$basic_string@DU?$char_traits@D@std@@V?$allocator@D@2@@std@@ABV23@1@Z 00413220 f   vacommon:Manip.obj
 0001:00012280       ?contains@str@@YA_NABV?$basic_string@DU?$char_traits@D@std@@V?$allocator@D@2@@std@@0@Z 00413280 f   vacommon:Manip.obj
 0001:000122b0       ?isAlpha@str@@YA_NABV?$basic_string@DU?$char_traits@D@std@@V?$allocator@D@2@@std@@@Z 004132b0 f   vacommon:Manip.obj
 0001:00012330       ?isAlphaSpace@str@@YA_NABV?$basic_string@DU?$char_traits@D@std@@V?$allocator@D@2@@std@@@Z 00413330 f   vacommon:Manip.obj
 0001:000123c0       ?isNumeric@str@@YA_NABV?$basic_string@DU?$char_traits@D@std@@V?$allocator@D@2@@std@@@Z 004133c0 f   vacommon:Manip.obj
 0001:00012440       ?isNumericSpace@str@@YA_NABV?$basic_string@DU?$char_traits@D@std@@V?$allocator@D@2@@std@@@Z 00413440 f   vacommon:Manip.obj
 0001:000124d0       ?isWhitespace@str@@YA_NABV?$basic_string@DU?$char_traits@D@std@@V?$allocator@D@2@@std@@@Z 004134d0 f   vacommon:Manip.obj
 0001:00012540       ?isAlphanumeric@str@@YA_NABV?$basic_string@DU?$char_traits@D@std@@V?$allocator@D@2@@std@@@Z 00413540 f   vacommon:Manip.obj
 0001:000125d0       ?isAsciiPrintable@str@@YA_NABV?$basic_string@DU?$char_traits@D@std@@V?$allocator@D@2@@std@@@Z 004135d0 f   vacommon:Manip.obj
 0001:00012640       ?containsOnly@str@@YA_NABV?$basic_string@DU?$char_traits@D@std@@V?$allocator@D@2@@std@@0@Z 00413640 f   vacommon:Manip.obj
 0001:00012790       ?split@str@@YA?AV?$vector@V?$basic_string@DU?$char_traits@D@std@@V?$allocator@D@2@@std@@V?$allocator@V?$basic_string@DU?$char_traits@D@std@@V?$allocator@D@2@@std@@@2@@std@@ABV?$basic_string@DU?$char_traits@D@std@@V?$allocator@D@2@@3@0I@Z 00413790 f   vacommon:Manip.obj
 0001:00012950       ?lower@str@@YAXAAV?$basic_string@DU?$char_traits@D@std@@V?$allocator@D@2@@std@@@Z 00413950 f   vacommon:Manip.obj
 0001:000129b0       ?upper@str@@YAXAAV?$basic_string@DU?$char_traits@D@std@@V?$allocator@D@2@@std@@@Z 004139b0 f   vacommon:Manip.obj
 0001:00012a10       ??D?$_String_const_iterator@DU?$char_traits@D@std@@V?$allocator@D@2@@std@@QBEABDXZ 00413a10 f i vacommon:Manip.obj
 0001:00012a70       ??E?$_String_const_iterator@DU?$char_traits@D@std@@V?$allocator@D@2@@std@@QAEAAV01@XZ 00413a70 f i vacommon:Manip.obj
 0001:00012ae0       ??9?$_String_const_iterator@DU?$char_traits@D@std@@V?$allocator@D@2@@std@@QBE_NABV01@@Z 00413ae0 f i vacommon:Manip.obj
 0001:00012b10       ??0?$vector@_NV?$allocator@_N@std@@@std@@QAE@I_N@Z 00413b10 f i vacommon:Manip.obj
 0001:00012bc0       ??1?$vector@_NV?$allocator@_N@std@@@std@@QAE@XZ 00413bc0 f i vacommon:Manip.obj
 0001:00012c30       ??A?$vector@_NV?$allocator@_N@std@@@std@@QAE?AV?$_Vb_reference@IHV?$vector@_NV?$allocator@_N@std@@@std@@@1@I@Z 00413c30 f i vacommon:Manip.obj
 0001:00012c70       ??4?$_Vb_reference@IHV?$vector@_NV?$allocator@_N@std@@@std@@@std@@QAEAAV01@_N@Z 00413c70 f i vacommon:Manip.obj
 0001:00012cd0       ??B?$_Vb_reference@IHV?$vector@_NV?$allocator@_N@std@@@std@@@std@@QBE_NXZ 00413cd0 f i vacommon:Manip.obj
 0001:00012d00       ??8?$_String_const_iterator@DU?$char_traits@D@std@@V?$allocator@D@2@@std@@QBE_NABV01@@Z 00413d00 f i vacommon:Manip.obj
 0001:00012d60       ?begin@?$vector@_NV?$allocator@_N@std@@@std@@QAE?AV?$_Vb_iterator@IHV?$vector@_NV?$allocator@_N@std@@@std@@@2@XZ 00413d60 f i vacommon:Manip.obj
 0001:00012da0       ?_Nw@?$vector@_NV?$allocator@_N@std@@@std@@KAII@Z 00413da0 f i vacommon:Manip.obj
 0001:00012dc0       ?_Trim@?$vector@_NV?$allocator@_N@std@@@std@@IAEXI@Z 00413dc0 f i vacommon:Manip.obj
 0001:00012ec0       ??0?$_Container_base_aux_alloc_real@V?$allocator@V?$basic_string@DU?$char_traits@D@std@@V?$allocator@D@2@@std@@@std@@@std@@IAE@V?$allocator@V?$basic_string@DU?$char_traits@D@std@@V?$allocator@D@2@@std@@@1@@Z 00413ec0 f i vacommon:VAString.obj
 0001:00012ec0       ??0?$_Container_base_aux_alloc_real@V?$allocator@_N@std@@@std@@IAE@V?$allocator@_N@1@@Z 00413ec0 f i vacommon:Manip.obj
 0001:00012ec0       ??0?$_Container_base_aux_alloc_real@V?$allocator@I@std@@@std@@IAE@V?$allocator@I@1@@Z 00413ec0 f i vacommon:Manip.obj
 0001:00012f80       ??0?$vector@IV?$allocator@I@std@@@std@@QAE@IABI@Z 00413f80 f i vacommon:Manip.obj
 0001:00013000       ??1?$vector@IV?$allocator@I@std@@@std@@QAE@XZ 00414000 f i vacommon:Manip.obj
 0001:00013060       ?_Getptr@?$_Vb_reference@IHV?$vector@_NV?$allocator@_N@std@@@std@@@std@@QBEPAIXZ 00414060 f i vacommon:Manip.obj
 0001:000130c0       ?_Mask@?$_Vb_reference@IHV?$vector@_NV?$allocator@_N@std@@@std@@@std@@IBEIXZ 004140c0 f i vacommon:Manip.obj
 0001:000130f0       ??D?$_Vb_iterator@IHV?$vector@_NV?$allocator@_N@std@@@std@@@std@@QBE?AV?$_Vb_reference@IHV?$vector@_NV?$allocator@_N@std@@@std@@@1@XZ 004140f0 f i vacommon:Manip.obj
 0001:00013120       ??H?$_Vb_iterator@IHV?$vector@_NV?$allocator@_N@std@@@std@@@std@@QBE?AV01@H@Z 00414120 f i vacommon:Manip.obj
 0001:00013170       ?max_size@?$vector@_NV?$allocator@_N@std@@@std@@QBEIXZ 00414170 f i vacommon:Manip.obj
 0001:000131b0       ?_Xlen@?$vector@_NV?$allocator@_N@std@@@std@@IBEXXZ 004141b0 f i vacommon:Manip.obj
 0001:00013240       ?_Construct_n@?$vector@IV?$allocator@I@std@@@std@@QAEXIABI@Z 00414240 f i vacommon:Manip.obj
 0001:000132f0       ?begin@?$vector@IV?$allocator@I@std@@@std@@QAE?AV?$_Vector_iterator@IV?$allocator@I@std@@@2@XZ 004142f0 f i vacommon:Manip.obj
 0001:00013320       ?end@?$vector@IV?$allocator@I@std@@@std@@QAE?AV?$_Vector_iterator@IV?$allocator@I@std@@@2@XZ 00414320 f i vacommon:Manip.obj
 0001:00013350       ?size@?$vector@IV?$allocator@I@std@@@std@@QBEIXZ 00414350 f i vacommon:Manip.obj
 0001:00013380       ??A?$vector@IV?$allocator@I@std@@@std@@QAEAAII@Z 00414380 f i vacommon:Manip.obj
 0001:000133c0       ?erase@?$vector@IV?$allocator@I@std@@@std@@QAE?AV?$_Vector_iterator@IV?$allocator@I@std@@@2@V?$_Vector_const_iterator@IV?$allocator@I@std@@@2@0@Z 004143c0 f i vacommon:Manip.obj
 0001:00013460       ?_Tidy@?$vector@IV?$allocator@I@std@@@std@@IAEXXZ 00414460 f i vacommon:Manip.obj
 0001:000134e0       ??0?$allocator@_N@std@@QAE@XZ 004144e0 f i vacommon:Manip.obj
 0001:000134e0       ??BTokenizer@str@@QAEAAV?$vector@V?$basic_string@DU?$char_traits@D@std@@V?$allocator@D@2@@std@@V?$allocator@V?$basic_string@DU?$char_traits@D@std@@V?$allocator@D@2@@std@@@2@@std@@XZ 004144e0 f i vacommon:Path.obj
 0001:000134e0       ??0?$allocator@I@std@@QAE@XZ 004144e0 f i vacommon:Manip.obj
 0001:000134e0       ??0_Container_base_aux@std@@QAE@XZ 004144e0 f i vacommon:VAString.obj
 0001:000134e0       ??0?$allocator@V?$basic_string@DU?$char_traits@D@std@@V?$allocator@D@2@@std@@@std@@QAE@XZ 004144e0 f i vacommon:VAString.obj
 0001:00013500       ??0?$_Vb_reference@IHV?$vector@_NV?$allocator@_N@std@@@std@@@std@@QAE@ABV?$_Vb_iter_base@IHV?$vector@_NV?$allocator@_N@std@@@std@@@1@@Z 00414500 f i vacommon:Manip.obj
 0001:00013540       ?_My_actual_offset@?$_Vb_iter_base@IHV?$vector@_NV?$allocator@_N@std@@@std@@@std@@QBEIXZ 00414540 f i vacommon:Manip.obj
 0001:00013580       ??0?$_Vb_iterator@IHV?$vector@_NV?$allocator@_N@std@@@std@@@std@@QAE@PAIPAV_Container_base_aux@1@@Z 00414580 f i vacommon:Manip.obj
 0001:000135b0       ??Y?$_Vb_iterator@IHV?$vector@_NV?$allocator@_N@std@@@std@@@std@@QAEAAV01@H@Z 004145b0 f i vacommon:Manip.obj
 0001:000135e0       ??H?$_Vector_iterator@IV?$allocator@I@std@@@std@@QBE?AV01@H@Z 004145e0 f i vacommon:Manip.obj
 0001:00013620       ?_Make_iter@?$vector@IV?$allocator@I@std@@@std@@QBE?AV?$_Vector_iterator@IV?$allocator@I@std@@@2@V?$_Vector_const_iterator@IV?$allocator@I@std@@@2@@Z 00414620 f i vacommon:Manip.obj
 0001:00013650       ?max_size@?$vector@IV?$allocator@I@std@@@std@@QBEIXZ 00414650 f i vacommon:Manip.obj
 0001:00013670       ?_Buy@?$vector@IV?$allocator@I@std@@@std@@IAE_NI@Z 00414670 f i vacommon:Manip.obj
 0001:00013700       ?_Destroy@?$vector@IV?$allocator@I@std@@@std@@IAEXPAI0@Z 00414700 f i vacommon:Manip.obj
 0001:00013730       ?_Ufill@?$vector@IV?$allocator@I@std@@@std@@IAEPAIPAIIABI@Z 00414730 f i vacommon:Manip.obj
 0001:00013770       ?deallocate@?$allocator@V?$basic_string@DU?$char_traits@D@std@@V?$allocator@D@2@@std@@@std@@QAEXPAV?$basic_string@DU?$char_traits@D@std@@V?$allocator@D@2@@2@I@Z 00414770 f i vacommon:VAString.obj
 0001:00013770       ?deallocate@?$allocator@I@std@@QAEXPAII@Z 00414770 f i vacommon:Manip.obj
 0001:00013770       ?deallocate@?$allocator@V_Aux_cont@std@@@std@@QAEXPAV_Aux_cont@2@I@Z 00414770 f i vacommon:VAString.obj
 0001:00013770       ?deallocate@?$allocator@PAV?$basic_string@DU?$char_traits@D@std@@V?$allocator@D@2@@std@@@std@@QAEXPAPAV?$basic_string@DU?$char_traits@D@std@@V?$allocator@D@2@@2@I@Z 00414770 f i vacommon:Path.obj
 0001:000137a0       ??0?$_Vb_iter_base@IHV?$vector@_NV?$allocator@_N@std@@@std@@@std@@QAE@PAIIPBV_Container_base_aux@1@@Z 004147a0 f i vacommon:Manip.obj
 0001:000137f0       ?_My_cont_begin@?$_Vb_iter_base@IHV?$vector@_NV?$allocator@_N@std@@@std@@@std@@QBEPAIXZ 004147f0 f i vacommon:Manip.obj
 0001:00013820       ??0?$_Vb_const_iterator@IHV?$vector@_NV?$allocator@_N@std@@@std@@@std@@QAE@PBIPBV_Container_base_aux@1@@Z 00414820 f i vacommon:Manip.obj
 0001:00013850       ??Y?$_Vb_const_iterator@IHV?$vector@_NV?$allocator@_N@std@@@std@@@std@@QAEAAV01@H@Z 00414850 f i vacommon:Manip.obj
 0001:00013970       ??0?$_Vector_iterator@IV?$allocator@I@std@@@std@@QAE@PAIPBV_Container_base_aux@1@@Z 00414970 f i vacommon:Manip.obj
 0001:000139a0       ??Y?$_Vector_iterator@IV?$allocator@I@std@@@std@@QAEAAV01@H@Z 004149a0 f i vacommon:Manip.obj
 0001:000139d0       ?max_size@?$allocator@I@std@@QBEIXZ 004149d0 f i vacommon:Manip.obj
 0001:00013a10       ??0?$_Vector_const_iterator@IV?$allocator@I@std@@@std@@QAE@PAIPBV_Container_base_aux@1@@Z 00414a10 f i vacommon:Manip.obj
 0001:00013a70       ??Y?$_Vector_const_iterator@IV?$allocator@I@std@@@std@@QAEAAV01@H@Z 00414a70 f i vacommon:Manip.obj
 0001:00013af0       ??0?$_Ranit@_NHPA_N_N@std@@QAE@XZ 00414af0 f i vacommon:Manip.obj
 0001:00013af0       ??0?$_Ranit@V?$basic_string@DU?$char_traits@D@std@@V?$allocator@D@2@@std@@HPBV12@ABV12@@std@@QAE@XZ 00414af0 f i vacommon:VAString.obj
 0001:00013af0       ??0?$_Ranit@IHPBIABI@std@@QAE@XZ 00414af0 f i vacommon:Manip.obj
 0001:00013b10       ??0?$_Iterator_with_base@Urandom_access_iterator_tag@std@@_NHPA_N_NV_Iterator_base_aux@2@@std@@QAE@XZ 00414b10 f i vacommon:Manip.obj
 0001:00013b10       ??0?$_Iterator_with_base@Urandom_access_iterator_tag@std@@V?$basic_string@DU?$char_traits@D@std@@V?$allocator@D@2@@2@HPBV32@ABV32@V_Iterator_base_aux@2@@std@@QAE@XZ 00414b10 f i vacommon:VAString.obj
 0001:00013b10       ??0?$_Iterator_with_base@Urandom_access_iterator_tag@std@@IHPBIABIV_Iterator_base_aux@2@@std@@QAE@XZ 00414b10 f i vacommon:Manip.obj
 0001:00013b30       ??$transform@V?$_String_iterator@DU?$char_traits@D@std@@V?$allocator@D@2@@std@@V12@P6AHH@Z@std@@YA?AV?$_String_iterator@DU?$char_traits@D@std@@V?$allocator@D@2@@0@V10@00P6AHH@Z@Z 00414b30 f i vacommon:Manip.obj
 0001:00013ba0       ??0?$allocator@I@std@@QAE@ABV01@@Z 00414ba0 f i vacommon:Manip.obj
 0001:00013ba0       ??$?0V?$basic_string@DU?$char_traits@D@std@@V?$allocator@D@2@@std@@@?$allocator@PAV?$basic_string@DU?$char_traits@D@std@@V?$allocator@D@2@@std@@@std@@QAE@ABV?$allocator@V?$basic_string@DU?$char_traits@D@std@@V?$allocator@D@2@@std@@@1@@Z 00414ba0 f i vacommon:Path.obj
 0001:00013ba0       ??$?0I@?$allocator@V_Aux_cont@std@@@std@@QAE@ABV?$allocator@I@1@@Z 00414ba0 f i vacommon:Manip.obj
 0001:00013ba0       ??$?0V?$basic_string@DU?$char_traits@D@std@@V?$allocator@D@2@@std@@@?$allocator@V_Aux_cont@std@@@std@@QAE@ABV?$allocator@V?$basic_string@DU?$char_traits@D@std@@V?$allocator@D@2@@std@@@1@@Z 00414ba0 f i vacommon:VAString.obj
 0001:00013ba0       ??0?$allocator@V?$basic_string@DU?$char_traits@D@std@@V?$allocator@D@2@@std@@@std@@QAE@ABV01@@Z 00414ba0 f i vacommon:VAString.obj
 0001:00013ba0       ??$?0_N@?$allocator@V_Aux_cont@std@@@std@@QAE@ABV?$allocator@_N@1@@Z 00414ba0 f i vacommon:Manip.obj
 0001:00013bc0       ??$unchecked_copy@PAIPAI@stdext@@YAPAIPAI00@Z 00414bc0 f i vacommon:Manip.obj
 0001:00013c30       ??$_Transform@PADV?$_String_iterator@DU?$char_traits@D@std@@V?$allocator@D@2@@std@@P6AHH@Z@std@@YA?AV?$_String_iterator@DU?$char_traits@D@std@@V?$allocator@D@2@@0@PAD0V10@P6AHH@ZUrandom_access_iterator_tag@0@U_Range_checked_iterator_tag@0@@Z 00414c30 f i vacommon:Manip.obj
 0001:00013ca0       ??$_Copy_opt@PAIPAIUrandom_access_iterator_tag@std@@@std@@YAPAIPAI00Urandom_access_iterator_tag@0@U_Scalar_ptr_iterator_tag@0@U_Range_checked_iterator_tag@0@@Z 00414ca0 f i vacommon:Manip.obj
 0001:00013cf0       ??H?$_String_iterator@DU?$char_traits@D@std@@V?$allocator@D@2@@std@@QBE?AV01@H@Z 00414cf0 f i vacommon:Manip.obj
 0001:00013d30       ??Y?$_String_iterator@DU?$char_traits@D@std@@V?$allocator@D@2@@std@@QAEAAV01@H@Z 00414d30 f i vacommon:Manip.obj
 0001:00013d60       ??Y?$_String_const_iterator@DU?$char_traits@D@std@@V?$allocator@D@2@@std@@QAEAAV01@H@Z 00414d60 f i vacommon:Manip.obj
 0001:00013df0       ??$_Transform@PADPADP6AHH@ZUforward_iterator_tag@std@@@std@@YAPADPAD00P6AHH@ZUforward_iterator_tag@0@U_Range_checked_iterator_tag@0@@Z 00414df0 f i vacommon:Manip.obj
 0001:00013e40       ?_Checked_iterator_base@?$_Vector_const_iterator@V?$basic_string@DU?$char_traits@D@std@@V?$allocator@D@2@@std@@V?$allocator@V?$basic_string@DU?$char_traits@D@std@@V?$allocator@D@2@@std@@@2@@std@@QBEPBV?$basic_string@DU?$char_traits@D@std@@V?$allocator@D@2@@2@XZ 00414e40 f i vacommon:VAString.obj
 0001:00013e40       ?GetThreadID@CThread@@IBEKXZ 00414e40 f i Thread.obj
 0001:00013e40       ?_Checked_iterator_base@?$_String_iterator@DU?$char_traits@D@std@@V?$allocator@D@2@@std@@QBEPADXZ 00414e40 f i vacommon:Manip.obj
 0001:00013e40       ?GetLength@U8String@VA@@QBEIXZ 00414e40 f i vacommon:VAString.obj
 0001:00013e40       ?_Checked_iterator_base@?$_Vector_iterator@V?$basic_string@DU?$char_traits@D@std@@V?$allocator@D@2@@std@@V?$allocator@V?$basic_string@DU?$char_traits@D@std@@V?$allocator@D@2@@std@@@2@@std@@QBEPAV?$basic_string@DU?$char_traits@D@std@@V?$allocator@D@2@@2@XZ 00414e40 f i vacommon:Path.obj
 0001:00013e40       ?GetLength@U16String@VA@@QBEIXZ 00414e40 f i vacommon:VAString.obj
 0001:00013e60       ??0Tokenizer@str@@QAE@ABV?$basic_string@DU?$char_traits@D@std@@V?$allocator@D@2@@std@@0@Z 00414e60 f   vacommon:Tokenizer.obj
 0001:00013f70       _ISSSetMachineCode@4       00414f70 f   libissauth:libissauth.dll
 0001:00013f76       _waveInAddBuffer@12        00414f76 f   winmm:WINMM.dll
 0001:00013f7c       _waveInPrepareHeader@12    00414f7c f   winmm:WINMM.dll
 0001:00013f82       _waveInOpen@24             00414f82 f   winmm:WINMM.dll
 0001:00013f88       _waveInClose@4             00414f88 f   winmm:WINMM.dll
 0001:00013f8e       _waveInReset@4             00414f8e f   winmm:WINMM.dll
 0001:00013f94       _waveInStart@4             00414f94 f   winmm:WINMM.dll
 0001:00013f9a       _waveInStop@4              00414f9a f   winmm:WINMM.dll
 0001:00013fa0       _waveInUnprepareHeader@12  00414fa0 f   winmm:WINMM.dll
 0001:00013fa6       ??2@YAPAXI@Z               00414fa6 f   MSVCRT:MSVCR90.dll
 0001:00013fac       ??0type_info@@AAE@ABV0@@Z  00414fac f   MSVCRT:ti_inst.obj
 0001:00013fb7       ??_Etype_info@@UAEPAXI@Z   00414fb7 f i MSVCRT:ti_inst.obj
 0001:00014003       ??4type_info@@AAEAAV0@ABV0@@Z 00415003 f   MSVCRT:ti_inst.obj
 0001:00014008       ??3@YAXPAX@Z               00415008 f   MSVCRT:MSVCR90.dll
 0001:0001400e       _fprintf                   0041500e f   MSVCRT:MSVCR90.dll
 0001:00014014       ___iob_func                00415014 f   MSVCRT:MSVCR90.dll
 0001:0001401a       ___CxxFrameHandler3        0041501a f   MSVCRT:MSVCR90.dll
 0001:00014020       @__security_check_cookie@4 00415020 f   MSVCRT:secchk.obj
 0001:00014030       _fread                     00415030 f   MSVCRT:MSVCR90.dll
 0001:00014036       _memset                    00415036 f   MSVCRT:MSVCR90.dll
 0001:0001403c       _malloc                    0041503c f   MSVCRT:MSVCR90.dll
 0001:00014042       _fclose                    00415042 f   MSVCRT:MSVCR90.dll
 0001:00014048       _ftell                     00415048 f   MSVCRT:MSVCR90.dll
 0001:0001404e       _fseek                     0041504e f   MSVCRT:MSVCR90.dll
 0001:00014054       _fopen                     00415054 f   MSVCRT:MSVCR90.dll
 0001:0001405a       _free                      0041505a f   MSVCRT:MSVCR90.dll
 0001:00014060       _system                    00415060 f   MSVCRT:MSVCR90.dll
 0001:00014066       _printf                    00415066 f   MSVCRT:MSVCR90.dll
 0001:0001406c       _strcat                    0041506c f   MSVCRT:MSVCR90.dll
 0001:00014072       __purecall                 00415072 f   MSVCRT:MSVCR90.dll
 0001:00014078       _NtCurrentTeb              00415078 f i MSVCRT:wcrtexe.obj
 0001:00014380       _wmainCRTStartup           00415380 f   MSVCRT:wcrtexe.obj
 0001:0001438a       _isspace                   0041538a f   MSVCRT:MSVCR90.dll
 0001:00014390       __vscprintf                00415390 f   MSVCRT:MSVCR90.dll
 0001:00014396       __vsnprintf                00415396 f   MSVCRT:MSVCR90.dll
 0001:0001439c       __vscwprintf               0041539c f   MSVCRT:MSVCR90.dll
 0001:000143a2       __vsnwprintf               004153a2 f   MSVCRT:MSVCR90.dll
 0001:000143a8       ??_U@YAPAXI@Z              004153a8 f   MSVCRT:MSVCR90.dll
 0001:000143ae       _wcslen                    004153ae f   MSVCRT:MSVCR90.dll
 0001:000143b4       ??_V@YAXPAX@Z              004153b4 f   MSVCRT:MSVCR90.dll
 0001:000143ba       _strlen                    004153ba f   MSVCRT:MSVCR90.dll
 0001:000143c0       _strstr                    004153c0 f   MSVCRT:MSVCR90.dll
 0001:000143c6       _toupper                   004153c6 f   MSVCRT:MSVCR90.dll
 0001:000143cc       _islower                   004153cc f   MSVCRT:MSVCR90.dll
 0001:000143d2       _tolower                   004153d2 f   MSVCRT:MSVCR90.dll
 0001:000143d8       _isupper                   004153d8 f   MSVCRT:MSVCR90.dll
 0001:000143de       __CxxThrowException@8      004153de f   MSVCRT:MSVCR90.dll
 0001:000143e4       _strcmp                    004153e4 f   MSVCRT:MSVCR90.dll
 0001:000143ea       __stricmp                  004153ea f   MSVCRT:MSVCR90.dll
 0001:000143f0       _memmove                   004153f0 f   MSVCRT:MSVCR90.dll
 0001:000143f6       _strchr                    004153f6 f   MSVCRT:MSVCR90.dll
 0001:000143fc       _strpbrk                   004153fc f   MSVCRT:MSVCR90.dll
 0001:00014410       __alloca_probe_16          00415410 f   MSVCRT:alloca16.obj
 0001:00014426       __alloca_probe_8           00415426     MSVCRT:alloca16.obj
 0001:0001443c       _strrchr                   0041543c f   MSVCRT:MSVCR90.dll
 0001:00014442       _wcscmp                    00415442 f   MSVCRT:MSVCR90.dll
 0001:00014448       __wcsicmp                  00415448 f   MSVCRT:MSVCR90.dll
 0001:0001444e       _wcschr                    0041544e f   MSVCRT:MSVCR90.dll
 0001:00014454       _wcsrchr                   00415454 f   MSVCRT:MSVCR90.dll
 0001:0001445a       _wcsstr                    0041545a f   MSVCRT:MSVCR90.dll
 0001:00014460       _wcspbrk                   00415460 f   MSVCRT:MSVCR90.dll
 0001:00014466       ??0exception@std@@QAE@ABV01@@Z 00415466 f   MSVCRT:MSVCR90.dll
 0001:0001446c       ??1exception@std@@UAE@XZ   0041546c f   MSVCRT:MSVCR90.dll
 0001:00014472       ??0exception@std@@QAE@XZ   00415472 f   MSVCRT:MSVCR90.dll
 0001:00014478       __invalid_parameter_noinfo 00415478 f   MSVCRT:MSVCR90.dll
 0001:0001447e       ??0exception@std@@QAE@ABQBD@Z 0041547e f   MSVCRT:MSVCR90.dll
 0001:00014484       ?what@exception@std@@UBEPBDXZ 00415484 f   MSVCRT:MSVCR90.dll
 0001:0001448a       __findclose                0041548a f   MSVCRT:MSVCR90.dll
 0001:00014490       __findnext64i32            00415490 f   MSVCRT:MSVCR90.dll
 0001:00014496       _remove                    00415496 f   MSVCRT:MSVCR90.dll
 0001:0001449c       __findfirst64i32           0041549c f   MSVCRT:MSVCR90.dll
 0001:000144a2       _memcpy                    004154a2 f   MSVCRT:MSVCR90.dll
 0001:000144a8       _feof                      004154a8 f   MSVCRT:MSVCR90.dll
 0001:000144ae       _fwrite                    004154ae f   MSVCRT:MSVCR90.dll
 0001:000144b4       _strcpy                    004154b4 f   MSVCRT:MSVCR90.dll
 0001:000144ba       __errno                    004154ba f   MSVCRT:MSVCR90.dll
 0001:000144c0       _sprintf                   004154c0 f   MSVCRT:MSVCR90.dll
 0001:000144c6       _strncpy                   004154c6 f   MSVCRT:MSVCR90.dll
 0001:000144cc       _memmove_s                 004154cc f   MSVCRT:MSVCR90.dll
 0001:000144d2       _isalpha                   004154d2 f   MSVCRT:MSVCR90.dll
 0001:000144d8       _isdigit                   004154d8 f   MSVCRT:MSVCR90.dll
 0001:000144f0       ?__ArrayUnwind@@YGXPAXIHP6EX0@Z@Z 004154f0 f   MSVCRT:ehvecdtr.obj
 0001:0001454e       ??_M@YGXPAXIHP6EX0@Z@Z     0041554e f   MSVCRT:ehvecdtr.obj
 0001:000145b1       ___report_gsfailure        004155b1 f   MSVCRT:gs_report.obj
 0001:000146b7       ?__CxxUnhandledExceptionFilter@@YGJPAU_EXCEPTION_POINTERS@@@Z 004156b7 f   MSVCRT:unhandld.obj
 0001:000146f9       ___CxxSetUnhandledExceptionFilter 004156f9 f   MSVCRT:unhandld.obj
 0001:00014708       __amsg_exit                00415708 f   MSVCRT:MSVCR90.dll
 0001:0001470e       ___wgetmainargs            0041570e f   MSVCRT:MSVCR90.dll
 0001:00014714       __onexit                   00415714 f   MSVCRT:atonexit.obj
 0001:000147b9       _atexit                    004157b9 f   MSVCRT:atonexit.obj
 0001:000147d0       __RTC_Initialize           004157d0 f   MSVCRT:_initsect_.obj
 0001:000147f6       __RTC_Terminate            004157f6 f   MSVCRT:_initsect_.obj
 0001:0001481c       __cexit                    0041581c f   MSVCRT:MSVCR90.dll
 0001:00014822       __exit                     00415822 f   MSVCRT:MSVCR90.dll
 0001:00014828       __XcptFilter               00415828 f   MSVCRT:MSVCR90.dll
 0001:0001482e       _exit                      0041582e f   MSVCRT:MSVCR90.dll
 0001:00014840       __ValidateImageBase        00415840 f   MSVCRT:pesect.obj
 0001:00014880       __FindPESection            00415880 f   MSVCRT:pesect.obj
 0001:000148d0       __IsNonwritableInCurrentImage 004158d0 f   MSVCRT:pesect.obj
 0001:0001498e       __initterm                 0041598e f   MSVCRT:MSVCR90.dll
 0001:00014994       __initterm_e               00415994 f   MSVCRT:MSVCR90.dll
 0001:0001499c       __SEH_prolog4              0041599c f   MSVCRT:sehprolg4.obj
 0001:000149e1       __SEH_epilog4              004159e1 f   MSVCRT:sehprolg4.obj
 0001:000149f5       __except_handler4          004159f5 f   MSVCRT:chandler4gs.obj
 0001:00014a1a       __configthreadlocale       00415a1a f   MSVCRT:MSVCR90.dll
 0001:00014a20       __invoke_watson_if_error   00415a20 f i MSVCRT:fp8.obj
 0001:00014a44       __setdefaultprecision      00415a44 f   MSVCRT:fp8.obj
 0001:00014a70       ___setusermatherr          00415a70 f   MSVCRT:MSVCR90.dll
 0001:00014a76       __matherr                  00415a76 f   MSVCRT:merr.obj
 0001:00014a76       __wsetargv                 00415a76 f   MSVCRT:wdllargv.obj
 0001:00014a7a       ___p__commode              00415a7a f   MSVCRT:MSVCR90.dll
 0001:00014a80       ___p__fmode                00415a80 f   MSVCRT:MSVCR90.dll
 0001:00014a86       __encode_pointer           00415a86 f   MSVCRT:MSVCR90.dll
 0001:00014a8c       ___set_app_type            00415a8c f   MSVCRT:MSVCR90.dll
 0001:00014a92       ___security_init_cookie    00415a92 f   MSVCRT:gs_support.obj
 0001:00014b30       __chkstk                   00415b30 f   MSVCRT:chkstk.obj
 0001:00014b30       __alloca_probe             00415b30     MSVCRT:chkstk.obj
 0001:00014b5c       ?terminate@@YAXXZ          00415b5c f   MSVCRT:MSVCR90.dll
 0001:00014b62       ??1type_info@@UAE@XZ       00415b62 f   MSVCRT:MSVCR90.dll
 0001:00014b62       ?_type_info_dtor_internal_method@type_info@@QAEXXZ 00415b62 f   MSVCRT:MSVCR90.dll
 0001:00014b68       __crt_debugger_hook        00415b68 f   MSVCRT:MSVCR90.dll
 0001:00014b6e       __unlock                   00415b6e f   MSVCRT:MSVCR90.dll
 0001:00014b74       ___dllonexit               00415b74 f   MSVCRT:MSVCR90.dll
 0001:00014b7a       __lock                     00415b7a f   MSVCRT:MSVCR90.dll
 0001:00014b80       __decode_pointer           00415b80 f   MSVCRT:MSVCR90.dll
 0001:00014b86       __except_handler4_common   00415b86 f   MSVCRT:MSVCR90.dll
 0001:00014b8c       __invoke_watson            00415b8c f   MSVCRT:MSVCR90.dll
 0001:00014b92       __controlfp_s              00415b92 f   MSVCRT:MSVCR90.dll
 0001:00014b98       ??$?HDU?$char_traits@D@std@@V?$allocator@D@1@@std@@YA?AV?$basic_string@DU?$char_traits@D@std@@V?$allocator@D@2@@0@ABV10@PBD@Z 00415b98 f   msvcprt:MSVCP90.dll
 0001:00014b9e       ??1?$basic_string@DU?$char_traits@D@std@@V?$allocator@D@2@@std@@QAE@XZ 00415b9e f   msvcprt:MSVCP90.dll
 0001:00014ba4       ?c_str@?$basic_string@DU?$char_traits@D@std@@V?$allocator@D@2@@std@@QBEPBDXZ 00415ba4 f   msvcprt:MSVCP90.dll
 0001:00014baa       ??Y?$basic_string@DU?$char_traits@D@std@@V?$allocator@D@2@@std@@QAEAAV01@PBD@Z 00415baa f   msvcprt:MSVCP90.dll
 0001:00014bb0       ?erase@?$basic_string@DU?$char_traits@D@std@@V?$allocator@D@2@@std@@QAEAAV12@II@Z 00415bb0 f   msvcprt:MSVCP90.dll
 0001:00014bb6       ??A?$basic_string@DU?$char_traits@D@std@@V?$allocator@D@2@@std@@QAEAADI@Z 00415bb6 f   msvcprt:MSVCP90.dll
 0001:00014bbc       ?length@?$basic_string@DU?$char_traits@D@std@@V?$allocator@D@2@@std@@QBEIXZ 00415bbc f   msvcprt:MSVCP90.dll
 0001:00014bc2       ??0?$basic_string@DU?$char_traits@D@std@@V?$allocator@D@2@@std@@QAE@ABV01@@Z 00415bc2 f   msvcprt:MSVCP90.dll
 0001:00014bc8       ?empty@?$basic_string@DU?$char_traits@D@std@@V?$allocator@D@2@@std@@QBE_NXZ 00415bc8 f   msvcprt:MSVCP90.dll
 0001:00014bce       ??_D?$basic_stringstream@DU?$char_traits@D@std@@V?$allocator@D@2@@std@@QAEXXZ 00415bce f   msvcprt:MSVCP90.dll
 0001:00014bd4       ??Bios_base@std@@QBEPAXXZ  00415bd4 f   msvcprt:MSVCP90.dll
 0001:00014bda       ??$getline@DU?$char_traits@D@std@@V?$allocator@D@2@@std@@YAAAV?$basic_istream@DU?$char_traits@D@std@@@0@AAV10@AAV?$basic_string@DU?$char_traits@D@std@@V?$allocator@D@2@@0@D@Z 00415bda f   msvcprt:MSVCP90.dll
 0001:00014be0       ??0?$basic_string@DU?$char_traits@D@std@@V?$allocator@D@2@@std@@QAE@XZ 00415be0 f   msvcprt:MSVCP90.dll
 0001:00014be6       ??0?$basic_stringstream@DU?$char_traits@D@std@@V?$allocator@D@2@@std@@QAE@ABV?$basic_string@DU?$char_traits@D@std@@V?$allocator@D@2@@1@H@Z 00415be6 f   msvcprt:MSVCP90.dll
 0001:00014bec       ?resize@?$basic_string@DU?$char_traits@D@std@@V?$allocator@D@2@@std@@QAEXI@Z 00415bec f   msvcprt:MSVCP90.dll
 0001:00014bf2       ??Y?$basic_string@DU?$char_traits@D@std@@V?$allocator@D@2@@std@@QAEAAV01@ABV01@@Z 00415bf2 f   msvcprt:MSVCP90.dll
 0001:00014bf8       ??A?$basic_string@_WU?$char_traits@_W@std@@V?$allocator@_W@2@@std@@QAEAA_WI@Z 00415bf8 f   msvcprt:MSVCP90.dll
 0001:00014bfe       ?resize@?$basic_string@_WU?$char_traits@_W@std@@V?$allocator@_W@2@@std@@QAEXI@Z 00415bfe f   msvcprt:MSVCP90.dll
 0001:00014c04       ??1?$basic_string@_WU?$char_traits@_W@std@@V?$allocator@_W@2@@std@@QAE@XZ 00415c04 f   msvcprt:MSVCP90.dll
 0001:00014c0a       ??Y?$basic_string@_WU?$char_traits@_W@std@@V?$allocator@_W@2@@std@@QAEAAV01@ABV01@@Z 00415c0a f   msvcprt:MSVCP90.dll
 0001:00014c10       ??0?$basic_string@_WU?$char_traits@_W@std@@V?$allocator@_W@2@@std@@QAE@XZ 00415c10 f   msvcprt:MSVCP90.dll
 0001:00014c16       ??6?$basic_ostream@DU?$char_traits@D@std@@@std@@QAEAAV01@P6AAAV01@AAV01@@Z@Z 00415c16 f   msvcprt:MSVCP90.dll
 0001:00014c1c       ?endl@std@@YAAAV?$basic_ostream@DU?$char_traits@D@std@@@1@AAV21@@Z 00415c1c f   msvcprt:MSVCP90.dll
 0001:00014c22       ??0?$basic_string@DU?$char_traits@D@std@@V?$allocator@D@2@@std@@QAE@PBD@Z 00415c22 f   msvcprt:MSVCP90.dll
 0001:00014c28       ?setstate@?$basic_ios@DU?$char_traits@D@std@@@std@@QAEXH_N@Z 00415c28 f   msvcprt:MSVCP90.dll
 0001:00014c2e       ?width@ios_base@std@@QAEHH@Z 00415c2e f   msvcprt:MSVCP90.dll
 0001:00014c34       ?sputn@?$basic_streambuf@DU?$char_traits@D@std@@@std@@QAEHPBDH@Z 00415c34 f   msvcprt:MSVCP90.dll
 0001:00014c3a       ?eq_int_type@?$char_traits@D@std@@SA_NABH0@Z 00415c3a f   msvcprt:MSVCP90.dll
 0001:00014c40       ?eof@?$char_traits@D@std@@SAHXZ 00415c40 f   msvcprt:MSVCP90.dll
 0001:00014c46       ?sputc@?$basic_streambuf@DU?$char_traits@D@std@@@std@@QAEHD@Z 00415c46 f   msvcprt:MSVCP90.dll
 0001:00014c4c       ?rdbuf@?$basic_ios@DU?$char_traits@D@std@@@std@@QBEPAV?$basic_streambuf@DU?$char_traits@D@std@@@2@XZ 00415c4c f   msvcprt:MSVCP90.dll
 0001:00014c52       ?fill@?$basic_ios@DU?$char_traits@D@std@@@std@@QBEDXZ 00415c52 f   msvcprt:MSVCP90.dll
 0001:00014c58       ?flags@ios_base@std@@QBEHXZ 00415c58 f   msvcprt:MSVCP90.dll
 0001:00014c5e       ?width@ios_base@std@@QBEHXZ 00415c5e f   msvcprt:MSVCP90.dll
 0001:00014c64       ?length@?$char_traits@D@std@@SAIPBD@Z 00415c64 f   msvcprt:MSVCP90.dll
 0001:00014c6a       ?flush@?$basic_ostream@DU?$char_traits@D@std@@@std@@QAEAAV12@XZ 00415c6a f   msvcprt:MSVCP90.dll
 0001:00014c70       ?tie@?$basic_ios@DU?$char_traits@D@std@@@std@@QBEPAV?$basic_ostream@DU?$char_traits@D@std@@@2@XZ 00415c70 f   msvcprt:MSVCP90.dll
 0001:00014c76       ?good@ios_base@std@@QBE_NXZ 00415c76 f   msvcprt:MSVCP90.dll
 0001:00014c7c       ?_Osfx@?$basic_ostream@DU?$char_traits@D@std@@@std@@QAEXXZ 00415c7c f   msvcprt:MSVCP90.dll
 0001:00014c82       ?uncaught_exception@std@@YA_NXZ 00415c82 f   msvcprt:MSVCP90.dll
 0001:00014c88       ?_Lock@?$basic_streambuf@DU?$char_traits@D@std@@@std@@QAEXXZ 00415c88 f   msvcprt:MSVCP90.dll
 0001:00014c8e       ?_Unlock@?$basic_streambuf@DU?$char_traits@D@std@@@std@@QAEXXZ 00415c8e f   msvcprt:MSVCP90.dll
 0001:00014c94       ??4?$basic_string@DU?$char_traits@D@std@@V?$allocator@D@2@@std@@QAEAAV01@ABV01@@Z 00415c94 f   msvcprt:MSVCP90.dll
 0001:00014c9a       ?swap@?$basic_string@DU?$char_traits@D@std@@V?$allocator@D@2@@std@@QAEXAAV12@@Z 00415c9a f   msvcprt:MSVCP90.dll
 0001:00014ca0       ??A?$basic_string@DU?$char_traits@D@std@@V?$allocator@D@2@@std@@QBEABDI@Z 00415ca0 f   msvcprt:MSVCP90.dll
 0001:00014ca6       ??_D?$basic_ostringstream@DU?$char_traits@D@std@@V?$allocator@D@2@@std@@QAEXXZ 00415ca6 f   msvcprt:MSVCP90.dll
 0001:00014cac       ?str@?$basic_ostringstream@DU?$char_traits@D@std@@V?$allocator@D@2@@std@@QBE?AV?$basic_string@DU?$char_traits@D@std@@V?$allocator@D@2@@2@XZ 00415cac f   msvcprt:MSVCP90.dll
 0001:00014cb2       ??$?6DU?$char_traits@D@std@@V?$allocator@D@1@@std@@YAAAV?$basic_ostream@DU?$char_traits@D@std@@@0@AAV10@ABV?$basic_string@DU?$char_traits@D@std@@V?$allocator@D@2@@0@@Z 00415cb2 f   msvcprt:MSVCP90.dll
 0001:00014cb8       ??0?$basic_ostringstream@DU?$char_traits@D@std@@V?$allocator@D@2@@std@@QAE@H@Z 00415cb8 f   msvcprt:MSVCP90.dll
 0001:00014cbe       ??$?8DU?$char_traits@D@std@@V?$allocator@D@1@@std@@YA_NABV?$basic_string@DU?$char_traits@D@std@@V?$allocator@D@2@@0@PBD@Z 00415cbe f   msvcprt:MSVCP90.dll
 0001:00014cc4       ??$?9DU?$char_traits@D@std@@V?$allocator@D@1@@std@@YA_NABV?$basic_string@DU?$char_traits@D@std@@V?$allocator@D@2@@0@PBD@Z 00415cc4 f   msvcprt:MSVCP90.dll
 0001:00014cca       ??$?9DU?$char_traits@D@std@@V?$allocator@D@1@@std@@YA_NABV?$basic_string@DU?$char_traits@D@std@@V?$allocator@D@2@@0@0@Z 00415cca f   msvcprt:MSVCP90.dll
 0001:00014cd0       ?find_first_not_of@?$basic_string@DU?$char_traits@D@std@@V?$allocator@D@2@@std@@QBEIABV12@I@Z 00415cd0 f   msvcprt:MSVCP90.dll
 0001:00014cd6       ?append@?$basic_string@DU?$char_traits@D@std@@V?$allocator@D@2@@std@@QAEAAV12@PBD@Z 00415cd6 f   msvcprt:MSVCP90.dll
 0001:00014cdc       ?find_last_not_of@?$basic_string@DU?$char_traits@D@std@@V?$allocator@D@2@@std@@QBEIABV12@I@Z 00415cdc f   msvcprt:MSVCP90.dll
 0001:00014ce2       ?substr@?$basic_string@DU?$char_traits@D@std@@V?$allocator@D@2@@std@@QBE?AV12@II@Z 00415ce2 f   msvcprt:MSVCP90.dll
 0001:00014ce8       ?find_last_of@?$basic_string@DU?$char_traits@D@std@@V?$allocator@D@2@@std@@QBEIABV12@I@Z 00415ce8 f   msvcprt:MSVCP90.dll
 0001:00014cee       ?rfind@?$basic_string@DU?$char_traits@D@std@@V?$allocator@D@2@@std@@QBEIPBDI@Z 00415cee f   msvcprt:MSVCP90.dll
 0001:00014cf4       ?find@?$basic_string@DU?$char_traits@D@std@@V?$allocator@D@2@@std@@QBEIPBDI@Z 00415cf4 f   msvcprt:MSVCP90.dll
 0001:00014cfa       ??$?5DU?$char_traits@D@std@@V?$allocator@D@1@@std@@YAAAV?$basic_istream@DU?$char_traits@D@std@@@0@AAV10@AAV?$basic_string@DU?$char_traits@D@std@@V?$allocator@D@2@@0@@Z 00415cfa f   msvcprt:MSVCP90.dll
 0001:00014d00       ?replace@?$basic_string@DU?$char_traits@D@std@@V?$allocator@D@2@@std@@QAEAAV12@IIABV12@@Z 00415d00 f   msvcprt:MSVCP90.dll
 0001:00014d06       ?find@?$basic_string@DU?$char_traits@D@std@@V?$allocator@D@2@@std@@QBEIABV12@I@Z 00415d06 f   msvcprt:MSVCP90.dll
 0001:00014d0c       ?end@?$basic_string@DU?$char_traits@D@std@@V?$allocator@D@2@@std@@QBE?AV?$_String_const_iterator@DU?$char_traits@D@std@@V?$allocator@D@2@@2@XZ 00415d0c f   msvcprt:MSVCP90.dll
 0001:00014d12       ?begin@?$basic_string@DU?$char_traits@D@std@@V?$allocator@D@2@@std@@QBE?AV?$_String_const_iterator@DU?$char_traits@D@std@@V?$allocator@D@2@@2@XZ 00415d12 f   msvcprt:MSVCP90.dll
 0001:00014d18       ?end@?$basic_string@DU?$char_traits@D@std@@V?$allocator@D@2@@std@@QAE?AV?$_String_iterator@DU?$char_traits@D@std@@V?$allocator@D@2@@2@XZ 00415d18 f   msvcprt:MSVCP90.dll
 0001:00014d1e       ?begin@?$basic_string@DU?$char_traits@D@std@@V?$allocator@D@2@@std@@QAE?AV?$_String_iterator@DU?$char_traits@D@std@@V?$allocator@D@2@@2@XZ 00415d1e f   msvcprt:MSVCP90.dll
 0001:00014d24       ?_Myptr@?$basic_string@DU?$char_traits@D@std@@V?$allocator@D@2@@std@@IAEPADXZ 00415d24 f   msvcprt:MSVCP90.dll
 0001:00014d2a       ?find_first_of@?$basic_string@DU?$char_traits@D@std@@V?$allocator@D@2@@std@@QBEIABV12@I@Z 00415d2a f   msvcprt:MSVCP90.dll
 0001:00014d30       _GetTickCount@0            00415d30 f   kernel32:KERNEL32.dll
 0001:00014d36       _Sleep@4                   00415d36 f   kernel32:KERNEL32.dll
 0001:00014d3c       _SetThreadPriority@8       00415d3c f   kernel32:KERNEL32.dll
 0001:00014d42       _GetThreadPriority@4       00415d42 f   kernel32:KERNEL32.dll
 0001:00014d48       _SuspendThread@4           00415d48 f   kernel32:KERNEL32.dll
 0001:00014d4e       _ResumeThread@4            00415d4e f   kernel32:KERNEL32.dll
 0001:00014d54       _CreateThread@24           00415d54 f   kernel32:KERNEL32.dll
 0001:00014d5a       _FindClose@4               00415d5a f   kernel32:KERNEL32.dll
 0001:00014d60       _FindFirstFileW@8          00415d60 f   kernel32:KERNEL32.dll
 0001:00014d66       _RemoveDirectoryW@4        00415d66 f   kernel32:KERNEL32.dll
 0001:00014d6c       _CreateDirectoryW@8        00415d6c f   kernel32:KERNEL32.dll
 0001:00014d72       _GetFileAttributesA@4      00415d72 f   kernel32:KERNEL32.dll
 0001:00014d78       _GetModuleFileNameA@12     00415d78 f   kernel32:KERNEL32.dll
 0001:00014d7e       _DeleteFileA@4             00415d7e f   kernel32:KERNEL32.dll
 0001:00014d84       _RemoveDirectoryA@4        00415d84 f   kernel32:KERNEL32.dll
 0001:00014d8a       _MoveFileA@8               00415d8a f   kernel32:KERNEL32.dll
 0001:00014d90       _InterlockedExchange@8     00415d90 f   kernel32:KERNEL32.dll
 0001:00014d96       _InterlockedCompareExchange@12 00415d96 f   kernel32:KERNEL32.dll
 0001:00014d9c       _TerminateProcess@8        00415d9c f   kernel32:KERNEL32.dll
 0001:00014da2       _GetCurrentProcess@0       00415da2 f   kernel32:KERNEL32.dll
 0001:00014da8       _UnhandledExceptionFilter@4 00415da8 f   kernel32:KERNEL32.dll
 0001:00014dae       _SetUnhandledExceptionFilter@4 00415dae f   kernel32:KERNEL32.dll
 0001:00014db4       _IsDebuggerPresent@0       00415db4 f   kernel32:KERNEL32.dll
 0001:00014dba       _QueryPerformanceCounter@4 00415dba f   kernel32:KERNEL32.dll
 0001:00014dc0       _GetCurrentThreadId@0      00415dc0 f   kernel32:KERNEL32.dll
 0001:00014dc6       _GetCurrentProcessId@0     00415dc6 f   kernel32:KERNEL32.dll
 0001:00014dcc       _GetSystemTimeAsFileTime@4 00415dcc f   kernel32:KERNEL32.dll
 0001:00014dd2       __getch                    00415dd2 f   MSVCRT:MSVCR90.dll
 0002:00000000       __imp__SuspendThread@4     00418000     kernel32:KERNEL32.dll
 0002:00000004       __imp__GetSystemTimeAsFileTime@4 00418004     kernel32:KERNEL32.dll
 0002:00000008       __imp__GetCurrentProcessId@0 00418008     kernel32:KERNEL32.dll
 0002:0000000c       __imp__GetCurrentThreadId@0 0041800c     kernel32:KERNEL32.dll
 0002:00000010       __imp__QueryPerformanceCounter@4 00418010     kernel32:KERNEL32.dll
 0002:00000014       __imp__IsDebuggerPresent@0 00418014     kernel32:KERNEL32.dll
 0002:00000018       __imp__SetUnhandledExceptionFilter@4 00418018     kernel32:KERNEL32.dll
 0002:0000001c       __imp__UnhandledExceptionFilter@4 0041801c     kernel32:KERNEL32.dll
 0002:00000020       __imp__GetCurrentProcess@0 00418020     kernel32:KERNEL32.dll
 0002:00000024       __imp__TerminateProcess@8  00418024     kernel32:KERNEL32.dll
 0002:00000028       __imp__InterlockedCompareExchange@12 00418028     kernel32:KERNEL32.dll
 0002:0000002c       __imp__InterlockedExchange@8 0041802c     kernel32:KERNEL32.dll
 0002:00000030       __imp__MoveFileA@8         00418030     kernel32:KERNEL32.dll
 0002:00000034       __imp__RemoveDirectoryA@4  00418034     kernel32:KERNEL32.dll
 0002:00000038       __imp__DeleteFileA@4       00418038     kernel32:KERNEL32.dll
 0002:0000003c       __imp__GetModuleFileNameA@12 0041803c     kernel32:KERNEL32.dll
 0002:00000040       __imp__GetFileAttributesA@4 00418040     kernel32:KERNEL32.dll
 0002:00000044       __imp__CreateDirectoryW@8  00418044     kernel32:KERNEL32.dll
 0002:00000048       __imp__RemoveDirectoryW@4  00418048     kernel32:KERNEL32.dll
 0002:0000004c       __imp__FindFirstFileW@8    0041804c     kernel32:KERNEL32.dll
 0002:00000050       __imp__FindClose@4         00418050     kernel32:KERNEL32.dll
 0002:00000054       __imp__CreateThread@24     00418054     kernel32:KERNEL32.dll
 0002:00000058       __imp__ResumeThread@4      00418058     kernel32:KERNEL32.dll
 0002:0000005c       __imp__SetThreadPriority@8 0041805c     kernel32:KERNEL32.dll
 0002:00000060       __imp__Sleep@4             00418060     kernel32:KERNEL32.dll
 0002:00000064       __imp__GetTickCount@0      00418064     kernel32:KERNEL32.dll
 0002:00000068       __imp__GetThreadPriority@4 00418068     kernel32:KERNEL32.dll
 0002:0000006c       \177KERNEL32_NULL_THUNK_DATA 0041806c     kernel32:KERNEL32.dll
 0002:00000070       __imp_?_Myptr@?$basic_string@DU?$char_traits@D@std@@V?$allocator@D@2@@std@@IAEPADXZ 00418070     msvcprt:MSVCP90.dll
 0002:00000074       __imp_?begin@?$basic_string@DU?$char_traits@D@std@@V?$allocator@D@2@@std@@QAE?AV?$_String_iterator@DU?$char_traits@D@std@@V?$allocator@D@2@@2@XZ 00418074     msvcprt:MSVCP90.dll
 0002:00000078       __imp_?end@?$basic_string@DU?$char_traits@D@std@@V?$allocator@D@2@@std@@QAE?AV?$_String_iterator@DU?$char_traits@D@std@@V?$allocator@D@2@@2@XZ 00418078     msvcprt:MSVCP90.dll
 0002:0000007c       __imp_?begin@?$basic_string@DU?$char_traits@D@std@@V?$allocator@D@2@@std@@QBE?AV?$_String_const_iterator@DU?$char_traits@D@std@@V?$allocator@D@2@@2@XZ 0041807c     msvcprt:MSVCP90.dll
 0002:00000080       __imp_?end@?$basic_string@DU?$char_traits@D@std@@V?$allocator@D@2@@std@@QBE?AV?$_String_const_iterator@DU?$char_traits@D@std@@V?$allocator@D@2@@2@XZ 00418080     msvcprt:MSVCP90.dll
 0002:00000084       __imp_?find@?$basic_string@DU?$char_traits@D@std@@V?$allocator@D@2@@std@@QBEIABV12@I@Z 00418084     msvcprt:MSVCP90.dll
 0002:00000088       __imp_?replace@?$basic_string@DU?$char_traits@D@std@@V?$allocator@D@2@@std@@QAEAAV12@IIABV12@@Z 00418088     msvcprt:MSVCP90.dll
 0002:0000008c       __imp_??$?5DU?$char_traits@D@std@@V?$allocator@D@1@@std@@YAAAV?$basic_istream@DU?$char_traits@D@std@@@0@AAV10@AAV?$basic_string@DU?$char_traits@D@std@@V?$allocator@D@2@@0@@Z 0041808c     msvcprt:MSVCP90.dll
 0002:00000090       __imp_?find@?$basic_string@DU?$char_traits@D@std@@V?$allocator@D@2@@std@@QBEIPBDI@Z 00418090     msvcprt:MSVCP90.dll
 0002:00000094       __imp_?rfind@?$basic_string@DU?$char_traits@D@std@@V?$allocator@D@2@@std@@QBEIPBDI@Z 00418094     msvcprt:MSVCP90.dll
 0002:00000098       __imp_?npos@?$basic_string@DU?$char_traits@D@std@@V?$allocator@D@2@@std@@2IB 00418098     msvcprt:MSVCP90.dll
 0002:0000009c       __imp_?find_last_of@?$basic_string@DU?$char_traits@D@std@@V?$allocator@D@2@@std@@QBEIABV12@I@Z 0041809c     msvcprt:MSVCP90.dll
 0002:000000a0       __imp_?substr@?$basic_string@DU?$char_traits@D@std@@V?$allocator@D@2@@std@@QBE?AV12@II@Z 004180a0     msvcprt:MSVCP90.dll
 0002:000000a4       __imp_?find_last_not_of@?$basic_string@DU?$char_traits@D@std@@V?$allocator@D@2@@std@@QBEIABV12@I@Z 004180a4     msvcprt:MSVCP90.dll
 0002:000000a8       __imp_?append@?$basic_string@DU?$char_traits@D@std@@V?$allocator@D@2@@std@@QAEAAV12@PBD@Z 004180a8     msvcprt:MSVCP90.dll
 0002:000000ac       __imp_?find_first_not_of@?$basic_string@DU?$char_traits@D@std@@V?$allocator@D@2@@std@@QBEIABV12@I@Z 004180ac     msvcprt:MSVCP90.dll
 0002:000000b0       __imp_??$?9DU?$char_traits@D@std@@V?$allocator@D@1@@std@@YA_NABV?$basic_string@DU?$char_traits@D@std@@V?$allocator@D@2@@0@0@Z 004180b0     msvcprt:MSVCP90.dll
 0002:000000b4       __imp_??$?9DU?$char_traits@D@std@@V?$allocator@D@1@@std@@YA_NABV?$basic_string@DU?$char_traits@D@std@@V?$allocator@D@2@@0@PBD@Z 004180b4     msvcprt:MSVCP90.dll
 0002:000000b8       __imp_??$?8DU?$char_traits@D@std@@V?$allocator@D@1@@std@@YA_NABV?$basic_string@DU?$char_traits@D@std@@V?$allocator@D@2@@0@PBD@Z 004180b8     msvcprt:MSVCP90.dll
 0002:000000bc       __imp_??0?$basic_ostringstream@DU?$char_traits@D@std@@V?$allocator@D@2@@std@@QAE@H@Z 004180bc     msvcprt:MSVCP90.dll
 0002:000000c0       __imp_??$?6DU?$char_traits@D@std@@V?$allocator@D@1@@std@@YAAAV?$basic_ostream@DU?$char_traits@D@std@@@0@AAV10@ABV?$basic_string@DU?$char_traits@D@std@@V?$allocator@D@2@@0@@Z 004180c0     msvcprt:MSVCP90.dll
 0002:000000c4       __imp_?str@?$basic_ostringstream@DU?$char_traits@D@std@@V?$allocator@D@2@@std@@QBE?AV?$basic_string@DU?$char_traits@D@std@@V?$allocator@D@2@@2@XZ 004180c4     msvcprt:MSVCP90.dll
 0002:000000c8       __imp_??_D?$basic_ostringstream@DU?$char_traits@D@std@@V?$allocator@D@2@@std@@QAEXXZ 004180c8     msvcprt:MSVCP90.dll
 0002:000000cc       __imp_??A?$basic_string@DU?$char_traits@D@std@@V?$allocator@D@2@@std@@QBEABDI@Z 004180cc     msvcprt:MSVCP90.dll
 0002:000000d0       __imp_?swap@?$basic_string@DU?$char_traits@D@std@@V?$allocator@D@2@@std@@QAEXAAV12@@Z 004180d0     msvcprt:MSVCP90.dll
 0002:000000d4       __imp_??4?$basic_string@DU?$char_traits@D@std@@V?$allocator@D@2@@std@@QAEAAV01@ABV01@@Z 004180d4     msvcprt:MSVCP90.dll
 0002:000000d8       __imp_?_Unlock@?$basic_streambuf@DU?$char_traits@D@std@@@std@@QAEXXZ 004180d8     msvcprt:MSVCP90.dll
 0002:000000dc       __imp_?_Lock@?$basic_streambuf@DU?$char_traits@D@std@@@std@@QAEXXZ 004180dc     msvcprt:MSVCP90.dll
 0002:000000e0       __imp_?uncaught_exception@std@@YA_NXZ 004180e0     msvcprt:MSVCP90.dll
 0002:000000e4       __imp_?_Osfx@?$basic_ostream@DU?$char_traits@D@std@@@std@@QAEXXZ 004180e4     msvcprt:MSVCP90.dll
 0002:000000e8       __imp_?good@ios_base@std@@QBE_NXZ 004180e8     msvcprt:MSVCP90.dll
 0002:000000ec       __imp_?tie@?$basic_ios@DU?$char_traits@D@std@@@std@@QBEPAV?$basic_ostream@DU?$char_traits@D@std@@@2@XZ 004180ec     msvcprt:MSVCP90.dll
 0002:000000f0       __imp_?flush@?$basic_ostream@DU?$char_traits@D@std@@@std@@QAEAAV12@XZ 004180f0     msvcprt:MSVCP90.dll
 0002:000000f4       __imp_?length@?$char_traits@D@std@@SAIPBD@Z 004180f4     msvcprt:MSVCP90.dll
 0002:000000f8       __imp_?width@ios_base@std@@QBEHXZ 004180f8     msvcprt:MSVCP90.dll
 0002:000000fc       __imp_?flags@ios_base@std@@QBEHXZ 004180fc     msvcprt:MSVCP90.dll
 0002:00000100       __imp_?fill@?$basic_ios@DU?$char_traits@D@std@@@std@@QBEDXZ 00418100     msvcprt:MSVCP90.dll
 0002:00000104       __imp_?rdbuf@?$basic_ios@DU?$char_traits@D@std@@@std@@QBEPAV?$basic_streambuf@DU?$char_traits@D@std@@@2@XZ 00418104     msvcprt:MSVCP90.dll
 0002:00000108       __imp_?sputc@?$basic_streambuf@DU?$char_traits@D@std@@@std@@QAEHD@Z 00418108     msvcprt:MSVCP90.dll
 0002:0000010c       __imp_?eof@?$char_traits@D@std@@SAHXZ 0041810c     msvcprt:MSVCP90.dll
 0002:00000110       __imp_?eq_int_type@?$char_traits@D@std@@SA_NABH0@Z 00418110     msvcprt:MSVCP90.dll
 0002:00000114       __imp_?sputn@?$basic_streambuf@DU?$char_traits@D@std@@@std@@QAEHPBDH@Z 00418114     msvcprt:MSVCP90.dll
 0002:00000118       __imp_?width@ios_base@std@@QAEHH@Z 00418118     msvcprt:MSVCP90.dll
 0002:0000011c       __imp_?setstate@?$basic_ios@DU?$char_traits@D@std@@@std@@QAEXH_N@Z 0041811c     msvcprt:MSVCP90.dll
 0002:00000120       __imp_??0?$basic_string@DU?$char_traits@D@std@@V?$allocator@D@2@@std@@QAE@PBD@Z 00418120     msvcprt:MSVCP90.dll
 0002:00000124       __imp_?endl@std@@YAAAV?$basic_ostream@DU?$char_traits@D@std@@@1@AAV21@@Z 00418124     msvcprt:MSVCP90.dll
 0002:00000128       __imp_?cout@std@@3V?$basic_ostream@DU?$char_traits@D@std@@@1@A 00418128     msvcprt:MSVCP90.dll
 0002:0000012c       __imp_??6?$basic_ostream@DU?$char_traits@D@std@@@std@@QAEAAV01@P6AAAV01@AAV01@@Z@Z 0041812c     msvcprt:MSVCP90.dll
 0002:00000130       __imp_??0?$basic_string@_WU?$char_traits@_W@std@@V?$allocator@_W@2@@std@@QAE@XZ 00418130     msvcprt:MSVCP90.dll
 0002:00000134       __imp_??Y?$basic_string@_WU?$char_traits@_W@std@@V?$allocator@_W@2@@std@@QAEAAV01@ABV01@@Z 00418134     msvcprt:MSVCP90.dll
 0002:00000138       __imp_??1?$basic_string@_WU?$char_traits@_W@std@@V?$allocator@_W@2@@std@@QAE@XZ 00418138     msvcprt:MSVCP90.dll
 0002:0000013c       __imp_?resize@?$basic_string@_WU?$char_traits@_W@std@@V?$allocator@_W@2@@std@@QAEXI@Z 0041813c     msvcprt:MSVCP90.dll
 0002:00000140       __imp_??A?$basic_string@_WU?$char_traits@_W@std@@V?$allocator@_W@2@@std@@QAEAA_WI@Z 00418140     msvcprt:MSVCP90.dll
 0002:00000144       __imp_??Y?$basic_string@DU?$char_traits@D@std@@V?$allocator@D@2@@std@@QAEAAV01@ABV01@@Z 00418144     msvcprt:MSVCP90.dll
 0002:00000148       __imp_?resize@?$basic_string@DU?$char_traits@D@std@@V?$allocator@D@2@@std@@QAEXI@Z 00418148     msvcprt:MSVCP90.dll
 0002:0000014c       __imp_??0?$basic_stringstream@DU?$char_traits@D@std@@V?$allocator@D@2@@std@@QAE@ABV?$basic_string@DU?$char_traits@D@std@@V?$allocator@D@2@@1@H@Z 0041814c     msvcprt:MSVCP90.dll
 0002:00000150       __imp_??0?$basic_string@DU?$char_traits@D@std@@V?$allocator@D@2@@std@@QAE@XZ 00418150     msvcprt:MSVCP90.dll
 0002:00000154       __imp_??$getline@DU?$char_traits@D@std@@V?$allocator@D@2@@std@@YAAAV?$basic_istream@DU?$char_traits@D@std@@@0@AAV10@AAV?$basic_string@DU?$char_traits@D@std@@V?$allocator@D@2@@0@D@Z 00418154     msvcprt:MSVCP90.dll
 0002:00000158       __imp_??Bios_base@std@@QBEPAXXZ 00418158     msvcprt:MSVCP90.dll
 0002:0000015c       __imp_??_D?$basic_stringstream@DU?$char_traits@D@std@@V?$allocator@D@2@@std@@QAEXXZ 0041815c     msvcprt:MSVCP90.dll
 0002:00000160       __imp_?empty@?$basic_string@DU?$char_traits@D@std@@V?$allocator@D@2@@std@@QBE_NXZ 00418160     msvcprt:MSVCP90.dll
 0002:00000164       __imp_??0?$basic_string@DU?$char_traits@D@std@@V?$allocator@D@2@@std@@QAE@ABV01@@Z 00418164     msvcprt:MSVCP90.dll
 0002:00000168       __imp_?length@?$basic_string@DU?$char_traits@D@std@@V?$allocator@D@2@@std@@QBEIXZ 00418168     msvcprt:MSVCP90.dll
 0002:0000016c       __imp_??A?$basic_string@DU?$char_traits@D@std@@V?$allocator@D@2@@std@@QAEAADI@Z 0041816c     msvcprt:MSVCP90.dll
 0002:00000170       __imp_?erase@?$basic_string@DU?$char_traits@D@std@@V?$allocator@D@2@@std@@QAEAAV12@II@Z 00418170     msvcprt:MSVCP90.dll
 0002:00000174       __imp_??Y?$basic_string@DU?$char_traits@D@std@@V?$allocator@D@2@@std@@QAEAAV01@PBD@Z 00418174     msvcprt:MSVCP90.dll
 0002:00000178       __imp_?c_str@?$basic_string@DU?$char_traits@D@std@@V?$allocator@D@2@@std@@QBEPBDXZ 00418178     msvcprt:MSVCP90.dll
 0002:0000017c       __imp_??1?$basic_string@DU?$char_traits@D@std@@V?$allocator@D@2@@std@@QAE@XZ 0041817c     msvcprt:MSVCP90.dll
 0002:00000180       __imp_??$?HDU?$char_traits@D@std@@V?$allocator@D@1@@std@@YA?AV?$basic_string@DU?$char_traits@D@std@@V?$allocator@D@2@@0@ABV10@PBD@Z 00418180     msvcprt:MSVCP90.dll
 0002:00000184       __imp_?find_first_of@?$basic_string@DU?$char_traits@D@std@@V?$allocator@D@2@@std@@QBEIABV12@I@Z 00418184     msvcprt:MSVCP90.dll
 0002:00000188       \177MSVCP90_NULL_THUNK_DATA 00418188     msvcprt:MSVCP90.dll
 0002:0000018c       __imp___adjust_fdiv        0041818c     MSVCRT:MSVCR90.dll
 0002:00000190       __imp____p__commode        00418190     MSVCRT:MSVCR90.dll
 0002:00000194       __imp____p__fmode          00418194     MSVCRT:MSVCR90.dll
 0002:00000198       __imp___encode_pointer     00418198     MSVCRT:MSVCR90.dll
 0002:0000019c       __imp____set_app_type      0041819c     MSVCRT:MSVCR90.dll
 0002:000001a0       __imp_?terminate@@YAXXZ    004181a0     MSVCRT:MSVCR90.dll
 0002:000001a4       __imp_?_type_info_dtor_internal_method@type_info@@QAEXXZ 004181a4     MSVCRT:MSVCR90.dll
 0002:000001a8       __imp____setusermatherr    004181a8     MSVCRT:MSVCR90.dll
 0002:000001ac       __imp__getch               004181ac     MSVCRT:MSVCR90.dll
 0002:000001ac       __imp___getch              004181ac     MSVCRT:MSVCR90.dll
 0002:000001b0       __imp____dllonexit         004181b0     MSVCRT:MSVCR90.dll
 0002:000001b4       __imp___lock               004181b4     MSVCRT:MSVCR90.dll
 0002:000001b8       __imp___onexit             004181b8     MSVCRT:MSVCR90.dll
 0002:000001bc       __imp___decode_pointer     004181bc     MSVCRT:MSVCR90.dll
 0002:000001c0       __imp___except_handler4_common 004181c0     MSVCRT:MSVCR90.dll
 0002:000001c4       __imp___invoke_watson      004181c4     MSVCRT:MSVCR90.dll
 0002:000001c8       __imp___controlfp_s        004181c8     MSVCRT:MSVCR90.dll
 0002:000001cc       __imp___configthreadlocale 004181cc     MSVCRT:MSVCR90.dll
 0002:000001d0       __imp___initterm_e         004181d0     MSVCRT:MSVCR90.dll
 0002:000001d4       __imp____iob_func          004181d4     MSVCRT:MSVCR90.dll
 0002:000001d8       __imp____winitenv          004181d8     MSVCRT:MSVCR90.dll
 0002:000001dc       __imp__exit                004181dc     MSVCRT:MSVCR90.dll
 0002:000001e0       __imp___XcptFilter         004181e0     MSVCRT:MSVCR90.dll
 0002:000001e4       __imp___exit               004181e4     MSVCRT:MSVCR90.dll
 0002:000001e8       __imp___cexit              004181e8     MSVCRT:MSVCR90.dll
 0002:000001ec       __imp____wgetmainargs      004181ec     MSVCRT:MSVCR90.dll
 0002:000001f0       __imp___amsg_exit          004181f0     MSVCRT:MSVCR90.dll
 0002:000001f4       __imp__isdigit             004181f4     MSVCRT:MSVCR90.dll
 0002:000001f8       __imp__isalpha             004181f8     MSVCRT:MSVCR90.dll
 0002:000001fc       __imp__memmove_s           004181fc     MSVCRT:MSVCR90.dll
 0002:00000200       __imp__strncpy             00418200     MSVCRT:MSVCR90.dll
 0002:00000204       __imp__sprintf             00418204     MSVCRT:MSVCR90.dll
 0002:00000208       __imp___errno              00418208     MSVCRT:MSVCR90.dll
 0002:0000020c       __imp__strcpy              0041820c     MSVCRT:MSVCR90.dll
 0002:00000210       __imp__fwrite              00418210     MSVCRT:MSVCR90.dll
 0002:00000214       __imp__feof                00418214     MSVCRT:MSVCR90.dll
 0002:00000218       __imp__memcpy              00418218     MSVCRT:MSVCR90.dll
 0002:0000021c       __imp___findfirst64i32     0041821c     MSVCRT:MSVCR90.dll
 0002:00000220       __imp__remove              00418220     MSVCRT:MSVCR90.dll
 0002:00000224       __imp___findnext64i32      00418224     MSVCRT:MSVCR90.dll
 0002:00000228       __imp___findclose          00418228     MSVCRT:MSVCR90.dll
 0002:0000022c       __imp_?what@exception@std@@UBEPBDXZ 0041822c     MSVCRT:MSVCR90.dll
 0002:00000230       __imp_??0exception@std@@QAE@ABQBD@Z 00418230     MSVCRT:MSVCR90.dll
 0002:00000234       __imp___invalid_parameter_noinfo 00418234     MSVCRT:MSVCR90.dll
 0002:00000238       __imp_??0exception@std@@QAE@XZ 00418238     MSVCRT:MSVCR90.dll
 0002:0000023c       __imp_??1exception@std@@UAE@XZ 0041823c     MSVCRT:MSVCR90.dll
 0002:00000240       __imp_??0exception@std@@QAE@ABV01@@Z 00418240     MSVCRT:MSVCR90.dll
 0002:00000244       __imp__wcspbrk             00418244     MSVCRT:MSVCR90.dll
 0002:00000248       __imp__wcsstr              00418248     MSVCRT:MSVCR90.dll
 0002:0000024c       __imp__wcsrchr             0041824c     MSVCRT:MSVCR90.dll
 0002:00000250       __imp__wcschr              00418250     MSVCRT:MSVCR90.dll
 0002:00000254       __imp___wcsicmp            00418254     MSVCRT:MSVCR90.dll
 0002:00000258       __imp__wcscmp              00418258     MSVCRT:MSVCR90.dll
 0002:0000025c       __imp__strrchr             0041825c     MSVCRT:MSVCR90.dll
 0002:00000260       __imp__strpbrk             00418260     MSVCRT:MSVCR90.dll
 0002:00000264       __imp__strchr              00418264     MSVCRT:MSVCR90.dll
 0002:00000268       __imp__memmove             00418268     MSVCRT:MSVCR90.dll
 0002:0000026c       __imp___stricmp            0041826c     MSVCRT:MSVCR90.dll
 0002:00000270       __imp__strcmp              00418270     MSVCRT:MSVCR90.dll
 0002:00000274       __imp___CxxThrowException@8 00418274     MSVCRT:MSVCR90.dll
 0002:00000278       __imp__isupper             00418278     MSVCRT:MSVCR90.dll
 0002:0000027c       __imp__tolower             0041827c     MSVCRT:MSVCR90.dll
 0002:00000280       __imp__islower             00418280     MSVCRT:MSVCR90.dll
 0002:00000284       __imp__toupper             00418284     MSVCRT:MSVCR90.dll
 0002:00000288       __imp__strstr              00418288     MSVCRT:MSVCR90.dll
 0002:0000028c       __imp__strlen              0041828c     MSVCRT:MSVCR90.dll
 0002:00000290       __imp_??_V@YAXPAX@Z        00418290     MSVCRT:MSVCR90.dll
 0002:00000294       __imp__wcslen              00418294     MSVCRT:MSVCR90.dll
 0002:00000298       __imp_??_U@YAPAXI@Z        00418298     MSVCRT:MSVCR90.dll
 0002:0000029c       __imp___vsnwprintf         0041829c     MSVCRT:MSVCR90.dll
 0002:000002a0       __imp___vscwprintf         004182a0     MSVCRT:MSVCR90.dll
 0002:000002a4       __imp___vsnprintf          004182a4     MSVCRT:MSVCR90.dll
 0002:000002a8       __imp___vscprintf          004182a8     MSVCRT:MSVCR90.dll
 0002:000002ac       __imp__isspace             004182ac     MSVCRT:MSVCR90.dll
 0002:000002b0       __imp___purecall           004182b0     MSVCRT:MSVCR90.dll
 0002:000002b4       __imp__strcat              004182b4     MSVCRT:MSVCR90.dll
 0002:000002b8       __imp__printf              004182b8     MSVCRT:MSVCR90.dll
 0002:000002bc       __imp__system              004182bc     MSVCRT:MSVCR90.dll
 0002:000002c0       __imp__free                004182c0     MSVCRT:MSVCR90.dll
 0002:000002c4       __imp__fopen               004182c4     MSVCRT:MSVCR90.dll
 0002:000002c8       __imp__fseek               004182c8     MSVCRT:MSVCR90.dll
 0002:000002cc       __imp__ftell               004182cc     MSVCRT:MSVCR90.dll
 0002:000002d0       __imp__fclose              004182d0     MSVCRT:MSVCR90.dll
 0002:000002d4       __imp__malloc              004182d4     MSVCRT:MSVCR90.dll
 0002:000002d8       __imp__memset              004182d8     MSVCRT:MSVCR90.dll
 0002:000002dc       __imp__fread               004182dc     MSVCRT:MSVCR90.dll
 0002:000002e0       __imp___crt_debugger_hook  004182e0     MSVCRT:MSVCR90.dll
 0002:000002e4       __imp____CxxFrameHandler3  004182e4     MSVCRT:MSVCR90.dll
 0002:000002e8       __imp__fprintf             004182e8     MSVCRT:MSVCR90.dll
 0002:000002ec       __imp_??3@YAXPAX@Z         004182ec     MSVCRT:MSVCR90.dll
 0002:000002f0       __imp_??2@YAPAXI@Z         004182f0     MSVCRT:MSVCR90.dll
 0002:000002f4       __imp___initterm           004182f4     MSVCRT:MSVCR90.dll
 0002:000002f8       __imp___unlock             004182f8     MSVCRT:MSVCR90.dll
 0002:000002fc       \177MSVCR90_NULL_THUNK_DATA 004182fc     MSVCRT:MSVCR90.dll
 0002:00000300       __imp__PostQuitMessage@4   00418300     user32:USER32.dll
 0002:00000304       __imp__GetMessageW@16      00418304     user32:USER32.dll
 0002:00000308       \177USER32_NULL_THUNK_DATA 00418308     user32:USER32.dll
 0002:0000030c       __imp__waveInReset@4       0041830c     winmm:WINMM.dll
 0002:00000310       __imp__waveInStop@4        00418310     winmm:WINMM.dll
 0002:00000314       __imp__waveInOpen@24       00418314     winmm:WINMM.dll
 0002:00000318       __imp__waveInPrepareHeader@12 00418318     winmm:WINMM.dll
 0002:0000031c       __imp__waveInAddBuffer@12  0041831c     winmm:WINMM.dll
 0002:00000320       __imp__waveInUnprepareHeader@12 00418320     winmm:WINMM.dll
 0002:00000324       __imp__waveInClose@4       00418324     winmm:WINMM.dll
 0002:00000328       __imp__waveInStart@4       00418328     winmm:WINMM.dll
 0002:0000032c       \177WINMM_NULL_THUNK_DATA  0041832c     winmm:WINMM.dll
 0002:00000330       __imp__ISSSetMachineCode@4 00418330     libissauth:libissauth.dll
 0002:00000334       \177libissauth_NULL_THUNK_DATA 00418334     libissauth:libissauth.dll
 0002:00000338       __imp__ISSSRStart@16       00418338     libisssr:libisssr.dll
 0002:0000033c       __imp__ISSSREndAudioData@4 0041833c     libisssr:libisssr.dll
 0002:00000340       __imp__ISSSRCreateEx@20    00418340     libisssr:libisssr.dll
 0002:00000344       __imp__ISSSRLocalNli@16    00418344     libisssr:libisssr.dll
 0002:00000348       __imp__ISSSRDestroy@4      00418348     libisssr:libisssr.dll
 0002:0000034c       __imp__ISSSRUpLoadDict@12  0041834c     libisssr:libisssr.dll
 0002:00000350       __imp__ISSSRStop@4         00418350     libisssr:libisssr.dll
 0002:00000354       __imp__ISSSRSetParam@12    00418354     libisssr:libisssr.dll
 0002:00000358       __imp__ISSSRAppendAudioData@16 00418358     libisssr:libisssr.dll
 0002:0000035c       \177libisssr_NULL_THUNK_DATA 0041835c     libisssr:libisssr.dll
 0002:00000360       ___xc_a                    00418360     MSVCRT:cinitexe.obj
 0002:00000368       ___xc_z                    00418368     MSVCRT:cinitexe.obj
 0002:0000036c       ___xi_a                    0041836c     MSVCRT:cinitexe.obj
 0002:00000378       ___xi_z                    00418378     MSVCRT:cinitexe.obj
 0002:000003a0       ??_7CRecord@@6B@           004183a0     Record.obj
 0002:000003a8       ??_C@_0BBN@KFLOMKOL@?$HL?6?5?5?5?5?$CCKeywordsType?$CC?3?51?0?6?5?5?5?5?$CCMv@ 004183a8     test_libisssr_win32.obj
 0002:000004c8       ??_C@_0KD@NECAJOCH@?$HL?6?5?5?5?5?$CCKeywords?$CC?3?5?$FL?6?5?5?5?5?5?5?5?5?$HL?$CCKe@ 004184c8     test_libisssr_win32.obj
 0002:00000570       ??_C@_0HO@BMOEBCKA@?$HL?$CCgrm?$CC?3?$FL?$HL?$CCdictname?$CC?3?$CCcmd?$CC?0?$CCdictc@ 00418570     test_libisssr_win32.obj
 0002:000005f0       ??_C@_0DKO@FPMECBGB@?$HL?6?5?5?5?5?$CCgrm?$CC?3?5?$FL?6?5?5?5?5?$HL?6?5?5?5?5?5?5?5?5?$CCdi@ 004185f0     test_libisssr_win32.obj
 0002:000009a0       ??_C@_0DJE@FIIHOJEO@?$HL?6?5?5?5?5?$CCgrm?$CC?3?5?$FL?6?5?5?5?5?$HL?6?5?5?5?5?5?5?5?5?$CCdi@ 004189a0     test_libisssr_win32.obj
 0002:00000d34       ??_C@_0P@GHFPNOJB@bad?5allocation?$AA@ 00418d34     test_libisssr_win32.obj
 0002:00000d44       ?numeric@?$_Locbase@H@std@@2HB 00418d44     test_libisssr_win32.obj
 0002:00000d44       ?showbase@?$_Iosb@H@std@@2W4_Fmtflags@12@B 00418d44     test_libisssr_win32.obj
 0002:00000d44       ?app@?$_Iosb@H@std@@2W4_Openmode@12@B 00418d44     test_libisssr_win32.obj
 0002:00000d48       ?all@?$_Locbase@H@std@@2HB 00418d48     test_libisssr_win32.obj
 0002:00000d4c       ?_Nocreate@?$_Iosb@H@std@@2W4_Openmode@12@B 00418d4c     test_libisssr_win32.obj
 0002:00000d4c       ?left@?$_Iosb@H@std@@2W4_Fmtflags@12@B 00418d4c     test_libisssr_win32.obj
 0002:00000d50       ?internal@?$_Iosb@H@std@@2W4_Fmtflags@12@B 00418d50     test_libisssr_win32.obj
 0002:00000d54       ?dec@?$_Iosb@H@std@@2W4_Fmtflags@12@B 00418d54     test_libisssr_win32.obj
 0002:00000d58       ?oct@?$_Iosb@H@std@@2W4_Fmtflags@12@B 00418d58     test_libisssr_win32.obj
 0002:00000d5c       ?hex@?$_Iosb@H@std@@2W4_Fmtflags@12@B 00418d5c     test_libisssr_win32.obj
 0002:00000d60       ?scientific@?$_Iosb@H@std@@2W4_Fmtflags@12@B 00418d60     test_libisssr_win32.obj
 0002:00000d64       ?fixed@?$_Iosb@H@std@@2W4_Fmtflags@12@B 00418d64     test_libisssr_win32.obj
 0002:00000d68       ?floatfield@?$_Iosb@H@std@@2W4_Fmtflags@12@B 00418d68     test_libisssr_win32.obj
 0002:00000d68       ?hexfloat@?$_Iosb@H@std@@2W4_Fmtflags@12@B 00418d68     test_libisssr_win32.obj
 0002:00000d6c       ?boolalpha@?$_Iosb@H@std@@2W4_Fmtflags@12@B 00418d6c     test_libisssr_win32.obj
 0002:00000d70       ?_Stdio@?$_Iosb@H@std@@2W4_Fmtflags@12@B 00418d70     test_libisssr_win32.obj
 0002:00000d74       ?adjustfield@?$_Iosb@H@std@@2W4_Fmtflags@12@B 00418d74     test_libisssr_win32.obj
 0002:00000d78       ?basefield@?$_Iosb@H@std@@2W4_Fmtflags@12@B 00418d78     test_libisssr_win32.obj
 0002:00000d7c       ?failbit@?$_Iosb@H@std@@2W4_Iostate@12@B 00418d7c     test_libisssr_win32.obj
 0002:00000d7c       ?unitbuf@?$_Iosb@H@std@@2W4_Fmtflags@12@B 00418d7c     test_libisssr_win32.obj
 0002:00000d7c       ?end@?$_Iosb@H@std@@2W4_Seekdir@12@B 00418d7c     test_libisssr_win32.obj
 0002:00000d7c       ?out@?$_Iosb@H@std@@2W4_Openmode@12@B 00418d7c     test_libisssr_win32.obj
 0002:00000d7c       ?ThreadAttach@NativeDll@<CrtImplementationDetails>@@0IB 00418d7c     MSVCRT:unhandld.obj
 0002:00000d7c       ?ctype@?$_Locbase@H@std@@2HB 00418d7c     test_libisssr_win32.obj
 0002:00000d80       ?_Hardfail@?$_Iosb@H@std@@2W4_Iostate@12@B 00418d80     test_libisssr_win32.obj
 0002:00000d80       ?showpoint@?$_Iosb@H@std@@2W4_Fmtflags@12@B 00418d80     test_libisssr_win32.obj
 0002:00000d80       ?time@?$_Locbase@H@std@@2HB 00418d80     test_libisssr_win32.obj
 0002:00000d80       ?trunc@?$_Iosb@H@std@@2W4_Openmode@12@B 00418d80     test_libisssr_win32.obj
 0002:00000d84       ?right@?$_Iosb@H@std@@2W4_Fmtflags@12@B 00418d84     test_libisssr_win32.obj
 0002:00000d84       ?_Noreplace@?$_Iosb@H@std@@2W4_Openmode@12@B 00418d84     test_libisssr_win32.obj
 0002:00000d88       ?showpos@?$_Iosb@H@std@@2W4_Fmtflags@12@B 00418d88     test_libisssr_win32.obj
 0002:00000d88       ?messages@?$_Locbase@H@std@@2HB 00418d88     test_libisssr_win32.obj
 0002:00000d88       ?binary@?$_Iosb@H@std@@2W4_Openmode@12@B 00418d88     test_libisssr_win32.obj
 0002:00000d88       ?_VBITS@?$vector@_NV?$allocator@_N@std@@@std@@2HB 00418d88     vacommon:Manip.obj
 0002:00000d8c       ?none@?$_Locbase@H@std@@2HB 00418d8c     test_libisssr_win32.obj
 0002:00000d8c       ?beg@?$_Iosb@H@std@@2W4_Seekdir@12@B 00418d8c     test_libisssr_win32.obj
 0002:00000d8c       ?ProcessDetach@NativeDll@<CrtImplementationDetails>@@0IB 00418d8c     MSVCRT:unhandld.obj
 0002:00000d8c       ?goodbit@?$_Iosb@H@std@@2W4_Iostate@12@B 00418d8c     test_libisssr_win32.obj
 0002:00000d90       ??_C@_0BC@LKBBAOJE@Unhandled?5Msg?3?5?$CFd?$AA@ 00418d90     test_libisssr_win32.obj
 0002:00000da4       ??_C@_0DA@OFCGKOGN@?$CK?$CK?$CK?$CK?$CK?$CK?$CK?$CK?$CKISS_SR_MSG_ONESHOT_MVWR@ 00418da4     test_libisssr_win32.obj
 0002:00000dd4       ??_C@_0CK@BEGMHGII@?$CK?$CK?$CK?$CK?$CK?$CK?$CK?$CK?$CKISS_SR_MSG_STKS_Result?$CI@ 00418dd4     test_libisssr_win32.obj
 0002:00000e00       ??_C@_0DE@GMCAJII@?$CK?$CK?$CK?$CK?$CK?$CK?$CK?$CK?$CKISS_SR_MSG_WaitingForLo@ 00418e00     test_libisssr_win32.obj
 0002:00000e34       ??_C@_0DE@JPALDGCE@?$CK?$CK?$CK?$CK?$CK?$CK?$CK?$CK?$CKISS_SR_MSG_WaitingForCl@ 00418e34     test_libisssr_win32.obj
 0002:00000e68       ??_C@_0CL@GOAJKIMB@ISS_SR_MSG_LoadBigSrResStatus?5wP@ 00418e68     test_libisssr_win32.obj
 0002:00000e94       ??_C@_0CB@IKBILMPA@ISS_SR_MSG_PreResult?0?5focus?$DN?$CFs?4?6@ 00418e94     test_libisssr_win32.obj
 0002:00000eb8       ??_C@_0BM@NMBMDHJD@ISS_SR_MSG_Result?$CI?$CFs?0?5?$CFd?$CJ?4?6?$AA@ 00418eb8     test_libisssr_win32.obj
 0002:00000ed4       ??_C@_0BP@OFPMGEFI@speechEnd?5to?5Result?5cost?3?5?$CFdms?$AA@ 00418ed4     test_libisssr_win32.obj
 0002:00000ef4       ??_C@_0BL@HNBPBMNO@ISS_SR_MSG_Error?$CI?$CFs?0?5?$CFd?$CJ?4?6?$AA@ 00418ef4     test_libisssr_win32.obj
 0002:00000f10       ??_C@_0FB@KHMLNKAC@?9?9?9?9?9?9?9?9?9?9?9?9?9?9?9?9?9?9?9?9?9?9?9?9?9?9?9?9?9?9?9?9@ 00418f10     test_libisssr_win32.obj
 0002:00000f64       ??_C@_0BL@GBDEJFG@ISS_SR_MSG_SpeechTimeOut?4?6?$AA@ 00418f64     test_libisssr_win32.obj
 0002:00000f80       ??_C@_0CF@CPEHIGHG@?9?9?9?9?9?9?9?9?9?9?9?9?9?9?9?9?9?9?9VolumeLevel?5?$DN@ 00418f80     test_libisssr_win32.obj
 0002:00000fa8       ??_C@_0FB@HNLJPOHP@?9?9?9?9?9?9?9?9?9?9?9?9?9?9?9?9?9?9?9?9?9?9?9?9?9?9?9?9?9?9?9?9@ 00418fa8     test_libisssr_win32.obj
 0002:00000ffc       ??_C@_0BN@KONKFFF@ISS_SR_MSG_ResponseTimeout?4?6?$AA@ 00418ffc     test_libisssr_win32.obj
 0002:0000101c       ??_C@_0CN@MBAOFHIC@ISS_SR_MSG_UpLoadDictToCloudStat@ 0041901c     test_libisssr_win32.obj
 0002:0000104c       ??_C@_0CN@FIMHGICO@ISS_SR_MSG_UpLoadDictToLocalStat@ 0041904c     test_libisssr_win32.obj
 0002:00001079       ??_C@_00CNPNBAHC@?$AA@     00419079     test_libisssr_win32.obj
 0002:0000107c       ??_C@_01EEMJAFIK@?6?$AA@   0041907c     test_libisssr_win32.obj
 0002:00001080       ??_C@_0BM@INFHLGOH@ISS_SR_MSG_InitStatus?$CI?$CFd?$CJ?4?6?$AA@ 00419080     test_libisssr_win32.obj
 0002:0000109c       ??_C@_0BB@EBEOAPKK@malloc?5?$CFd?5failed?$AA@ 0041909c     test_libisssr_win32.obj
 0002:000010b0       ??_C@_0BG@DDMHACEJ@Error?3file?5?$CFs?5size?5?$CFd?$AA@ 004190b0     test_libisssr_win32.obj
 0002:000010c8       ??_C@_0BL@PAJBBOGN@Error?3can?5not?5open?5file?5?$CFs?$AA@ 004190c8     test_libisssr_win32.obj
 0002:000010e4       ??_C@_02JDPG@rb?$AA@       004190e4     test_libisssr_win32.obj
 0002:000010e8       ??_C@_07FIJOEOMM@oneshot?$AA@ 004190e8     test_libisssr_win32.obj
 0002:000010f0       ??_C@_0BC@GPJNJDEL@ISSSRStart?5ret?5?$CFd?$AA@ 004190f0     test_libisssr_win32.obj
 0002:00001104       ??_C@_04CDGCKLMC@stks?$AA@ 00419104     test_libisssr_win32.obj
 0002:0000110c       ??_C@_0BC@EDNEEIHG@before?5ISSSRStart?$AA@ 0041910c     test_libisssr_win32.obj
 0002:00001120       ??_C@_0BF@CINACOFO@cannot?5open?5stks?4txt?$AA@ 00419120     test_libisssr_win32.obj
 0002:00001138       ??_C@_0BF@NMCONAOO@?1?4?4?1Release?1stks?4txt?$AA@ 00419138     test_libisssr_win32.obj
 0002:00001150       ??_C@_0BH@EPFCOMOA@ISSSRUpLoadDict?5ret?5?$CFd?$AA@ 00419150     test_libisssr_win32.obj
 0002:00001168       ??_C@_0BB@JMCHCLL@invalid?5language?$AA@ 00419168     test_libisssr_win32.obj
 0002:0000117c       ??_C@_0BA@FNIFCFHB@not?5support?5now?$AA@ 0041917c     test_libisssr_win32.obj
 0002:0000118c       ??_C@_0BH@EAKELOAO@before?5ISSSRUpLoadDict?$AA@ 0041918c     test_libisssr_win32.obj
 0002:000011a4       ??_C@_05PDJBBECF@pause?$AA@ 004191a4     test_libisssr_win32.obj
 0002:000011ac       ??_C@_0BH@EJPOEBGC@ISSSRDestroy?5cost?3?5?$CFd?6?$AA@ 004191ac     test_libisssr_win32.obj
 0002:000011c4       ??_C@_0O@CIEAICND@build_grm_mvw?$AA@ 004191c4     test_libisssr_win32.obj
 0002:000011d8       ??_C@_0NO@FMMJFEJE@?$HL?5?$CCKeywords?$CC?5?3?5?$FL?5?5?5?$HL?$CCKeyWordId?$CC?5@ 004191d8     test_libisssr_win32.obj
 0002:000012b8       ??_C@_0DF@GKPEBAIM@?5ISSSRLocalNli?5string?5is?5?$CFs?5ISSS@ 004192b8     test_libisssr_win32.obj
 0002:000012f0       ??_C@_0L@DABFKPNE@?$LJ?X?R?$LL?O?B?$LP?U?$LF?w?$AA@ 004192f0     test_libisssr_win32.obj
 0002:000012fc       ??_C@_0L@MHDLDACB@NO?5SPEECH?6?$AA@ 004192fc     test_libisssr_win32.obj
 0002:00001308       ??_C@_03NFKEKGGK@all?$AA@  00419308     test_libisssr_win32.obj
 0002:0000130c       ??_C@_0CP@EEBNGACD@?9?9?9?9?9?9?9?9?9?9?9?9?9?9?9?9?9?9?9?9?9?9?9?9?9?9?9?9?9?9?9?9@ 0041930c     test_libisssr_win32.obj
 0002:0000133c       ??_C@_0O@ECIHIIIO@?$CIq?$CJ?4?5Quit?$CI?$CJ?4?6?$AA@ 0041933c     test_libisssr_win32.obj
 0002:0000134c       ??_C@_0CP@KEEKIPLN@?$CIz?$CJ?4?5MIX_REC?5StartOneShot?$CI?$CJ?4?$CIOne@ 0041934c     test_libisssr_win32.obj
 0002:0000137c       ??_C@_0DB@MOKJDHGA@?$CIy?$CJ?4?5LOCAL_REC?5StartOneShot?$CI?$CJ?4?$CIO@ 0041937c     test_libisssr_win32.obj
 0002:000013b0       ??_C@_0DB@LPLAIDPI@?$CIx?$CJ?4?5CLOUD_REC?5StartOneShot?$CI?$CJ?4?$CIO@ 004193b0     test_libisssr_win32.obj
 0002:000013e4       ??_C@_0CD@CNNGPJHO@?$CI7?$CJ?4?5LOCAL_CMDLIST?$CI?$CJ?4?$CI?$LB?$LO?$LF?X?C?$PM?A?n?$LE?J@ 004193e4     test_libisssr_win32.obj
 0002:00001408       ??_C@_0CA@NMIEFGFH@?$CI6?$CJ?4?5LocalNli?$CI?$CJ?4?$CI?$LB?$LO?$LF?X?S?o?R?e?$LC?b?J?T?$CJ?6?$AA@ 00419408     test_libisssr_win32.obj
 0002:00001428       ??_C@_0O@CFKOCMIH@?$CI5?$CJ?4?5Stop?$CI?$CJ?4?6?$AA@ 00419428     test_libisssr_win32.obj
 0002:00001438       ??_C@_0CE@JHDHAEKE@?$CIk?$CJ?4?5STKS?$CI?$CJ?4?$CI?$LP?I?$LM?$PL?$LM?$LE?$LP?I?K?$LF?9?9?$LL?$LN?P?Q?J?$LF?O@ 00419438     test_libisssr_win32.obj
 0002:0000145c       ??_C@_0CD@CHMEGPOL@?$CIu?$CJ?4?5ISSSRUpLoadDict?$CI?$CJ?4?$CI?I?O?$LE?$KL?$LE?J?$LF?d@ 0041945c     test_libisssr_win32.obj
 0002:00001480       ??_C@_0CF@DHBOKKMN@?$CIp?$CJ?4?5poixp?$CI?$CJ?4?$CI?$LP?I?$LM?$PL?$LM?$LE?$LP?I?K?$LF?9?9?J?$LG?$LB?p?J?$LF@ 00419480     test_libisssr_win32.obj
 0002:000014a8       ??_C@_0BO@GPGKFHOP@?$CIb?$CJ?4?5BuildGrm?$CI?$CJ?4?$CI?$LJ?$LJ?$LN?$KI?$LL?$LN?P?Q?$LE?J?$CJ?6?$AA@ 004194a8     test_libisssr_win32.obj
 0002:000014c8       ??_C@_0CA@CELPLHJI@?$CI4?$CJ?4?5EndAudioData?$CI?$CJ?4?$CI?$LN?a?J?x?K?$LF?$LL?$LA?$CJ?6?$AA@ 004194c8     test_libisssr_win32.obj
 0002:000014e8       ??_C@_0CB@HIDNPNAM@?$CI3?$CJ?4?5MIX_REC?5Start?$CI?$CJ?4?$CI?$LL?l?$LK?O?J?$LG?$LB?p?$CJ?6@ 004194e8     test_libisssr_win32.obj
 0002:0000150c       ??_C@_0CD@IJAMOIHN@?$CI2?$CJ?4?5LOCAL_REC?5Start?$CI?$CJ?4?$CI?$LB?$LO?$LF?X?J?$LG?$LB?p@ 0041950c     test_libisssr_win32.obj
 0002:00001530       ??_C@_0CD@KCBGMDFJ@?$CI1?$CJ?4?5CLOUD_REC?5Start?$CI?$CJ?4?$CI?T?F?$LG?K?J?$LG?$LB?p@ 00419530     test_libisssr_win32.obj
 0002:00001554       ??_C@_0BL@IMEOGNKG@please?5input?5your?5choice?3?6?$AA@ 00419554     test_libisssr_win32.obj
 0002:00001570       ??_C@_0O@OHAHFCHG@speechtimeout?$AA@ 00419570     test_libisssr_win32.obj
 0002:00001580       ??_C@_04KDIKNAGH@8000?$AA@ 00419580     test_libisssr_win32.obj
 0002:00001588       ??_C@_04MGELPMF@city?$AA@  00419588     test_libisssr_win32.obj
 0002:00001590       ??_C@_04LMIADBFG@?$LK?O?$LH?J?$AA@ 00419590     test_libisssr_win32.obj
 0002:00001598       ??_C@_08IPNLHJNB@latitude?$AA@ 00419598     test_libisssr_win32.obj
 0002:000015a4       ??_C@_09OLKAGDAD@31?4837463?$AA@ 004195a4     test_libisssr_win32.obj
 0002:000015b0       ??_C@_0BM@LIENJKKA@ISSSRSetParam?5?$CFs?5?$CFs?5ret?5?$CFd?4?$AA@ 004195b0     test_libisssr_win32.obj
 0002:000015cc       ??_C@_09PHBIEJMN@longitude?$AA@ 004195cc     test_libisssr_win32.obj
 0002:000015d8       ??_C@_06EFODMJGH@117?417?$AA@ 004195d8     test_libisssr_win32.obj
 0002:000015e0       ??_C@_0L@NEHBEMGP@speechtail?$AA@ 004195e0     test_libisssr_win32.obj
 0002:000015ec       ??_C@_03BAAJCDMO@800?$AA@  004195ec     test_libisssr_win32.obj
 0002:000015f0       ??_C@_0BG@GIJIMAJK@ISSSRCreateEx?5ret?5?$CFd?4?$AA@ 004195f0     test_libisssr_win32.obj
 0002:00001608       ??_C@_0O@BFDOEAGM@active?5failed?$AA@ 00419608     test_libisssr_win32.obj
 0002:00001618       ??_C@_0BK@IIILKCFE@ISSSetMachineCode?5ret?3?5?$CFd?$AA@ 00419618     test_libisssr_win32.obj
 0002:00001634       ??_C@_0CL@LKFOBCJL@ThisIsAFakeMachineIdWhichNotLong@ 00419634     test_libisssr_win32.obj
 0002:00001660       ??_C@_0M@OHCAKHG@Res?5Path?3?$CFs?$AA@ 00419660     test_libisssr_win32.obj
 0002:0000166c       ??_C@_09BOCEFJPM@?2?4?4?2SRRes?$AA@ 0041966c     test_libisssr_win32.obj
 0002:0000167c       ??_7Recorder@@6B@          0041967c     test_libisssr_win32.obj
 0002:00001684       ??_C@_0CD@LOEPMHCI@ISSSRAppendAudioData?5Buffer?5Full@ 00419684     test_libisssr_win32.obj
 0002:000016ac       ??_7CThread@@6B@           004196ac     Thread.obj
 0002:000017d0       ??_C@_0BE@IENHFJCA@String?$CI?$CJ?5Exception?3?$AA@ 004197d0     vacommon:VAString.obj
 0002:000017e4       ??_C@_0BD@OLBABOEK@vector?$DMT?$DO?5too?5long?$AA@ 004197e4     vacommon:VAString.obj
 0002:000017fc       ??_7length_error@std@@6B@  004197fc     vacommon:VAString.obj
 0002:00001808       ??_7logic_error@std@@6B@   00419808     vacommon:VAString.obj
 0002:00001814       ??_7bad_alloc@std@@6B@     00419814     vacommon:VAString.obj
 0002:0000181c       ??_C@_1O@NOAPAMN@?$AA?$CF?$AAs?$AA?2?$AA?$CK?$AA?4?$AA?$CK?$AA?$AA@ 0041981c     vacommon:VAFileSystem.obj
 0002:0000182c       ??_C@_02DJGKEECL@?4?4?$AA@ 0041982c     vacommon:VAFileSystem.obj
 0002:00001830       ??_C@_01LFCBOECM@?4?$AA@   00419830     vacommon:VAFileSystem.obj
 0002:00001834       ??_C@_03EMIMMIHL@?$CK?4?$CK?$AA@ 00419834     vacommon:VAFileSystem.obj
 0002:00001838       ??_C@_01KMDKNFGN@?1?$AA@   00419838     vacommon:VAFileSystem.obj
 0002:0000183c       ??_C@_02DOGDOMPH@?$CK?4?$AA@ 0041983c     vacommon:VAFileSystem.obj
 0002:00001840       ??_C@_01NOFIACDB@w?$AA@    00419840     vacommon:VAFileSystem.obj
 0002:00001844       ??_C@_0CB@JIOEMEMI@?1test_folder_write_privilege_159@ 00419844     vacommon:VAFileSystem.obj
 0002:00001868       ??_C@_02GMLFBBN@wb?$AA@    00419868     vacommon:VAFileSystem.obj
 0002:0000186c       ??_C@_05GFOLEBJA@?$CFs?1?$CFs?$AA@ 0041986c     vacommon:VAFileSystem.obj
 0002:00001874       ?collate@?$_Locbase@H@std@@2HB 00419874     test_libisssr_win32.obj
 0002:00001874       ?eofbit@?$_Iosb@H@std@@2W4_Iostate@12@B 00419874     test_libisssr_win32.obj
 0002:00001874       ?_EEM_DS@?$deque@V?$basic_string@DU?$char_traits@D@std@@V?$allocator@D@2@@std@@V?$allocator@V?$basic_string@DU?$char_traits@D@std@@V?$allocator@D@2@@std@@@2@@std@@2HB 00419874     vacommon:Path.obj
 0002:00001874       ?skipws@?$_Iosb@H@std@@2W4_Fmtflags@12@B 00419874     test_libisssr_win32.obj
 0002:00001874       ?in@?$_Iosb@H@std@@2W4_Openmode@12@B 00419874     test_libisssr_win32.obj
 0002:00001874       ?ProcessAttach@NativeDll@<CrtImplementationDetails>@@0IB 00419874     MSVCRT:unhandld.obj
 0002:00001874       ?cur@?$_Iosb@H@std@@2W4_Seekdir@12@B 00419874     test_libisssr_win32.obj
 0002:00001878       ??_C@_01JLIPDDHJ@?3?$AA@   00419878     vacommon:Path.obj
 0002:0000187c       ??_C@_01KICIPPFI@?2?$AA@   0041987c     vacommon:Path.obj
 0002:00001880       ??_C@_01ICJEACDI@?$DL?$AA@ 00419880     vacommon:Path.obj
 0002:00001884       ??_C@_0BC@KBDMBKEH@deque?$DMT?$DO?5too?5long?$AA@ 00419884     vacommon:Path.obj
 0002:00001898       ??_C@_0BG@EOMJEIFA@vector?$DMbool?$DO?5too?5long?$AA@ 00419898     vacommon:Manip.obj
 0002:000018b4       ??_7type_info@@6B@         004198b4     MSVCRT:ti_inst.obj
 0002:000018c0       ?ThreadDetach@NativeDll@<CrtImplementationDetails>@@0IB 004198c0     MSVCRT:unhandld.obj
 0002:000018c4       ?ProcessVerifier@NativeDll@<CrtImplementationDetails>@@0IB 004198c4     MSVCRT:unhandld.obj
 0002:000018c4       ?monetary@?$_Locbase@H@std@@2HB 004198c4     test_libisssr_win32.obj
 0002:000018c4       ?ate@?$_Iosb@H@std@@2W4_Openmode@12@B 004198c4     test_libisssr_win32.obj
 0002:000018c4       ?badbit@?$_Iosb@H@std@@2W4_Iostate@12@B 004198c4     test_libisssr_win32.obj
 0002:000018c4       ?uppercase@?$_Iosb@H@std@@2W4_Fmtflags@12@B 004198c4     test_libisssr_win32.obj
 0002:000018c8       __load_config_used         004198c8     MSVCRT:loadcfg.obj
 0002:000019a8       ??_R4CRecord@@6B@          004199a8     Record.obj
 0002:000019bc       ??_R3CRecord@@8            004199bc     Record.obj
 0002:000019cc       ??_R2CRecord@@8            004199cc     Record.obj
 0002:000019d8       ??_R1A@?0A@EA@CRecord@@8   004199d8     Record.obj
 0002:000019f4       ??_R1A@?0A@EN@CThread@@8   004199f4     Record.obj
 0002:00001a10       ??_R3CThread@@8            00419a10     Record.obj
 0002:00001a20       ??_R2CThread@@8            00419a20     Record.obj
 0002:00001a28       ??_R1A@?0A@EA@CThread@@8   00419a28     Record.obj
 0002:00001a44       ??_R4Recorder@@6B@         00419a44     test_libisssr_win32.obj
 0002:00001a58       ??_R3Recorder@@8           00419a58     test_libisssr_win32.obj
 0002:00001a68       ??_R2Recorder@@8           00419a68     test_libisssr_win32.obj
 0002:00001a78       ??_R1A@?0A@EA@Recorder@@8  00419a78     test_libisssr_win32.obj
 0002:00001a94       ??_R4CThread@@6B@          00419a94     Thread.obj
 0002:00001aa8       ??_R4length_error@std@@6B@ 00419aa8     vacommon:VAString.obj
 0002:00001abc       ??_R3length_error@std@@8   00419abc     vacommon:VAString.obj
 0002:00001acc       ??_R2length_error@std@@8   00419acc     vacommon:VAString.obj
 0002:00001adc       ??_R1A@?0A@EA@length_error@std@@8 00419adc     vacommon:VAString.obj
 0002:00001af8       ??_R1A@?0A@EA@logic_error@std@@8 00419af8     vacommon:VAString.obj
 0002:00001b14       ??_R3logic_error@std@@8    00419b14     vacommon:VAString.obj
 0002:00001b24       ??_R2logic_error@std@@8    00419b24     vacommon:VAString.obj
 0002:00001b30       ??_R1A@?0A@EA@exception@std@@8 00419b30     vacommon:VAString.obj
 0002:00001b4c       ??_R3exception@std@@8      00419b4c     vacommon:VAString.obj
 0002:00001b5c       ??_R2exception@std@@8      00419b5c     vacommon:VAString.obj
 0002:00001b64       ??_R4logic_error@std@@6B@  00419b64     vacommon:VAString.obj
 0002:00001b78       ??_R4bad_alloc@std@@6B@    00419b78     vacommon:VAString.obj
 0002:00001b8c       ??_R3bad_alloc@std@@8      00419b8c     vacommon:VAString.obj
 0002:00001b9c       ??_R2bad_alloc@std@@8      00419b9c     vacommon:VAString.obj
 0002:00001ba8       ??_R1A@?0A@EA@bad_alloc@std@@8 00419ba8     vacommon:VAString.obj
 0002:00001bc4       ??_R4type_info@@6B@        00419bc4     MSVCRT:ti_inst.obj
 0002:00001bd8       ??_R3type_info@@8          00419bd8     MSVCRT:ti_inst.obj
 0002:00001be8       ??_R2type_info@@8          00419be8     MSVCRT:ti_inst.obj
 0002:00001bf0       ??_R1A@?0A@EA@type_info@@8 00419bf0     MSVCRT:ti_inst.obj
 0002:00001c10       ___safe_se_handler_table   00419c10     <linker-defined>
 0002:00001d80       ___rtc_iaa                 00419d80     MSVCRT:_initsect_.obj
 0002:00001d84       ___rtc_izz                 00419d84     MSVCRT:_initsect_.obj
 0002:00001d88       ___rtc_taa                 00419d88     MSVCRT:_initsect_.obj
 0002:00001d8c       ___rtc_tzz                 00419d8c     MSVCRT:_initsect_.obj
 0002:00002dcc       __TI3?AVlength_error@std@@ 0041adcc     vacommon:VAString.obj
 0002:00002ddc       __CTA3?AVlength_error@std@@ 0041addc     vacommon:VAString.obj
 0002:00002dec       __CT??_R0?AVlength_error@std@@@8??0length_error@std@@QAE@ABV01@@Z40 0041adec     vacommon:VAString.obj
 0002:00002e08       __CT??_R0?AVlogic_error@std@@@8??0logic_error@std@@QAE@ABV01@@Z40 0041ae08     vacommon:VAString.obj
 0002:00002e24       __CT??_R0?AVexception@std@@@8??0exception@std@@QAE@ABV01@@Z12 0041ae24     vacommon:VAString.obj
 0002:00002ef8       __TI2?AVbad_alloc@std@@    0041aef8     vacommon:VAString.obj
 0002:00002f08       __CTA2?AVbad_alloc@std@@   0041af08     vacommon:VAString.obj
 0002:00002f14       __CT??_R0?AVbad_alloc@std@@@8??0bad_alloc@std@@QAE@ABV01@@Z12 0041af14     vacommon:VAString.obj
 0002:000039bc       __IMPORT_DESCRIPTOR_USER32 0041b9bc     user32:USER32.dll
 0002:000039d0       __IMPORT_DESCRIPTOR_libisssr 0041b9d0     libisssr:libisssr.dll
 0002:000039e4       __IMPORT_DESCRIPTOR_libissauth 0041b9e4     libissauth:libissauth.dll
 0002:000039f8       __IMPORT_DESCRIPTOR_WINMM  0041b9f8     winmm:WINMM.dll
 0002:00003a0c       __IMPORT_DESCRIPTOR_MSVCR90 0041ba0c     MSVCRT:MSVCR90.dll
 0002:00003a20       __IMPORT_DESCRIPTOR_MSVCP90 0041ba20     msvcprt:MSVCP90.dll
 0002:00003a34       __IMPORT_DESCRIPTOR_KERNEL32 0041ba34     kernel32:KERNEL32.dll
 0002:00003a48       __NULL_IMPORT_DESCRIPTOR   0041ba48     user32:USER32.dll
 0003:00000000       ??_R0?AVCRecord@@@8        0041e000     Record.obj
 0003:00000018       ??_R0?AVCThread@@@8        0041e018     Record.obj
 0003:00000034       ?szList@@3PBDB             0041e034     test_libisssr_win32.obj
 0003:00000038       ?szListEnglish@@3PBDB      0041e038     test_libisssr_win32.obj
 0003:0000003c       ?szYin@@3PBDB              0041e03c     test_libisssr_win32.obj
 0003:00000040       ?szListMvw@@3PBDB          0041e040     test_libisssr_win32.obj
 0003:00000044       ?szOneshotCmd@@3PBDB       0041e044     test_libisssr_win32.obj
 0003:00000048       ??_R0?AVRecorder@@@8       0041e048     test_libisssr_win32.obj
 0003:000299f8       ??_R0?AVexception@std@@@8  004479f8     vacommon:VAString.obj
 0003:00029a14       ??_R0?AVlength_error@std@@@8 00447a14     vacommon:VAString.obj
 0003:00029a34       ??_R0?AVlogic_error@std@@@8 00447a34     vacommon:VAString.obj
 0003:00029a54       ??_R0?AVbad_alloc@std@@@8  00447a54     vacommon:VAString.obj
 0003:00029a80       ??_R0?AVtype_info@@@8      00447a80     MSVCRT:ti_inst.obj
 0003:00029a98       ___security_cookie         00447a98     MSVCRT:gs_cookie.obj
 0003:00029a9c       ___security_cookie_complement 00447a9c     MSVCRT:gs_cookie.obj
 0003:00029aa0       ___native_dllmain_reason   00447aa0     MSVCRT:natstart.obj
 0003:00029aa4       ___native_vcclrit_reason   00447aa4     MSVCRT:natstart.obj
 0003:00029aa8       ___globallocalestatus      00447aa8     MSVCRT:xthdloc.obj
 0003:00029aac       ___defaultmatherr          00447aac     MSVCRT:merr.obj
 0003:00029ab0       ?m_hIssSr@@3PAXA           00447ab0     test_libisssr_win32.obj
 0003:00029ab4       ?pRecorder@@3PAVRecorder@@A 00447ab4     test_libisssr_win32.obj
 0003:00029ab8       ?m_bIsRecording@@3_NA      00447ab8     test_libisssr_win32.obj
 0003:00029abc       ?ulTimeStart@@3KC          00447abc     test_libisssr_win32.obj
 0003:00029ac0       ?ulTimeSpeechEnd@@3KC      00447ac0     test_libisssr_win32.obj
 0003:00029ac4       ?ulTimeResult@@3KC         00447ac4     test_libisssr_win32.obj
 0003:00029e0c       __dowildcard               00447e0c     MSVCRT:wildcard.obj
 0003:00029e10       __newmode                  00447e10     MSVCRT:_newmode.obj
 0003:00029e14       __commode                  00447e14     MSVCRT:xncommod.obj
 0003:00029e18       __fmode                    00447e18     MSVCRT:xtxtmode.obj
 0003:00029e1c       __adjust_fdiv              00447e1c     <common>
 0003:00029e20       ___native_startup_state    00447e20     <common>
 0003:00029e24       ___native_startup_lock     00447e24     <common>
 0003:00029e28       ___onexitend               00447e28     <common>
 0003:00029e2c       ___onexitbegin             00447e2c     <common>
 0003:00029e30       ___dyn_tls_init_callback   00447e30     <common>

 entry point at        0001:00014380

 Static symbols

 0001:fffff000       __unwindfunclet$??$_Construct@V?$basic_string@DU?$char_traits@D@std@@V?$allocator@D@2@@std@@V12@@std@@YAXPAV?$basic_string@DU?$char_traits@D@std@@V?$allocator@D@2@@0@ABV10@@Z$0 00400000 f   vacommon:Manip.obj
 0001:fffff000       __unwindfunclet$?_Xlen@?$vector@V?$basic_string@DU?$char_traits@D@std@@V?$allocator@D@2@@std@@V?$allocator@V?$basic_string@DU?$char_traits@D@std@@V?$allocator@D@2@@std@@@2@@std@@KAXXZ$0 00400000 f   vacommon:VAFileSystem.obj
 0001:fffff000       __unwindfunclet$??0?$vector@V?$basic_string@DU?$char_traits@D@std@@V?$allocator@D@2@@std@@V?$allocator@V?$basic_string@DU?$char_traits@D@std@@V?$allocator@D@2@@std@@@2@@std@@QAE@ABV01@@Z$2 00400000 f   vacommon:Manip.obj
 0001:fffff000       __unwindfunclet$?_Xlen@?$vector@V?$basic_string@DU?$char_traits@D@std@@V?$allocator@D@2@@std@@V?$allocator@V?$basic_string@DU?$char_traits@D@std@@V?$allocator@D@2@@std@@@2@@std@@KAXXZ$0 00400000 f   vacommon:Manip.obj
 0001:fffff000       __unwindfunclet$??1?$vector@V?$basic_string@DU?$char_traits@D@std@@V?$allocator@D@2@@std@@V?$allocator@V?$basic_string@DU?$char_traits@D@std@@V?$allocator@D@2@@std@@@2@@std@@QAE@XZ$0 00400000 f   vacommon:Manip.obj
 0001:fffff000       __unwindfunclet$?_Insert_n@?$vector@V?$basic_string@DU?$char_traits@D@std@@V?$allocator@D@2@@std@@V?$allocator@V?$basic_string@DU?$char_traits@D@std@@V?$allocator@D@2@@std@@@2@@std@@IAEXV?$_Vector_const_iterator@V?$basic_string@DU?$char_traits@D@std@@V?$allocator@D@2@@std@@V?$allocator@V?$basic_string@DU?$char_traits@D@std@@V?$allocator@D@2@@std@@@2@@2@IABV?$basic_string@DU?$char_traits@D@std@@V?$allocator@D@2@@2@@Z$4 00400000 f   vacommon:VAFileSystem.obj
 0001:fffff000       __unwindfunclet$??1?$_Container_base_aux_alloc_real@V?$allocator@V?$basic_string@DU?$char_traits@D@std@@V?$allocator@D@2@@std@@@std@@@std@@IAE@XZ$0 00400000 f   vacommon:Manip.obj
 0001:fffff000       __unwindfunclet$??1?$pair@V?$basic_string@DU?$char_traits@D@std@@V?$allocator@D@2@@std@@V12@@std@@QAE@XZ$0 00400000 f   vacommon:Path.obj
 0001:fffff000       __unwindfunclet$??0logic_error@std@@QAE@ABV?$basic_string@DU?$char_traits@D@std@@V?$allocator@D@2@@1@@Z$0 00400000 f   vacommon:Manip.obj
 0001:fffff000       __unwindfunclet$??$_Construct@V?$basic_string@DU?$char_traits@D@std@@V?$allocator@D@2@@std@@V12@@std@@YAXPAV?$basic_string@DU?$char_traits@D@std@@V?$allocator@D@2@@0@ABV10@@Z$0 00400000 f   vacommon:VAFileSystem.obj
 0001:fffff000       __unwindfunclet$??$_Construct@V?$basic_string@DU?$char_traits@D@std@@V?$allocator@D@2@@std@@V12@@std@@YAXPAV?$basic_string@DU?$char_traits@D@std@@V?$allocator@D@2@@0@ABV10@@Z$0 00400000 f   vacommon:Tokenizer.obj
 0001:fffff000       __unwindfunclet$??0logic_error@std@@QAE@ABV01@@Z$0 00400000 f   vacommon:VAFileSystem.obj
 0001:fffff000       __ehhandler$??$_Uninit_fill_n@PAV?$basic_string@DU?$char_traits@D@std@@V?$allocator@D@2@@std@@IV12@V?$allocator@V?$basic_string@DU?$char_traits@D@std@@V?$allocator@D@2@@std@@@2@@std@@YAXPAV?$basic_string@DU?$char_traits@D@std@@V?$allocator@D@2@@0@IABV10@AAV?$allocator@V?$basic_string@DU?$char_traits@D@std@@V?$allocator@D@2@@std@@@0@U_Nonscalar_ptr_iterator_tag@0@U_Range_checked_iterator_tag@0@@Z 00400000 f   vacommon:Manip.obj
 0001:fffff000       __unwindfunclet$??$_Uninit_move@PAV?$basic_string@DU?$char_traits@D@std@@V?$allocator@D@2@@std@@PAV12@V?$allocator@V?$basic_string@DU?$char_traits@D@std@@V?$allocator@D@2@@std@@@2@@std@@YAPAV?$basic_string@DU?$char_traits@D@std@@V?$allocator@D@2@@0@PAV10@00AAV?$allocator@V?$basic_string@DU?$char_traits@D@std@@V?$allocator@D@2@@std@@@0@U_Swap_move_tag@0@U_Range_checked_iterator_tag@0@@Z$2 00400000 f   vacommon:Tokenizer.obj
 0001:fffff000       __ehhandler$??$_Uninit_fill_n@PAV?$basic_string@DU?$char_traits@D@std@@V?$allocator@D@2@@std@@IV12@V?$allocator@V?$basic_string@DU?$char_traits@D@std@@V?$allocator@D@2@@std@@@2@@std@@YAXPAV?$basic_string@DU?$char_traits@D@std@@V?$allocator@D@2@@0@IABV10@AAV?$allocator@V?$basic_string@DU?$char_traits@D@std@@V?$allocator@D@2@@std@@@0@U_Nonscalar_ptr_iterator_tag@0@U_Range_checked_iterator_tag@0@@Z 00400000 f   vacommon:Tokenizer.obj
 0001:fffff000       __ehhandler$??$_Uninit_copy@PBV?$basic_string@DU?$char_traits@D@std@@V?$allocator@D@2@@std@@PAV12@V?$allocator@V?$basic_string@DU?$char_traits@D@std@@V?$allocator@D@2@@std@@@2@@std@@YAPAV?$basic_string@DU?$char_traits@D@std@@V?$allocator@D@2@@0@PBV10@0PAV10@AAV?$allocator@V?$basic_string@DU?$char_traits@D@std@@V?$allocator@D@2@@std@@@0@U_Nonscalar_ptr_iterator_tag@0@U_Range_checked_iterator_tag@0@@Z 00400000 f   vacommon:Manip.obj
 0001:fffff000       __unwindfunclet$??0?$vector@V?$basic_string@DU?$char_traits@D@std@@V?$allocator@D@2@@std@@V?$allocator@V?$basic_string@DU?$char_traits@D@std@@V?$allocator@D@2@@std@@@2@@std@@QAE@XZ$0 00400000 f   vacommon:Path.obj
 0001:fffff000       __unwindfunclet$??0?$vector@V?$basic_string@DU?$char_traits@D@std@@V?$allocator@D@2@@std@@V?$allocator@V?$basic_string@DU?$char_traits@D@std@@V?$allocator@D@2@@std@@@2@@std@@QAE@ABV01@@Z$2 00400000 f   vacommon:Path.obj
 0001:fffff000       __unwindfunclet$??0?$_Container_base_aux_alloc_real@V?$allocator@V?$basic_string@DU?$char_traits@D@std@@V?$allocator@D@2@@std@@@std@@@std@@IAE@V?$allocator@V?$basic_string@DU?$char_traits@D@std@@V?$allocator@D@2@@std@@@1@@Z$0 00400000 f   vacommon:Tokenizer.obj
 0001:fffff000       __unwindfunclet$??1?$vector@V?$basic_string@DU?$char_traits@D@std@@V?$allocator@D@2@@std@@V?$allocator@V?$basic_string@DU?$char_traits@D@std@@V?$allocator@D@2@@std@@@2@@std@@QAE@XZ$0 00400000 f   vacommon:Path.obj
 0001:fffff000       __unwindfunclet$??1?$_Container_base_aux_alloc_real@V?$allocator@V?$basic_string@DU?$char_traits@D@std@@V?$allocator@D@2@@std@@@std@@@std@@IAE@XZ$0 00400000 f   vacommon:Path.obj
 0001:fffff000       __unwindfunclet$??0logic_error@std@@QAE@ABV01@@Z$0 00400000 f   vacommon:Tokenizer.obj
 0001:fffff000       __unwindfunclet$?_Insert_n@?$vector@V?$basic_string@DU?$char_traits@D@std@@V?$allocator@D@2@@std@@V?$allocator@V?$basic_string@DU?$char_traits@D@std@@V?$allocator@D@2@@std@@@2@@std@@IAEXV?$_Vector_const_iterator@V?$basic_string@DU?$char_traits@D@std@@V?$allocator@D@2@@std@@V?$allocator@V?$basic_string@DU?$char_traits@D@std@@V?$allocator@D@2@@std@@@2@@2@IABV?$basic_string@DU?$char_traits@D@std@@V?$allocator@D@2@@2@@Z$4 00400000 f   vacommon:Path.obj
 0001:fffff000       __unwindfunclet$??0logic_error@std@@QAE@ABV?$basic_string@DU?$char_traits@D@std@@V?$allocator@D@2@@1@@Z$0 00400000 f   vacommon:Tokenizer.obj
 0001:fffff000       __unwindfunclet$?_Insert_n@?$vector@V?$basic_string@DU?$char_traits@D@std@@V?$allocator@D@2@@std@@V?$allocator@V?$basic_string@DU?$char_traits@D@std@@V?$allocator@D@2@@std@@@2@@std@@IAEXV?$_Vector_const_iterator@V?$basic_string@DU?$char_traits@D@std@@V?$allocator@D@2@@std@@V?$allocator@V?$basic_string@DU?$char_traits@D@std@@V?$allocator@D@2@@std@@@2@@2@IABV?$basic_string@DU?$char_traits@D@std@@V?$allocator@D@2@@2@@Z$4 00400000 f   vacommon:Manip.obj
 0001:fffff000       __unwindfunclet$?_Xlen@?$vector@V?$basic_string@DU?$char_traits@D@std@@V?$allocator@D@2@@std@@V?$allocator@V?$basic_string@DU?$char_traits@D@std@@V?$allocator@D@2@@std@@@2@@std@@KAXXZ$0 00400000 f   vacommon:Tokenizer.obj
 0001:fffff000       __unwindfunclet$??0?$_Container_base_aux_alloc_real@V?$allocator@V?$basic_string@DU?$char_traits@D@std@@V?$allocator@D@2@@std@@@std@@@std@@IAE@V?$allocator@V?$basic_string@DU?$char_traits@D@std@@V?$allocator@D@2@@std@@@1@@Z$0 00400000 f   vacommon:Manip.obj
 0001:fffff000       __unwindfunclet$??0logic_error@std@@QAE@ABV01@@Z$0 00400000 f   vacommon:Manip.obj
 0001:fffff000       __unwindfunclet$?_Xlen@?$vector@V?$basic_string@DU?$char_traits@D@std@@V?$allocator@D@2@@std@@V?$allocator@V?$basic_string@DU?$char_traits@D@std@@V?$allocator@D@2@@std@@@2@@std@@KAXXZ$0 00400000 f   vacommon:Path.obj
 0001:fffff000       __unwindfunclet$?_Insert_n@?$vector@V?$basic_string@DU?$char_traits@D@std@@V?$allocator@D@2@@std@@V?$allocator@V?$basic_string@DU?$char_traits@D@std@@V?$allocator@D@2@@std@@@2@@std@@IAEXV?$_Vector_const_iterator@V?$basic_string@DU?$char_traits@D@std@@V?$allocator@D@2@@std@@V?$allocator@V?$basic_string@DU?$char_traits@D@std@@V?$allocator@D@2@@std@@@2@@2@IABV?$basic_string@DU?$char_traits@D@std@@V?$allocator@D@2@@2@@Z$4 00400000 f   vacommon:Tokenizer.obj
 0001:fffff000       __unwindfunclet$??0logic_error@std@@QAE@ABV?$basic_string@DU?$char_traits@D@std@@V?$allocator@D@2@@1@@Z$0 00400000 f   vacommon:Path.obj
 0001:fffff000       __unwindfunclet$??0logic_error@std@@QAE@ABV01@@Z$0 00400000 f   vacommon:Path.obj
 0001:fffff000       __unwindfunclet$??1?$_Container_base_aux_alloc_real@V?$allocator@V?$basic_string@DU?$char_traits@D@std@@V?$allocator@D@2@@std@@@std@@@std@@IAE@XZ$0 00400000 f   vacommon:Tokenizer.obj
 0001:fffff000       __unwindfunclet$??0?$_Container_base_aux_alloc_real@V?$allocator@V?$basic_string@DU?$char_traits@D@std@@V?$allocator@D@2@@std@@@std@@@std@@IAE@V?$allocator@V?$basic_string@DU?$char_traits@D@std@@V?$allocator@D@2@@std@@@1@@Z$0 00400000 f   vacommon:Path.obj
 0001:fffff000       __unwindfunclet$??1?$vector@V?$basic_string@DU?$char_traits@D@std@@V?$allocator@D@2@@std@@V?$allocator@V?$basic_string@DU?$char_traits@D@std@@V?$allocator@D@2@@std@@@2@@std@@QAE@XZ$0 00400000 f   vacommon:Tokenizer.obj
 0001:fffff000       __ehhandler$??$_Uninit_fill_n@PAV?$basic_string@DU?$char_traits@D@std@@V?$allocator@D@2@@std@@IV12@V?$allocator@V?$basic_string@DU?$char_traits@D@std@@V?$allocator@D@2@@std@@@2@@std@@YAXPAV?$basic_string@DU?$char_traits@D@std@@V?$allocator@D@2@@0@IABV10@AAV?$allocator@V?$basic_string@DU?$char_traits@D@std@@V?$allocator@D@2@@std@@@0@U_Nonscalar_ptr_iterator_tag@0@U_Range_checked_iterator_tag@0@@Z 00400000 f   vacommon:VAFileSystem.obj
 0001:fffff000       __unwindfunclet$??0?$vector@V?$basic_string@DU?$char_traits@D@std@@V?$allocator@D@2@@std@@V?$allocator@V?$basic_string@DU?$char_traits@D@std@@V?$allocator@D@2@@std@@@2@@std@@QAE@XZ$0 00400000 f   vacommon:Tokenizer.obj
 0001:fffff000       __unwindfunclet$??$?6U?$char_traits@D@std@@@std@@YAAAV?$basic_ostream@DU?$char_traits@D@std@@@0@AAV10@PBD@Z$2 00400000 f   vacommon:Path.obj
 0001:fffff000       __unwindfunclet$??$_Uninit_move@PAV?$basic_string@DU?$char_traits@D@std@@V?$allocator@D@2@@std@@PAV12@V?$allocator@V?$basic_string@DU?$char_traits@D@std@@V?$allocator@D@2@@std@@@2@@std@@YAPAV?$basic_string@DU?$char_traits@D@std@@V?$allocator@D@2@@0@PAV10@00AAV?$allocator@V?$basic_string@DU?$char_traits@D@std@@V?$allocator@D@2@@std@@@0@U_Swap_move_tag@0@U_Range_checked_iterator_tag@0@@Z$2 00400000 f   vacommon:Manip.obj
 0001:fffff000       __unwindfunclet$??$_Uninit_move@PAV?$basic_string@DU?$char_traits@D@std@@V?$allocator@D@2@@std@@PAV12@V?$allocator@V?$basic_string@DU?$char_traits@D@std@@V?$allocator@D@2@@std@@@2@@std@@YAPAV?$basic_string@DU?$char_traits@D@std@@V?$allocator@D@2@@0@PAV10@00AAV?$allocator@V?$basic_string@DU?$char_traits@D@std@@V?$allocator@D@2@@std@@@0@U_Swap_move_tag@0@U_Range_checked_iterator_tag@0@@Z$2 00400000 f   vacommon:Path.obj
 0001:fffff000       __ehhandler$??$_Uninit_copy@PBV?$basic_string@DU?$char_traits@D@std@@V?$allocator@D@2@@std@@PAV12@V?$allocator@V?$basic_string@DU?$char_traits@D@std@@V?$allocator@D@2@@std@@@2@@std@@YAPAV?$basic_string@DU?$char_traits@D@std@@V?$allocator@D@2@@0@PBV10@0PAV10@AAV?$allocator@V?$basic_string@DU?$char_traits@D@std@@V?$allocator@D@2@@std@@@0@U_Nonscalar_ptr_iterator_tag@0@U_Range_checked_iterator_tag@0@@Z 00400000 f   vacommon:Path.obj
 0001:fffff000       __unwindfunclet$??0?$vector@V?$basic_string@DU?$char_traits@D@std@@V?$allocator@D@2@@std@@V?$allocator@V?$basic_string@DU?$char_traits@D@std@@V?$allocator@D@2@@std@@@2@@std@@QAE@XZ$0 00400000 f   vacommon:Manip.obj
 0001:fffff000       __ehhandler$??$_Uninit_fill_n@PAV?$basic_string@DU?$char_traits@D@std@@V?$allocator@D@2@@std@@IV12@V?$allocator@V?$basic_string@DU?$char_traits@D@std@@V?$allocator@D@2@@std@@@2@@std@@YAXPAV?$basic_string@DU?$char_traits@D@std@@V?$allocator@D@2@@0@IABV10@AAV?$allocator@V?$basic_string@DU?$char_traits@D@std@@V?$allocator@D@2@@std@@@0@U_Nonscalar_ptr_iterator_tag@0@U_Range_checked_iterator_tag@0@@Z 00400000 f   vacommon:Path.obj
 0001:fffff000       __unwindfunclet$??0logic_error@std@@QAE@ABV?$basic_string@DU?$char_traits@D@std@@V?$allocator@D@2@@1@@Z$0 00400000 f   vacommon:VAFileSystem.obj
 0001:fffff000       __unwindfunclet$??$_Uninit_move@PAV?$basic_string@DU?$char_traits@D@std@@V?$allocator@D@2@@std@@PAV12@V?$allocator@V?$basic_string@DU?$char_traits@D@std@@V?$allocator@D@2@@std@@@2@@std@@YAPAV?$basic_string@DU?$char_traits@D@std@@V?$allocator@D@2@@0@PAV10@00AAV?$allocator@V?$basic_string@DU?$char_traits@D@std@@V?$allocator@D@2@@std@@@0@U_Swap_move_tag@0@U_Range_checked_iterator_tag@0@@Z$2 00400000 f   vacommon:VAFileSystem.obj
 0001:fffff000       __unwindfunclet$??$_Construct@V?$basic_string@DU?$char_traits@D@std@@V?$allocator@D@2@@std@@V12@@std@@YAXPAV?$basic_string@DU?$char_traits@D@std@@V?$allocator@D@2@@0@ABV10@@Z$0 00400000 f   vacommon:Path.obj
 0001:fffff000       __unwindfunclet$??0sentry@?$basic_ostream@DU?$char_traits@D@std@@@std@@QAE@AAV12@@Z$0 00400000 f   vacommon:Path.obj
 0001:fffff000       __unwindfunclet$??1sentry@?$basic_ostream@DU?$char_traits@D@std@@@std@@QAE@XZ$0 00400000 f   vacommon:Path.obj
 0001:fffff008       __ehhandler$??1?$_Container_base_aux_alloc_real@V?$allocator@V?$basic_string@DU?$char_traits@D@std@@V?$allocator@D@2@@std@@@std@@@std@@IAE@XZ 00400008 f   vacommon:Path.obj
 0001:fffff008       __ehhandler$??1sentry@?$basic_ostream@DU?$char_traits@D@std@@@std@@QAE@XZ 00400008 f   vacommon:Path.obj
 0001:fffff008       __ehhandler$??$?6U?$char_traits@D@std@@@std@@YAAAV?$basic_ostream@DU?$char_traits@D@std@@@0@AAV10@PBD@Z 00400008 f   vacommon:Path.obj
 0001:fffff008       __ehhandler$??0?$vector@V?$basic_string@DU?$char_traits@D@std@@V?$allocator@D@2@@std@@V?$allocator@V?$basic_string@DU?$char_traits@D@std@@V?$allocator@D@2@@std@@@2@@std@@QAE@XZ 00400008 f   vacommon:Manip.obj
 0001:fffff008       __ehhandler$??0?$vector@V?$basic_string@DU?$char_traits@D@std@@V?$allocator@D@2@@std@@V?$allocator@V?$basic_string@DU?$char_traits@D@std@@V?$allocator@D@2@@std@@@2@@std@@QAE@ABV01@@Z 00400008 f   vacommon:Manip.obj
 0001:fffff008       __ehhandler$??0?$vector@V?$basic_string@DU?$char_traits@D@std@@V?$allocator@D@2@@std@@V?$allocator@V?$basic_string@DU?$char_traits@D@std@@V?$allocator@D@2@@std@@@2@@std@@QAE@XZ 00400008 f   vacommon:Tokenizer.obj
 0001:fffff008       __ehhandler$??1?$vector@V?$basic_string@DU?$char_traits@D@std@@V?$allocator@D@2@@std@@V?$allocator@V?$basic_string@DU?$char_traits@D@std@@V?$allocator@D@2@@std@@@2@@std@@QAE@XZ 00400008 f   vacommon:Tokenizer.obj
 0001:fffff008       __unwindfunclet$??0?$_Container_base_aux_alloc_real@V?$allocator@V?$basic_string@DU?$char_traits@D@std@@V?$allocator@D@2@@std@@@std@@@std@@IAE@V?$allocator@V?$basic_string@DU?$char_traits@D@std@@V?$allocator@D@2@@std@@@1@@Z$1 00400008 f   vacommon:Path.obj
 0001:fffff008       __ehhandler$??1?$vector@V?$basic_string@DU?$char_traits@D@std@@V?$allocator@D@2@@std@@V?$allocator@V?$basic_string@DU?$char_traits@D@std@@V?$allocator@D@2@@std@@@2@@std@@QAE@XZ 00400008 f   vacommon:Manip.obj
 0001:fffff008       __ehhandler$??1?$_Container_base_aux_alloc_real@V?$allocator@V?$basic_string@DU?$char_traits@D@std@@V?$allocator@D@2@@std@@@std@@@std@@IAE@XZ 00400008 f   vacommon:Tokenizer.obj
 0001:fffff008       __ehhandler$??1?$_Container_base_aux_alloc_real@V?$allocator@V?$basic_string@DU?$char_traits@D@std@@V?$allocator@D@2@@std@@@std@@@std@@IAE@XZ 00400008 f   vacommon:Manip.obj
 0001:fffff008       __ehhandler$??0?$vector@V?$basic_string@DU?$char_traits@D@std@@V?$allocator@D@2@@std@@V?$allocator@V?$basic_string@DU?$char_traits@D@std@@V?$allocator@D@2@@std@@@2@@std@@QAE@XZ 00400008 f   vacommon:Path.obj
 0001:fffff008       __ehhandler$??0?$vector@V?$basic_string@DU?$char_traits@D@std@@V?$allocator@D@2@@std@@V?$allocator@V?$basic_string@DU?$char_traits@D@std@@V?$allocator@D@2@@std@@@2@@std@@QAE@ABV01@@Z 00400008 f   vacommon:Path.obj
 0001:fffff008       __unwindfunclet$??0?$_Container_base_aux_alloc_real@V?$allocator@V?$basic_string@DU?$char_traits@D@std@@V?$allocator@D@2@@std@@@std@@@std@@IAE@V?$allocator@V?$basic_string@DU?$char_traits@D@std@@V?$allocator@D@2@@std@@@1@@Z$1 00400008 f   vacommon:Tokenizer.obj
 0001:fffff008       __unwindfunclet$??0?$_Container_base_aux_alloc_real@V?$allocator@V?$basic_string@DU?$char_traits@D@std@@V?$allocator@D@2@@std@@@std@@@std@@IAE@V?$allocator@V?$basic_string@DU?$char_traits@D@std@@V?$allocator@D@2@@std@@@1@@Z$1 00400008 f   vacommon:Manip.obj
 0001:fffff008       __ehhandler$??1?$vector@V?$basic_string@DU?$char_traits@D@std@@V?$allocator@D@2@@std@@V?$allocator@V?$basic_string@DU?$char_traits@D@std@@V?$allocator@D@2@@std@@@2@@std@@QAE@XZ 00400008 f   vacommon:Path.obj
 0001:fffff008       __ehhandler$??0sentry@?$basic_ostream@DU?$char_traits@D@std@@@std@@QAE@AAV12@@Z 00400008 f   vacommon:Path.obj
 0001:fffff009       __ehhandler$??0logic_error@std@@QAE@ABV?$basic_string@DU?$char_traits@D@std@@V?$allocator@D@2@@1@@Z 00400009 f   vacommon:Tokenizer.obj
 0001:fffff009       __unwindfunclet$?_Insert_n@?$vector@V?$basic_string@DU?$char_traits@D@std@@V?$allocator@D@2@@std@@V?$allocator@V?$basic_string@DU?$char_traits@D@std@@V?$allocator@D@2@@std@@@2@@std@@IAEXV?$_Vector_const_iterator@V?$basic_string@DU?$char_traits@D@std@@V?$allocator@D@2@@std@@V?$allocator@V?$basic_string@DU?$char_traits@D@std@@V?$allocator@D@2@@std@@@2@@2@IABV?$basic_string@DU?$char_traits@D@std@@V?$allocator@D@2@@2@@Z$5 00400009 f   vacommon:Path.obj
 0001:fffff009       __ehhandler$?_Xlen@?$vector@V?$basic_string@DU?$char_traits@D@std@@V?$allocator@D@2@@std@@V?$allocator@V?$basic_string@DU?$char_traits@D@std@@V?$allocator@D@2@@std@@@2@@std@@KAXXZ 00400009 f   vacommon:Tokenizer.obj
 0001:fffff009       __ehhandler$??0logic_error@std@@QAE@ABV01@@Z 00400009 f   vacommon:Tokenizer.obj
 0001:fffff009       __unwindfunclet$?_Insert_n@?$vector@V?$basic_string@DU?$char_traits@D@std@@V?$allocator@D@2@@std@@V?$allocator@V?$basic_string@DU?$char_traits@D@std@@V?$allocator@D@2@@std@@@2@@std@@IAEXV?$_Vector_const_iterator@V?$basic_string@DU?$char_traits@D@std@@V?$allocator@D@2@@std@@V?$allocator@V?$basic_string@DU?$char_traits@D@std@@V?$allocator@D@2@@std@@@2@@2@IABV?$basic_string@DU?$char_traits@D@std@@V?$allocator@D@2@@2@@Z$5 00400009 f   vacommon:Manip.obj
 0001:fffff009       __ehhandler$??0logic_error@std@@QAE@ABV01@@Z 00400009 f   vacommon:Manip.obj
 0001:fffff009       __ehhandler$?_Xlen@?$vector@V?$basic_string@DU?$char_traits@D@std@@V?$allocator@D@2@@std@@V?$allocator@V?$basic_string@DU?$char_traits@D@std@@V?$allocator@D@2@@std@@@2@@std@@KAXXZ 00400009 f   vacommon:Path.obj
 0001:fffff009       __ehhandler$??0logic_error@std@@QAE@ABV01@@Z 00400009 f   vacommon:VAFileSystem.obj
 0001:fffff009       __ehhandler$??$_Uninit_move@PAV?$basic_string@DU?$char_traits@D@std@@V?$allocator@D@2@@std@@PAV12@V?$allocator@V?$basic_string@DU?$char_traits@D@std@@V?$allocator@D@2@@std@@@2@@std@@YAPAV?$basic_string@DU?$char_traits@D@std@@V?$allocator@D@2@@0@PAV10@00AAV?$allocator@V?$basic_string@DU?$char_traits@D@std@@V?$allocator@D@2@@std@@@0@U_Swap_move_tag@0@U_Range_checked_iterator_tag@0@@Z 00400009 f   vacommon:VAFileSystem.obj
 0001:fffff009       __unwindfunclet$?_Insert_n@?$vector@V?$basic_string@DU?$char_traits@D@std@@V?$allocator@D@2@@std@@V?$allocator@V?$basic_string@DU?$char_traits@D@std@@V?$allocator@D@2@@std@@@2@@std@@IAEXV?$_Vector_const_iterator@V?$basic_string@DU?$char_traits@D@std@@V?$allocator@D@2@@std@@V?$allocator@V?$basic_string@DU?$char_traits@D@std@@V?$allocator@D@2@@std@@@2@@2@IABV?$basic_string@DU?$char_traits@D@std@@V?$allocator@D@2@@2@@Z$5 00400009 f   vacommon:Tokenizer.obj
 0001:fffff009       __ehhandler$??0logic_error@std@@QAE@ABV?$basic_string@DU?$char_traits@D@std@@V?$allocator@D@2@@1@@Z 00400009 f   vacommon:Manip.obj
 0001:fffff009       __ehhandler$??$_Uninit_move@PAV?$basic_string@DU?$char_traits@D@std@@V?$allocator@D@2@@std@@PAV12@V?$allocator@V?$basic_string@DU?$char_traits@D@std@@V?$allocator@D@2@@std@@@2@@std@@YAPAV?$basic_string@DU?$char_traits@D@std@@V?$allocator@D@2@@0@PAV10@00AAV?$allocator@V?$basic_string@DU?$char_traits@D@std@@V?$allocator@D@2@@std@@@0@U_Swap_move_tag@0@U_Range_checked_iterator_tag@0@@Z 00400009 f   vacommon:Tokenizer.obj
 0001:fffff009       __ehhandler$??0logic_error@std@@QAE@ABV?$basic_string@DU?$char_traits@D@std@@V?$allocator@D@2@@1@@Z 00400009 f   vacommon:Path.obj
 0001:fffff009       __unwindfunclet$?_Insert_n@?$vector@V?$basic_string@DU?$char_traits@D@std@@V?$allocator@D@2@@std@@V?$allocator@V?$basic_string@DU?$char_traits@D@std@@V?$allocator@D@2@@std@@@2@@std@@IAEXV?$_Vector_const_iterator@V?$basic_string@DU?$char_traits@D@std@@V?$allocator@D@2@@std@@V?$allocator@V?$basic_string@DU?$char_traits@D@std@@V?$allocator@D@2@@std@@@2@@2@IABV?$basic_string@DU?$char_traits@D@std@@V?$allocator@D@2@@2@@Z$5 00400009 f   vacommon:VAFileSystem.obj
 0001:fffff009       __ehhandler$??0logic_error@std@@QAE@ABV01@@Z 00400009 f   vacommon:Path.obj
 0001:fffff009       __ehhandler$??$_Uninit_move@PAV?$basic_string@DU?$char_traits@D@std@@V?$allocator@D@2@@std@@PAV12@V?$allocator@V?$basic_string@DU?$char_traits@D@std@@V?$allocator@D@2@@std@@@2@@std@@YAPAV?$basic_string@DU?$char_traits@D@std@@V?$allocator@D@2@@0@PAV10@00AAV?$allocator@V?$basic_string@DU?$char_traits@D@std@@V?$allocator@D@2@@std@@@0@U_Swap_move_tag@0@U_Range_checked_iterator_tag@0@@Z 00400009 f   vacommon:Path.obj
 0001:fffff009       __ehhandler$?_Xlen@?$vector@V?$basic_string@DU?$char_traits@D@std@@V?$allocator@D@2@@std@@V?$allocator@V?$basic_string@DU?$char_traits@D@std@@V?$allocator@D@2@@std@@@2@@std@@KAXXZ 00400009 f   vacommon:Manip.obj
 0001:fffff009       __ehhandler$??0logic_error@std@@QAE@ABV?$basic_string@DU?$char_traits@D@std@@V?$allocator@D@2@@1@@Z 00400009 f   vacommon:VAFileSystem.obj
 0001:fffff009       __ehhandler$??$_Uninit_move@PAV?$basic_string@DU?$char_traits@D@std@@V?$allocator@D@2@@std@@PAV12@V?$allocator@V?$basic_string@DU?$char_traits@D@std@@V?$allocator@D@2@@std@@@2@@std@@YAPAV?$basic_string@DU?$char_traits@D@std@@V?$allocator@D@2@@0@PAV10@00AAV?$allocator@V?$basic_string@DU?$char_traits@D@std@@V?$allocator@D@2@@std@@@0@U_Swap_move_tag@0@U_Range_checked_iterator_tag@0@@Z 00400009 f   vacommon:Manip.obj
 0001:fffff009       __ehhandler$?_Xlen@?$vector@V?$basic_string@DU?$char_traits@D@std@@V?$allocator@D@2@@std@@V?$allocator@V?$basic_string@DU?$char_traits@D@std@@V?$allocator@D@2@@std@@@2@@std@@KAXXZ 00400009 f   vacommon:VAFileSystem.obj
 0001:fffff009       __ehhandler$??1?$pair@V?$basic_string@DU?$char_traits@D@std@@V?$allocator@D@2@@std@@V12@@std@@QAE@XZ 00400009 f   vacommon:Path.obj
 0001:fffff011       __ehhandler$??$_Construct@V?$basic_string@DU?$char_traits@D@std@@V?$allocator@D@2@@std@@V12@@std@@YAXPAV?$basic_string@DU?$char_traits@D@std@@V?$allocator@D@2@@0@ABV10@@Z 00400011 f   vacommon:Path.obj
 0001:fffff011       __ehhandler$??$_Construct@V?$basic_string@DU?$char_traits@D@std@@V?$allocator@D@2@@std@@V12@@std@@YAXPAV?$basic_string@DU?$char_traits@D@std@@V?$allocator@D@2@@0@ABV10@@Z 00400011 f   vacommon:Manip.obj
 0001:fffff011       __ehhandler$??$_Construct@V?$basic_string@DU?$char_traits@D@std@@V?$allocator@D@2@@std@@V12@@std@@YAXPAV?$basic_string@DU?$char_traits@D@std@@V?$allocator@D@2@@0@ABV10@@Z 00400011 f   vacommon:Tokenizer.obj
 0001:fffff011       __ehhandler$??$_Construct@V?$basic_string@DU?$char_traits@D@std@@V?$allocator@D@2@@std@@V12@@std@@YAXPAV?$basic_string@DU?$char_traits@D@std@@V?$allocator@D@2@@0@ABV10@@Z 00400011 f   vacommon:VAFileSystem.obj
 0001:fffff012       __ehhandler$?_Insert_n@?$vector@V?$basic_string@DU?$char_traits@D@std@@V?$allocator@D@2@@std@@V?$allocator@V?$basic_string@DU?$char_traits@D@std@@V?$allocator@D@2@@std@@@2@@std@@IAEXV?$_Vector_const_iterator@V?$basic_string@DU?$char_traits@D@std@@V?$allocator@D@2@@std@@V?$allocator@V?$basic_string@DU?$char_traits@D@std@@V?$allocator@D@2@@std@@@2@@2@IABV?$basic_string@DU?$char_traits@D@std@@V?$allocator@D@2@@2@@Z 00400012 f   vacommon:Path.obj
 0001:fffff012       __ehhandler$?_Insert_n@?$vector@V?$basic_string@DU?$char_traits@D@std@@V?$allocator@D@2@@std@@V?$allocator@V?$basic_string@DU?$char_traits@D@std@@V?$allocator@D@2@@std@@@2@@std@@IAEXV?$_Vector_const_iterator@V?$basic_string@DU?$char_traits@D@std@@V?$allocator@D@2@@std@@V?$allocator@V?$basic_string@DU?$char_traits@D@std@@V?$allocator@D@2@@std@@@2@@2@IABV?$basic_string@DU?$char_traits@D@std@@V?$allocator@D@2@@2@@Z 00400012 f   vacommon:Tokenizer.obj
 0001:fffff012       __ehhandler$?_Insert_n@?$vector@V?$basic_string@DU?$char_traits@D@std@@V?$allocator@D@2@@std@@V?$allocator@V?$basic_string@DU?$char_traits@D@std@@V?$allocator@D@2@@std@@@2@@std@@IAEXV?$_Vector_const_iterator@V?$basic_string@DU?$char_traits@D@std@@V?$allocator@D@2@@std@@V?$allocator@V?$basic_string@DU?$char_traits@D@std@@V?$allocator@D@2@@std@@@2@@2@IABV?$basic_string@DU?$char_traits@D@std@@V?$allocator@D@2@@2@@Z 00400012 f   vacommon:Manip.obj
 0001:fffff012       __ehhandler$?_Insert_n@?$vector@V?$basic_string@DU?$char_traits@D@std@@V?$allocator@D@2@@std@@V?$allocator@V?$basic_string@DU?$char_traits@D@std@@V?$allocator@D@2@@std@@@2@@std@@IAEXV?$_Vector_const_iterator@V?$basic_string@DU?$char_traits@D@std@@V?$allocator@D@2@@std@@V?$allocator@V?$basic_string@DU?$char_traits@D@std@@V?$allocator@D@2@@std@@@2@@2@IABV?$basic_string@DU?$char_traits@D@std@@V?$allocator@D@2@@2@@Z 00400012 f   vacommon:VAFileSystem.obj
 0001:fffff019       __ehhandler$??0?$_Container_base_aux_alloc_real@V?$allocator@V?$basic_string@DU?$char_traits@D@std@@V?$allocator@D@2@@std@@@std@@@std@@IAE@V?$allocator@V?$basic_string@DU?$char_traits@D@std@@V?$allocator@D@2@@std@@@1@@Z 00400019 f   vacommon:Tokenizer.obj
 0001:fffff019       __ehhandler$??0?$_Container_base_aux_alloc_real@V?$allocator@V?$basic_string@DU?$char_traits@D@std@@V?$allocator@D@2@@std@@@std@@@std@@IAE@V?$allocator@V?$basic_string@DU?$char_traits@D@std@@V?$allocator@D@2@@std@@@1@@Z 00400019 f   vacommon:Path.obj
 0001:fffff019       __ehhandler$??0?$_Container_base_aux_alloc_real@V?$allocator@V?$basic_string@DU?$char_traits@D@std@@V?$allocator@D@2@@std@@@std@@@std@@IAE@V?$allocator@V?$basic_string@DU?$char_traits@D@std@@V?$allocator@D@2@@std@@@1@@Z 00400019 f   vacommon:Manip.obj
 0001:fffff067       __catch$??$_Uninit_fill_n@PAV?$basic_string@DU?$char_traits@D@std@@V?$allocator@D@2@@std@@IV12@V?$allocator@V?$basic_string@DU?$char_traits@D@std@@V?$allocator@D@2@@std@@@2@@std@@YAXPAV?$basic_string@DU?$char_traits@D@std@@V?$allocator@D@2@@0@IABV10@AAV?$allocator@V?$basic_string@DU?$char_traits@D@std@@V?$allocator@D@2@@std@@@0@U_Nonscalar_ptr_iterator_tag@0@U_Range_checked_iterator_tag@0@@Z$0 00400067 f   vacommon:Manip.obj
 0001:fffff067       __catch$??$_Uninit_fill_n@PAV?$basic_string@DU?$char_traits@D@std@@V?$allocator@D@2@@std@@IV12@V?$allocator@V?$basic_string@DU?$char_traits@D@std@@V?$allocator@D@2@@std@@@2@@std@@YAXPAV?$basic_string@DU?$char_traits@D@std@@V?$allocator@D@2@@0@IABV10@AAV?$allocator@V?$basic_string@DU?$char_traits@D@std@@V?$allocator@D@2@@std@@@0@U_Nonscalar_ptr_iterator_tag@0@U_Range_checked_iterator_tag@0@@Z$0 00400067 f   vacommon:Path.obj
 0001:fffff067       __catch$??$_Uninit_fill_n@PAV?$basic_string@DU?$char_traits@D@std@@V?$allocator@D@2@@std@@IV12@V?$allocator@V?$basic_string@DU?$char_traits@D@std@@V?$allocator@D@2@@std@@@2@@std@@YAXPAV?$basic_string@DU?$char_traits@D@std@@V?$allocator@D@2@@0@IABV10@AAV?$allocator@V?$basic_string@DU?$char_traits@D@std@@V?$allocator@D@2@@std@@@0@U_Nonscalar_ptr_iterator_tag@0@U_Range_checked_iterator_tag@0@@Z$0 00400067 f   vacommon:Tokenizer.obj
 0001:fffff067       __catch$??$_Uninit_fill_n@PAV?$basic_string@DU?$char_traits@D@std@@V?$allocator@D@2@@std@@IV12@V?$allocator@V?$basic_string@DU?$char_traits@D@std@@V?$allocator@D@2@@std@@@2@@std@@YAXPAV?$basic_string@DU?$char_traits@D@std@@V?$allocator@D@2@@0@IABV10@AAV?$allocator@V?$basic_string@DU?$char_traits@D@std@@V?$allocator@D@2@@std@@@0@U_Nonscalar_ptr_iterator_tag@0@U_Range_checked_iterator_tag@0@@Z$0 00400067 f   vacommon:VAFileSystem.obj
 0001:fffff069       __catch$??$_Uninit_copy@PBV?$basic_string@DU?$char_traits@D@std@@V?$allocator@D@2@@std@@PAV12@V?$allocator@V?$basic_string@DU?$char_traits@D@std@@V?$allocator@D@2@@std@@@2@@std@@YAPAV?$basic_string@DU?$char_traits@D@std@@V?$allocator@D@2@@0@PBV10@0PAV10@AAV?$allocator@V?$basic_string@DU?$char_traits@D@std@@V?$allocator@D@2@@std@@@0@U_Nonscalar_ptr_iterator_tag@0@U_Range_checked_iterator_tag@0@@Z$0 00400069 f   vacommon:Path.obj
 0001:fffff069       __catch$??$_Uninit_copy@PBV?$basic_string@DU?$char_traits@D@std@@V?$allocator@D@2@@std@@PAV12@V?$allocator@V?$basic_string@DU?$char_traits@D@std@@V?$allocator@D@2@@std@@@2@@std@@YAPAV?$basic_string@DU?$char_traits@D@std@@V?$allocator@D@2@@0@PBV10@0PAV10@AAV?$allocator@V?$basic_string@DU?$char_traits@D@std@@V?$allocator@D@2@@std@@@0@U_Nonscalar_ptr_iterator_tag@0@U_Range_checked_iterator_tag@0@@Z$0 00400069 f   vacommon:Manip.obj
 0001:fffff089       __catch$??$_Uninit_move@PAV?$basic_string@DU?$char_traits@D@std@@V?$allocator@D@2@@std@@PAV12@V?$allocator@V?$basic_string@DU?$char_traits@D@std@@V?$allocator@D@2@@std@@@2@@std@@YAPAV?$basic_string@DU?$char_traits@D@std@@V?$allocator@D@2@@0@PAV10@00AAV?$allocator@V?$basic_string@DU?$char_traits@D@std@@V?$allocator@D@2@@std@@@0@U_Swap_move_tag@0@U_Range_checked_iterator_tag@0@@Z$0 00400089 f   vacommon:Tokenizer.obj
 0001:fffff089       __catch$??$_Uninit_move@PAV?$basic_string@DU?$char_traits@D@std@@V?$allocator@D@2@@std@@PAV12@V?$allocator@V?$basic_string@DU?$char_traits@D@std@@V?$allocator@D@2@@std@@@2@@std@@YAPAV?$basic_string@DU?$char_traits@D@std@@V?$allocator@D@2@@0@PAV10@00AAV?$allocator@V?$basic_string@DU?$char_traits@D@std@@V?$allocator@D@2@@std@@@0@U_Swap_move_tag@0@U_Range_checked_iterator_tag@0@@Z$0 00400089 f   vacommon:VAFileSystem.obj
 0001:fffff089       __catch$??$_Uninit_move@PAV?$basic_string@DU?$char_traits@D@std@@V?$allocator@D@2@@std@@PAV12@V?$allocator@V?$basic_string@DU?$char_traits@D@std@@V?$allocator@D@2@@std@@@2@@std@@YAPAV?$basic_string@DU?$char_traits@D@std@@V?$allocator@D@2@@0@PAV10@00AAV?$allocator@V?$basic_string@DU?$char_traits@D@std@@V?$allocator@D@2@@std@@@0@U_Swap_move_tag@0@U_Range_checked_iterator_tag@0@@Z$0 00400089 f   vacommon:Path.obj
 0001:fffff089       __catch$??$_Uninit_move@PAV?$basic_string@DU?$char_traits@D@std@@V?$allocator@D@2@@std@@PAV12@V?$allocator@V?$basic_string@DU?$char_traits@D@std@@V?$allocator@D@2@@std@@@2@@std@@YAPAV?$basic_string@DU?$char_traits@D@std@@V?$allocator@D@2@@0@PAV10@00AAV?$allocator@V?$basic_string@DU?$char_traits@D@std@@V?$allocator@D@2@@std@@@0@U_Swap_move_tag@0@U_Range_checked_iterator_tag@0@@Z$0 00400089 f   vacommon:Manip.obj
 0001:fffff0bb       __catch$??0?$vector@V?$basic_string@DU?$char_traits@D@std@@V?$allocator@D@2@@std@@V?$allocator@V?$basic_string@DU?$char_traits@D@std@@V?$allocator@D@2@@std@@@2@@std@@QAE@ABV01@@Z$0 004000bb f   vacommon:Manip.obj
 0001:fffff0bb       __catch$??0?$vector@V?$basic_string@DU?$char_traits@D@std@@V?$allocator@D@2@@std@@V?$allocator@V?$basic_string@DU?$char_traits@D@std@@V?$allocator@D@2@@std@@@2@@std@@QAE@ABV01@@Z$0 004000bb f   vacommon:Path.obj
 0001:fffff158       __catch$?_Insert_n@?$vector@V?$basic_string@DU?$char_traits@D@std@@V?$allocator@D@2@@std@@V?$allocator@V?$basic_string@DU?$char_traits@D@std@@V?$allocator@D@2@@std@@@2@@std@@IAEXV?$_Vector_const_iterator@V?$basic_string@DU?$char_traits@D@std@@V?$allocator@D@2@@std@@V?$allocator@V?$basic_string@DU?$char_traits@D@std@@V?$allocator@D@2@@std@@@2@@2@IABV?$basic_string@DU?$char_traits@D@std@@V?$allocator@D@2@@2@@Z$0 00400158 f   vacommon:VAFileSystem.obj
 0001:fffff158       __catch$?_Insert_n@?$vector@V?$basic_string@DU?$char_traits@D@std@@V?$allocator@D@2@@std@@V?$allocator@V?$basic_string@DU?$char_traits@D@std@@V?$allocator@D@2@@std@@@2@@std@@IAEXV?$_Vector_const_iterator@V?$basic_string@DU?$char_traits@D@std@@V?$allocator@D@2@@std@@V?$allocator@V?$basic_string@DU?$char_traits@D@std@@V?$allocator@D@2@@std@@@2@@2@IABV?$basic_string@DU?$char_traits@D@std@@V?$allocator@D@2@@2@@Z$0 00400158 f   vacommon:Path.obj
 0001:fffff158       __catch$?_Insert_n@?$vector@V?$basic_string@DU?$char_traits@D@std@@V?$allocator@D@2@@std@@V?$allocator@V?$basic_string@DU?$char_traits@D@std@@V?$allocator@D@2@@std@@@2@@std@@IAEXV?$_Vector_const_iterator@V?$basic_string@DU?$char_traits@D@std@@V?$allocator@D@2@@std@@V?$allocator@V?$basic_string@DU?$char_traits@D@std@@V?$allocator@D@2@@std@@@2@@2@IABV?$basic_string@DU?$char_traits@D@std@@V?$allocator@D@2@@2@@Z$0 00400158 f   vacommon:Tokenizer.obj
 0001:fffff158       __catch$?_Insert_n@?$vector@V?$basic_string@DU?$char_traits@D@std@@V?$allocator@D@2@@std@@V?$allocator@V?$basic_string@DU?$char_traits@D@std@@V?$allocator@D@2@@std@@@2@@std@@IAEXV?$_Vector_const_iterator@V?$basic_string@DU?$char_traits@D@std@@V?$allocator@D@2@@std@@V?$allocator@V?$basic_string@DU?$char_traits@D@std@@V?$allocator@D@2@@std@@@2@@2@IABV?$basic_string@DU?$char_traits@D@std@@V?$allocator@D@2@@2@@Z$0 00400158 f   vacommon:Manip.obj
 0001:fffff293       __catch$?_Insert_n@?$vector@V?$basic_string@DU?$char_traits@D@std@@V?$allocator@D@2@@std@@V?$allocator@V?$basic_string@DU?$char_traits@D@std@@V?$allocator@D@2@@std@@@2@@std@@IAEXV?$_Vector_const_iterator@V?$basic_string@DU?$char_traits@D@std@@V?$allocator@D@2@@std@@V?$allocator@V?$basic_string@DU?$char_traits@D@std@@V?$allocator@D@2@@std@@@2@@2@IABV?$basic_string@DU?$char_traits@D@std@@V?$allocator@D@2@@2@@Z$2 00400293 f   vacommon:Tokenizer.obj
 0001:fffff293       __catch$?_Insert_n@?$vector@V?$basic_string@DU?$char_traits@D@std@@V?$allocator@D@2@@std@@V?$allocator@V?$basic_string@DU?$char_traits@D@std@@V?$allocator@D@2@@std@@@2@@std@@IAEXV?$_Vector_const_iterator@V?$basic_string@DU?$char_traits@D@std@@V?$allocator@D@2@@std@@V?$allocator@V?$basic_string@DU?$char_traits@D@std@@V?$allocator@D@2@@std@@@2@@2@IABV?$basic_string@DU?$char_traits@D@std@@V?$allocator@D@2@@2@@Z$2 00400293 f   vacommon:Path.obj
 0001:fffff293       __catch$?_Insert_n@?$vector@V?$basic_string@DU?$char_traits@D@std@@V?$allocator@D@2@@std@@V?$allocator@V?$basic_string@DU?$char_traits@D@std@@V?$allocator@D@2@@std@@@2@@std@@IAEXV?$_Vector_const_iterator@V?$basic_string@DU?$char_traits@D@std@@V?$allocator@D@2@@std@@V?$allocator@V?$basic_string@DU?$char_traits@D@std@@V?$allocator@D@2@@std@@@2@@2@IABV?$basic_string@DU?$char_traits@D@std@@V?$allocator@D@2@@2@@Z$2 00400293 f   vacommon:VAFileSystem.obj
 0001:fffff293       __catch$?_Insert_n@?$vector@V?$basic_string@DU?$char_traits@D@std@@V?$allocator@D@2@@std@@V?$allocator@V?$basic_string@DU?$char_traits@D@std@@V?$allocator@D@2@@std@@@2@@std@@IAEXV?$_Vector_const_iterator@V?$basic_string@DU?$char_traits@D@std@@V?$allocator@D@2@@std@@V?$allocator@V?$basic_string@DU?$char_traits@D@std@@V?$allocator@D@2@@std@@@2@@2@IABV?$basic_string@DU?$char_traits@D@std@@V?$allocator@D@2@@2@@Z$2 00400293 f   vacommon:Manip.obj
 0001:fffff2a1       __catch$??$?6U?$char_traits@D@std@@@std@@YAAAV?$basic_ostream@DU?$char_traits@D@std@@@0@AAV10@PBD@Z$0 004002a1 f   vacommon:Path.obj
 0001:00001ac0       ?clearTime@@YAXXZ          00402ac0 f   test_libisssr_win32.obj
 0001:000023c0       ?isLegalUTF8@VA@@YA_NPBEH@Z 004033c0 f   vacommon:VAString.obj
 0001:00003170       ?StringValidateDestA@@YGJPADIPAII@Z 00404170 f   vacommon:VAString.obj
 0001:000031d0       ?StringLengthWorkerA@@YGJPBDIPAI@Z 004041d0 f   vacommon:VAString.obj
 0001:00003250       ?StringVPrintfWorkerA@@YGJPADIPAIPBD0@Z 00404250 f   vacommon:VAString.obj
 0001:00003510       ?StringValidateDestW@@YGJPA_WIPAII@Z 00404510 f   vacommon:VAString.obj
 0001:00003570       ?StringLengthWorkerW@@YGJPB_WIPAI@Z 00404570 f   vacommon:VAString.obj
 0001:000035f0       ?StringVPrintfWorkerW@@YGJPA_WIPAIPB_WPAD@Z 004045f0 f   vacommon:VAString.obj
 0001:00004f23       __catch$?__ConcatCopy@U8String@VA@@AAEXPBDI0I@Z$0 00405f23 f   vacommon:VAString.obj
 0001:000050e0       ?StringCopyWorkerA@@YGJPADIPAIPBDI@Z 004060e0 f   vacommon:VAString.obj
 0001:0000523d       __catch$??0U8String@VA@@QAE@ABV01@@Z$0 0040623d f   vacommon:VAString.obj
 0001:0000538e       __catch$??0U8String@VA@@QAE@DI@Z$0 0040638e f   vacommon:VAString.obj
 0001:00005515       __catch$??0U8String@VA@@QAE@PBDI@Z$0 00406515 f   vacommon:VAString.obj
 0001:0000565f       __catch$??0U8String@VA@@QAE@ABV?$basic_string@DU?$char_traits@D@std@@V?$allocator@D@2@@std@@@Z$0 0040665f f   vacommon:VAString.obj
 0001:00005853       __catch$??4U8String@VA@@QAEABV01@ABV01@@Z$0 00406853 f   vacommon:VAString.obj
 0001:000059b2       __catch$??4U8String@VA@@QAEABV01@D@Z$0 004069b2 f   vacommon:VAString.obj
 0001:00005b0d       __catch$??4U8String@VA@@QAEABV01@PBD@Z$0 00406b0d f   vacommon:VAString.obj
 0001:00005ccf       __catch$??4U8String@VA@@QAEABV01@ABV?$basic_string@DU?$char_traits@D@std@@V?$allocator@D@2@@std@@@Z$0 00406ccf f   vacommon:VAString.obj
 0001:00005e53       __catch$??YU8String@VA@@QAEABV01@ABV01@@Z$0 00406e53 f   vacommon:VAString.obj
 0001:00005f81       __catch$??YU8String@VA@@QAEABV01@ABV01@@Z$2 00406f81 f   vacommon:VAString.obj
 0001:00006103       __catch$??YU8String@VA@@QAEABV01@D@Z$0 00407103 f   vacommon:VAString.obj
 0001:00006217       __catch$??YU8String@VA@@QAEABV01@D@Z$2 00407217 f   vacommon:VAString.obj
 0001:00006393       __catch$??YU8String@VA@@QAEABV01@PBD@Z$0 00407393 f   vacommon:VAString.obj
 0001:000064c9       __catch$??YU8String@VA@@QAEABV01@PBD@Z$2 004074c9 f   vacommon:VAString.obj
 0001:00006a69       __catch$?FormatV@U8String@VA@@QAEXPBDPAD@Z$0 00407a69 f   vacommon:VAString.obj
 0001:00006b9f       __catch$?Insert@U8String@VA@@QAEIID@Z$0 00407b9f f   vacommon:VAString.obj
 0001:00006d2e       __catch$?Insert@U8String@VA@@QAEIIPBD@Z$0 00407d2e f   vacommon:VAString.obj
 0001:00007ee2       __catch$?fromU16String@U8String@VA@@QAEXABVU16String@2@@Z$0 00408ee2 f   vacommon:VAString.obj
 0001:00008087       __catch$?fromU16String@U8String@VA@@QAEXPB_W@Z$0 00409087 f   vacommon:VAString.obj
 0001:00008230       ?StringCopyWorkerW@@YGJPA_WIPAIPB_WI@Z 00409230 f   vacommon:VAString.obj
 0001:00008663       __catch$?__ConcatCopy@U16String@VA@@AAEXPB_WI0I@Z$0 00409663 f   vacommon:VAString.obj
 0001:000087ed       __catch$??0U16String@VA@@QAE@ABV01@@Z$0 004097ed f   vacommon:VAString.obj
 0001:0000894e       __catch$??0U16String@VA@@QAE@_WI@Z$0 0040994e f   vacommon:VAString.obj
 0001:00008ae5       __catch$??0U16String@VA@@QAE@PB_WI@Z$0 00409ae5 f   vacommon:VAString.obj
 0001:00008c63       __catch$??4U16String@VA@@QAEABV01@ABV01@@Z$0 00409c63 f   vacommon:VAString.obj
 0001:00008dc2       __catch$??4U16String@VA@@QAEABV01@_W@Z$0 00409dc2 f   vacommon:VAString.obj
 0001:00008f2d       __catch$??4U16String@VA@@QAEABV01@PB_W@Z$0 00409f2d f   vacommon:VAString.obj
 0001:000090b3       __catch$??YU16String@VA@@QAEABV01@ABV01@@Z$0 0040a0b3 f   vacommon:VAString.obj
 0001:000091f2       __catch$??YU16String@VA@@QAEABV01@ABV01@@Z$2 0040a1f2 f   vacommon:VAString.obj
 0001:00009383       __catch$??YU16String@VA@@QAEABV01@_W@Z$0 0040a383 f   vacommon:VAString.obj
 0001:000094a9       __catch$??YU16String@VA@@QAEABV01@_W@Z$2 0040a4a9 f   vacommon:VAString.obj
 0001:00009633       __catch$??YU16String@VA@@QAEABV01@PB_W@Z$0 0040a633 f   vacommon:VAString.obj
 0001:0000977a       __catch$??YU16String@VA@@QAEABV01@PB_W@Z$2 0040a77a f   vacommon:VAString.obj
 0001:00009c89       __catch$?FormatV@U16String@VA@@QAEXPB_WPAD@Z$0 0040ac89 f   vacommon:VAString.obj
 0001:00009dff       __catch$?Insert@U16String@VA@@QAEII_W@Z$0 0040adff f   vacommon:VAString.obj
 0001:00009f9e       __catch$?Insert@U16String@VA@@QAEIIPB_W@Z$0 0040af9e f   vacommon:VAString.obj
 0001:0000b1df       __catch$?fromU8String@U16String@VA@@QAEXABVU8String@2@@Z$0 0040c1df f   vacommon:VAString.obj
 0001:0000b3a3       __catch$?fromU8String@U16String@VA@@QAEXPBD@Z$0 0040c3a3 f   vacommon:VAString.obj
 0001:0000b60b       __catch$??0?$vector@V?$basic_string@DU?$char_traits@D@std@@V?$allocator@D@2@@std@@V?$allocator@V?$basic_string@DU?$char_traits@D@std@@V?$allocator@D@2@@std@@@2@@std@@QAE@ABV01@@Z$0 0040c60b f i vacommon:VAString.obj
 0001:0000bca8       __catch$?_Insert_n@?$vector@V?$basic_string@DU?$char_traits@D@std@@V?$allocator@D@2@@std@@V?$allocator@V?$basic_string@DU?$char_traits@D@std@@V?$allocator@D@2@@std@@@2@@std@@IAEXV?$_Vector_const_iterator@V?$basic_string@DU?$char_traits@D@std@@V?$allocator@D@2@@std@@V?$allocator@V?$basic_string@DU?$char_traits@D@std@@V?$allocator@D@2@@std@@@2@@2@IABV?$basic_string@DU?$char_traits@D@std@@V?$allocator@D@2@@2@@Z$0 0040cca8 f i vacommon:VAString.obj
 0001:0000bde3       __catch$?_Insert_n@?$vector@V?$basic_string@DU?$char_traits@D@std@@V?$allocator@D@2@@std@@V?$allocator@V?$basic_string@DU?$char_traits@D@std@@V?$allocator@D@2@@std@@@2@@std@@IAEXV?$_Vector_const_iterator@V?$basic_string@DU?$char_traits@D@std@@V?$allocator@D@2@@std@@V?$allocator@V?$basic_string@DU?$char_traits@D@std@@V?$allocator@D@2@@std@@@2@@2@IABV?$basic_string@DU?$char_traits@D@std@@V?$allocator@D@2@@2@@Z$2 0040cde3 f i vacommon:VAString.obj
 0001:0000c881       __catch$??$?6U?$char_traits@D@std@@@std@@YAAAV?$basic_ostream@DU?$char_traits@D@std@@@0@AAV10@PBD@Z$0 0040d881 f i vacommon:VAString.obj
 0001:0000cf07       __catch$??$_Uninit_fill_n@PAV?$basic_string@DU?$char_traits@D@std@@V?$allocator@D@2@@std@@IV12@V?$allocator@V?$basic_string@DU?$char_traits@D@std@@V?$allocator@D@2@@std@@@2@@std@@YAXPAV?$basic_string@DU?$char_traits@D@std@@V?$allocator@D@2@@0@IABV10@AAV?$allocator@V?$basic_string@DU?$char_traits@D@std@@V?$allocator@D@2@@std@@@0@U_Nonscalar_ptr_iterator_tag@0@U_Range_checked_iterator_tag@0@@Z$0 0040df07 f i vacommon:VAString.obj
 0001:0000d1b9       __catch$??$_Uninit_copy@PBV?$basic_string@DU?$char_traits@D@std@@V?$allocator@D@2@@std@@PAV12@V?$allocator@V?$basic_string@DU?$char_traits@D@std@@V?$allocator@D@2@@std@@@2@@std@@YAPAV?$basic_string@DU?$char_traits@D@std@@V?$allocator@D@2@@0@PBV10@0PAV10@AAV?$allocator@V?$basic_string@DU?$char_traits@D@std@@V?$allocator@D@2@@std@@@0@U_Nonscalar_ptr_iterator_tag@0@U_Range_checked_iterator_tag@0@@Z$0 0040e1b9 f i vacommon:VAString.obj
 0001:0000d299       __catch$??$_Uninit_move@PAV?$basic_string@DU?$char_traits@D@std@@V?$allocator@D@2@@std@@PAV12@V?$allocator@V?$basic_string@DU?$char_traits@D@std@@V?$allocator@D@2@@std@@@2@@std@@YAPAV?$basic_string@DU?$char_traits@D@std@@V?$allocator@D@2@@0@PAV10@00AAV?$allocator@V?$basic_string@DU?$char_traits@D@std@@V?$allocator@D@2@@std@@@0@U_Swap_move_tag@0@U_Range_checked_iterator_tag@0@@Z$0 0040e299 f i vacommon:VAString.obj
 0001:000132ae       __catch$?_Construct_n@?$vector@IV?$allocator@I@std@@@std@@QAEXIABI@Z$0 004142ae f i vacommon:Manip.obj
 0001:0001407f       _pre_cpp_init              0041507f f   MSVCRT:wcrtexe.obj
 0001:000140ca       ___tmainCRTStartup         004150ca f   MSVCRT:wcrtexe.obj
 0001:00014240       _check_managed_app         00415240 f   MSVCRT:wcrtexe.obj
 0001:0001429f       _pre_c_init                0041529f f   MSVCRT:wcrtexe.obj
 0001:000144de       ?ArrayUnwindFilter@@YAHPAU_EXCEPTION_POINTERS@@@Z 004154de f   MSVCRT:ehvecdtr.obj
 0001:00014de0       __unwindfunclet$?g_Proc_OnMsgProc@@YAXPBXII0@Z$0 00415de0 f   test_libisssr_win32.obj
 0001:00014de8       __unwindfunclet$?g_Proc_OnMsgProc@@YAXPBXII0@Z$1 00415de8 f   test_libisssr_win32.obj
 0001:00014df0       __unwindfunclet$?g_Proc_OnMsgProc@@YAXPBXII0@Z$2 00415df0 f   test_libisssr_win32.obj
 0001:00014df8       __unwindfunclet$?g_Proc_OnMsgProc@@YAXPBXII0@Z$3 00415df8 f   test_libisssr_win32.obj
 0001:00014e00       __unwindfunclet$?g_Proc_OnMsgProc@@YAXPBXII0@Z$4 00415e00 f   test_libisssr_win32.obj
 0001:00014e08       __ehhandler$?g_Proc_OnMsgProc@@YAXPBXII0@Z 00415e08 f   test_libisssr_win32.obj
 0001:00014e30       __unwindfunclet$_wmain$0   00415e30 f   test_libisssr_win32.obj
 0001:00014e39       __unwindfunclet$_wmain$1   00415e39 f   test_libisssr_win32.obj
 0001:00014e47       __unwindfunclet$_wmain$2   00415e47 f   test_libisssr_win32.obj
 0001:00014e52       __unwindfunclet$_wmain$3   00415e52 f   test_libisssr_win32.obj
 0001:00014e5d       __unwindfunclet$_wmain$4   00415e5d f   test_libisssr_win32.obj
 0001:00014e68       __unwindfunclet$_wmain$5   00415e68 f   test_libisssr_win32.obj
 0001:00014e73       __unwindfunclet$_wmain$6   00415e73 f   test_libisssr_win32.obj
 0001:00014e7e       __unwindfunclet$_wmain$7   00415e7e f   test_libisssr_win32.obj
 0001:00014e8a       __unwindfunclet$_wmain$8   00415e8a f   test_libisssr_win32.obj
 0001:00014e95       __ehhandler$_wmain         00415e95 f   test_libisssr_win32.obj
 0001:00014ec0       __unwindfunclet$?TrimLeft@VA@@YA?AV?$basic_string@DU?$char_traits@D@std@@V?$allocator@D@2@@std@@ABV23@@Z$0 00415ec0 f   vacommon:VAString.obj
 0001:00014ec0       __unwindfunclet$?TrimRight@VA@@YA?AV?$basic_string@DU?$char_traits@D@std@@V?$allocator@D@2@@std@@ABV23@@Z$0 00415ec0 f   vacommon:VAString.obj
 0001:00014eda       __unwindfunclet$?TrimLeft@VA@@YA?AV?$basic_string@DU?$char_traits@D@std@@V?$allocator@D@2@@std@@ABV23@@Z$1 00415eda f   vacommon:VAString.obj
 0001:00014eda       __unwindfunclet$?TrimRight@VA@@YA?AV?$basic_string@DU?$char_traits@D@std@@V?$allocator@D@2@@std@@ABV23@@Z$1 00415eda f   vacommon:VAString.obj
 0001:00014ee3       __ehhandler$?TrimLeft@VA@@YA?AV?$basic_string@DU?$char_traits@D@std@@V?$allocator@D@2@@std@@ABV23@@Z 00415ee3 f   vacommon:VAString.obj
 0001:00014ee3       __ehhandler$?TrimRight@VA@@YA?AV?$basic_string@DU?$char_traits@D@std@@V?$allocator@D@2@@std@@ABV23@@Z 00415ee3 f   vacommon:VAString.obj
 0001:00014f10       __unwindfunclet$?Trim@VA@@YA?AV?$basic_string@DU?$char_traits@D@std@@V?$allocator@D@2@@std@@ABV23@@Z$0 00415f10 f   vacommon:VAString.obj
 0001:00014f2a       __unwindfunclet$?Trim@VA@@YA?AV?$basic_string@DU?$char_traits@D@std@@V?$allocator@D@2@@std@@ABV23@@Z$1 00415f2a f   vacommon:VAString.obj
 0001:00014f33       __ehhandler$?Trim@VA@@YA?AV?$basic_string@DU?$char_traits@D@std@@V?$allocator@D@2@@std@@ABV23@@Z 00415f33 f   vacommon:VAString.obj
 0001:00014f60       __unwindfunclet$?split@VA@@YAAAV?$vector@V?$basic_string@DU?$char_traits@D@std@@V?$allocator@D@2@@std@@V?$allocator@V?$basic_string@DU?$char_traits@D@std@@V?$allocator@D@2@@std@@@2@@std@@ABV?$basic_string@DU?$char_traits@D@std@@V?$allocator@D@2@@3@DAAV23@@Z$0 00415f60 f   vacommon:VAString.obj
 0001:00014f6c       __unwindfunclet$?split@VA@@YAAAV?$vector@V?$basic_string@DU?$char_traits@D@std@@V?$allocator@D@2@@std@@V?$allocator@V?$basic_string@DU?$char_traits@D@std@@V?$allocator@D@2@@std@@@2@@std@@ABV?$basic_string@DU?$char_traits@D@std@@V?$allocator@D@2@@3@DAAV23@@Z$1 00415f6c f   vacommon:VAString.obj
 0001:00014f78       __ehhandler$?split@VA@@YAAAV?$vector@V?$basic_string@DU?$char_traits@D@std@@V?$allocator@D@2@@std@@V?$allocator@V?$basic_string@DU?$char_traits@D@std@@V?$allocator@D@2@@std@@@2@@std@@ABV?$basic_string@DU?$char_traits@D@std@@V?$allocator@D@2@@3@DAAV23@@Z 00415f78 f   vacommon:VAString.obj
 0001:00014fa0       __unwindfunclet$?split@VA@@YA?AV?$vector@V?$basic_string@DU?$char_traits@D@std@@V?$allocator@D@2@@std@@V?$allocator@V?$basic_string@DU?$char_traits@D@std@@V?$allocator@D@2@@std@@@2@@std@@ABV?$basic_string@DU?$char_traits@D@std@@V?$allocator@D@2@@3@D@Z$0 00415fa0 f   vacommon:VAString.obj
 0001:00014fa8       __unwindfunclet$?split@VA@@YA?AV?$vector@V?$basic_string@DU?$char_traits@D@std@@V?$allocator@D@2@@std@@V?$allocator@V?$basic_string@DU?$char_traits@D@std@@V?$allocator@D@2@@std@@@2@@std@@ABV?$basic_string@DU?$char_traits@D@std@@V?$allocator@D@2@@3@D@Z$1 00415fa8 f   vacommon:VAString.obj
 0001:00014fc1       __ehhandler$?split@VA@@YA?AV?$vector@V?$basic_string@DU?$char_traits@D@std@@V?$allocator@D@2@@std@@V?$allocator@V?$basic_string@DU?$char_traits@D@std@@V?$allocator@D@2@@std@@@2@@std@@ABV?$basic_string@DU?$char_traits@D@std@@V?$allocator@D@2@@3@D@Z 00415fc1 f   vacommon:VAString.obj
 0001:00014fe0       __unwindfunclet$?stringFormatAppendV@VA@@YAXAAV?$basic_string@DU?$char_traits@D@std@@V?$allocator@D@2@@std@@PBDPAD@Z$0 00415fe0 f   vacommon:VAString.obj
 0001:00014fe9       __ehhandler$?stringFormatAppendV@VA@@YAXAAV?$basic_string@DU?$char_traits@D@std@@V?$allocator@D@2@@std@@PBDPAD@Z 00415fe9 f   vacommon:VAString.obj
 0001:00015010       __unwindfunclet$?wstringFormatAppendV@VA@@YAXAAV?$basic_string@_WU?$char_traits@_W@std@@V?$allocator@_W@2@@std@@PB_WPAD@Z$0 00416010 f   vacommon:VAString.obj
 0001:00015019       __ehhandler$?wstringFormatAppendV@VA@@YAXAAV?$basic_string@_WU?$char_traits@_W@std@@V?$allocator@_W@2@@std@@PB_WPAD@Z 00416019 f   vacommon:VAString.obj
 0001:00015040       __ehhandler$?__ConcatCopy@U8String@VA@@AAEXPBDI0I@Z 00416040 f   vacommon:VAString.obj
 0001:00015060       __ehhandler$??0U8String@VA@@QAE@ABV01@@Z 00416060 f   vacommon:VAString.obj
 0001:00015080       __ehhandler$??0U8String@VA@@QAE@DI@Z 00416080 f   vacommon:VAString.obj
 0001:000150a0       __ehhandler$??0U8String@VA@@QAE@PBDI@Z 004160a0 f   vacommon:VAString.obj
 0001:000150c0       __ehhandler$??0U8String@VA@@QAE@ABV?$basic_string@DU?$char_traits@D@std@@V?$allocator@D@2@@std@@@Z 004160c0 f   vacommon:VAString.obj
 0001:000150e0       __ehhandler$??4U8String@VA@@QAEABV01@ABV01@@Z 004160e0 f   vacommon:VAString.obj
 0001:00015100       __ehhandler$??4U8String@VA@@QAEABV01@D@Z 00416100 f   vacommon:VAString.obj
 0001:00015120       __ehhandler$??4U8String@VA@@QAEABV01@PBD@Z 00416120 f   vacommon:VAString.obj
 0001:00015140       __ehhandler$??4U8String@VA@@QAEABV01@ABV?$basic_string@DU?$char_traits@D@std@@V?$allocator@D@2@@std@@@Z 00416140 f   vacommon:VAString.obj
 0001:00015160       __ehhandler$??YU8String@VA@@QAEABV01@ABV01@@Z 00416160 f   vacommon:VAString.obj
 0001:00015180       __ehhandler$??YU8String@VA@@QAEABV01@D@Z 00416180 f   vacommon:VAString.obj
 0001:000151a0       __ehhandler$??YU8String@VA@@QAEABV01@PBD@Z 004161a0 f   vacommon:VAString.obj
 0001:000151c0       __ehhandler$?FormatV@U8String@VA@@QAEXPBDPAD@Z 004161c0 f   vacommon:VAString.obj
 0001:000151e0       __ehhandler$?Insert@U8String@VA@@QAEIID@Z 004161e0 f   vacommon:VAString.obj
 0001:00015200       __ehhandler$?Insert@U8String@VA@@QAEIIPBD@Z 00416200 f   vacommon:VAString.obj
 0001:00015220       __unwindfunclet$??HVA@@YA?AVU8String@0@DABV10@@Z$0 00416220 f   vacommon:VAString.obj
 0001:00015220       __unwindfunclet$??HVA@@YA?AVU8String@0@ABV10@D@Z$0 00416220 f   vacommon:VAString.obj
 0001:00015228       __unwindfunclet$??HVA@@YA?AVU8String@0@DABV10@@Z$1 00416228 f   vacommon:VAString.obj
 0001:00015228       __unwindfunclet$??HVA@@YA?AVU8String@0@ABV10@D@Z$1 00416228 f   vacommon:VAString.obj
 0001:00015241       __ehhandler$??HVA@@YA?AVU8String@0@ABV10@D@Z 00416241 f   vacommon:VAString.obj
 0001:00015241       __ehhandler$??HVA@@YA?AVU8String@0@DABV10@@Z 00416241 f   vacommon:VAString.obj
 0001:00015260       __unwindfunclet$??HVA@@YA?AVU8String@0@PBDABV10@@Z$0 00416260 f   vacommon:VAString.obj
 0001:00015260       __unwindfunclet$??HVA@@YA?AVU8String@0@ABV10@PBD@Z$0 00416260 f   vacommon:VAString.obj
 0001:00015260       __unwindfunclet$??HVA@@YA?AVU8String@0@ABV10@0@Z$0 00416260 f   vacommon:VAString.obj
 0001:00015268       __unwindfunclet$??HVA@@YA?AVU8String@0@ABV10@PBD@Z$1 00416268 f   vacommon:VAString.obj
 0001:00015268       __unwindfunclet$??HVA@@YA?AVU8String@0@ABV10@0@Z$1 00416268 f   vacommon:VAString.obj
 0001:00015268       __unwindfunclet$??HVA@@YA?AVU8String@0@PBDABV10@@Z$1 00416268 f   vacommon:VAString.obj
 0001:00015281       __ehhandler$??HVA@@YA?AVU8String@0@ABV10@PBD@Z 00416281 f   vacommon:VAString.obj
 0001:00015281       __ehhandler$??HVA@@YA?AVU8String@0@PBDABV10@@Z 00416281 f   vacommon:VAString.obj
 0001:00015281       __ehhandler$??HVA@@YA?AVU8String@0@ABV10@0@Z 00416281 f   vacommon:VAString.obj
 0001:000152a0       __ehhandler$?fromU16String@U8String@VA@@QAEXABVU16String@2@@Z 004162a0 f   vacommon:VAString.obj
 0001:000152c0       __ehhandler$?fromU16String@U8String@VA@@QAEXPB_W@Z 004162c0 f   vacommon:VAString.obj
 0001:000152e0       __ehhandler$?__ConcatCopy@U16String@VA@@AAEXPB_WI0I@Z 004162e0 f   vacommon:VAString.obj
 0001:00015300       __ehhandler$??0U16String@VA@@QAE@ABV01@@Z 00416300 f   vacommon:VAString.obj
 0001:00015320       __ehhandler$??0U16String@VA@@QAE@_WI@Z 00416320 f   vacommon:VAString.obj
 0001:00015340       __ehhandler$??0U16String@VA@@QAE@PB_WI@Z 00416340 f   vacommon:VAString.obj
 0001:00015360       __ehhandler$??4U16String@VA@@QAEABV01@ABV01@@Z 00416360 f   vacommon:VAString.obj
 0001:00015380       __ehhandler$??4U16String@VA@@QAEABV01@_W@Z 00416380 f   vacommon:VAString.obj
 0001:000153a0       __ehhandler$??4U16String@VA@@QAEABV01@PB_W@Z 004163a0 f   vacommon:VAString.obj
 0001:000153c0       __ehhandler$??YU16String@VA@@QAEABV01@ABV01@@Z 004163c0 f   vacommon:VAString.obj
 0001:000153e0       __ehhandler$??YU16String@VA@@QAEABV01@_W@Z 004163e0 f   vacommon:VAString.obj
 0001:00015400       __ehhandler$??YU16String@VA@@QAEABV01@PB_W@Z 00416400 f   vacommon:VAString.obj
 0001:00015420       __ehhandler$?FormatV@U16String@VA@@QAEXPB_WPAD@Z 00416420 f   vacommon:VAString.obj
 0001:00015440       __ehhandler$?Insert@U16String@VA@@QAEII_W@Z 00416440 f   vacommon:VAString.obj
 0001:00015460       __ehhandler$?Insert@U16String@VA@@QAEIIPB_W@Z 00416460 f   vacommon:VAString.obj
 0001:00015480       __unwindfunclet$??HVA@@YA?AVU16String@0@ABV10@_W@Z$0 00416480 f   vacommon:VAString.obj
 0001:00015480       __unwindfunclet$??HVA@@YA?AVU16String@0@_WABV10@@Z$0 00416480 f   vacommon:VAString.obj
 0001:00015488       __unwindfunclet$??HVA@@YA?AVU16String@0@ABV10@_W@Z$1 00416488 f   vacommon:VAString.obj
 0001:00015488       __unwindfunclet$??HVA@@YA?AVU16String@0@_WABV10@@Z$1 00416488 f   vacommon:VAString.obj
 0001:000154a1       __ehhandler$??HVA@@YA?AVU16String@0@ABV10@_W@Z 004164a1 f   vacommon:VAString.obj
 0001:000154a1       __ehhandler$??HVA@@YA?AVU16String@0@_WABV10@@Z 004164a1 f   vacommon:VAString.obj
 0001:000154c0       __unwindfunclet$??HVA@@YA?AVU16String@0@PB_WABV10@@Z$0 004164c0 f   vacommon:VAString.obj
 0001:000154c0       __unwindfunclet$??HVA@@YA?AVU16String@0@ABV10@PB_W@Z$0 004164c0 f   vacommon:VAString.obj
 0001:000154c0       __unwindfunclet$??HVA@@YA?AVU16String@0@ABV10@0@Z$0 004164c0 f   vacommon:VAString.obj
 0001:000154c8       __unwindfunclet$??HVA@@YA?AVU16String@0@PB_WABV10@@Z$1 004164c8 f   vacommon:VAString.obj
 0001:000154c8       __unwindfunclet$??HVA@@YA?AVU16String@0@ABV10@0@Z$1 004164c8 f   vacommon:VAString.obj
 0001:000154c8       __unwindfunclet$??HVA@@YA?AVU16String@0@ABV10@PB_W@Z$1 004164c8 f   vacommon:VAString.obj
 0001:000154e1       __ehhandler$??HVA@@YA?AVU16String@0@ABV10@0@Z 004164e1 f   vacommon:VAString.obj
 0001:000154e1       __ehhandler$??HVA@@YA?AVU16String@0@PB_WABV10@@Z 004164e1 f   vacommon:VAString.obj
 0001:000154e1       __ehhandler$??HVA@@YA?AVU16String@0@ABV10@PB_W@Z 004164e1 f   vacommon:VAString.obj
 0001:00015500       __ehhandler$?fromU8String@U16String@VA@@QAEXABVU8String@2@@Z 00416500 f   vacommon:VAString.obj
 0001:00015520       __ehhandler$?fromU8String@U16String@VA@@QAEXPBD@Z 00416520 f   vacommon:VAString.obj
 0001:00015540       __unwindfunclet$??0?$vector@V?$basic_string@DU?$char_traits@D@std@@V?$allocator@D@2@@std@@V?$allocator@V?$basic_string@DU?$char_traits@D@std@@V?$allocator@D@2@@std@@@2@@std@@QAE@ABV01@@Z$2 00416540 f   vacommon:VAString.obj
 0001:00015548       __ehhandler$??0?$vector@V?$basic_string@DU?$char_traits@D@std@@V?$allocator@D@2@@std@@V?$allocator@V?$basic_string@DU?$char_traits@D@std@@V?$allocator@D@2@@std@@@2@@std@@QAE@ABV01@@Z 00416548 f   vacommon:VAString.obj
 0001:00015570       __unwindfunclet$??1?$vector@IV?$allocator@I@std@@@std@@QAE@XZ$0 00416570 f   vacommon:VAString.obj
 0001:00015570       __unwindfunclet$??1?$vector@V?$basic_string@DU?$char_traits@D@std@@V?$allocator@D@2@@std@@V?$allocator@V?$basic_string@DU?$char_traits@D@std@@V?$allocator@D@2@@std@@@2@@std@@QAE@XZ$0 00416570 f   vacommon:VAString.obj
 0001:00015578       __ehhandler$??1?$vector@IV?$allocator@I@std@@@std@@QAE@XZ 00416578 f   vacommon:VAString.obj
 0001:00015578       __ehhandler$??1?$vector@V?$basic_string@DU?$char_traits@D@std@@V?$allocator@D@2@@std@@V?$allocator@V?$basic_string@DU?$char_traits@D@std@@V?$allocator@D@2@@std@@@2@@std@@QAE@XZ 00416578 f   vacommon:VAString.obj
 0001:000155a0       __unwindfunclet$??1?$_Container_base_aux_alloc_real@V?$allocator@I@std@@@std@@IAE@XZ$0 004165a0 f   vacommon:VAString.obj
 0001:000155a0       __unwindfunclet$??1?$_Container_base_aux_alloc_real@V?$allocator@_N@std@@@std@@IAE@XZ$0 004165a0 f   vacommon:VAString.obj
 0001:000155a0       __unwindfunclet$??1?$_Container_base_aux_alloc_real@V?$allocator@V?$basic_string@DU?$char_traits@D@std@@V?$allocator@D@2@@std@@@std@@@std@@IAE@XZ$0 004165a0 f   vacommon:VAString.obj
 0001:000155a8       __ehhandler$??1?$_Container_base_aux_alloc_real@V?$allocator@V?$basic_string@DU?$char_traits@D@std@@V?$allocator@D@2@@std@@@std@@@std@@IAE@XZ 004165a8 f   vacommon:VAString.obj
 0001:000155a8       __ehhandler$??1?$_Container_base_aux_alloc_real@V?$allocator@_N@std@@@std@@IAE@XZ 004165a8 f   vacommon:VAString.obj
 0001:000155a8       __ehhandler$??1?$_Container_base_aux_alloc_real@V?$allocator@I@std@@@std@@IAE@XZ 004165a8 f   vacommon:VAString.obj
 0001:000155d0       __unwindfunclet$?_Insert_n@?$vector@V?$basic_string@DU?$char_traits@D@std@@V?$allocator@D@2@@std@@V?$allocator@V?$basic_string@DU?$char_traits@D@std@@V?$allocator@D@2@@std@@@2@@std@@IAEXV?$_Vector_const_iterator@V?$basic_string@DU?$char_traits@D@std@@V?$allocator@D@2@@std@@V?$allocator@V?$basic_string@DU?$char_traits@D@std@@V?$allocator@D@2@@std@@@2@@2@IABV?$basic_string@DU?$char_traits@D@std@@V?$allocator@D@2@@2@@Z$4 004165d0 f   vacommon:VAString.obj
 0001:000155d9       __unwindfunclet$?_Insert_n@?$vector@V?$basic_string@DU?$char_traits@D@std@@V?$allocator@D@2@@std@@V?$allocator@V?$basic_string@DU?$char_traits@D@std@@V?$allocator@D@2@@std@@@2@@std@@IAEXV?$_Vector_const_iterator@V?$basic_string@DU?$char_traits@D@std@@V?$allocator@D@2@@std@@V?$allocator@V?$basic_string@DU?$char_traits@D@std@@V?$allocator@D@2@@std@@@2@@2@IABV?$basic_string@DU?$char_traits@D@std@@V?$allocator@D@2@@2@@Z$5 004165d9 f   vacommon:VAString.obj
 0001:000155e2       __ehhandler$?_Insert_n@?$vector@V?$basic_string@DU?$char_traits@D@std@@V?$allocator@D@2@@std@@V?$allocator@V?$basic_string@DU?$char_traits@D@std@@V?$allocator@D@2@@std@@@2@@std@@IAEXV?$_Vector_const_iterator@V?$basic_string@DU?$char_traits@D@std@@V?$allocator@D@2@@std@@V?$allocator@V?$basic_string@DU?$char_traits@D@std@@V?$allocator@D@2@@std@@@2@@2@IABV?$basic_string@DU?$char_traits@D@std@@V?$allocator@D@2@@2@@Z 004165e2 f   vacommon:VAString.obj
 0001:00015610       __unwindfunclet$??0logic_error@std@@QAE@ABV?$basic_string@DU?$char_traits@D@std@@V?$allocator@D@2@@1@@Z$0 00416610 f   vacommon:VAString.obj
 0001:00015610       __unwindfunclet$??0logic_error@std@@QAE@ABV01@@Z$0 00416610 f   vacommon:VAString.obj
 0001:00015619       __ehhandler$??0logic_error@std@@QAE@ABV01@@Z 00416619 f   vacommon:VAString.obj
 0001:00015619       __ehhandler$??0logic_error@std@@QAE@ABV?$basic_string@DU?$char_traits@D@std@@V?$allocator@D@2@@1@@Z 00416619 f   vacommon:VAString.obj
 0001:00015640       __unwindfunclet$??$?6U?$char_traits@D@std@@@std@@YAAAV?$basic_ostream@DU?$char_traits@D@std@@@0@AAV10@PBD@Z$2 00416640 f   vacommon:VAString.obj
 0001:00015648       __ehhandler$??$?6U?$char_traits@D@std@@@std@@YAAAV?$basic_ostream@DU?$char_traits@D@std@@@0@AAV10@PBD@Z 00416648 f   vacommon:VAString.obj
 0001:00015670       __unwindfunclet$??1sentry@?$basic_ostream@DU?$char_traits@D@std@@@std@@QAE@XZ$0 00416670 f   vacommon:VAString.obj
 0001:00015670       __unwindfunclet$??0sentry@?$basic_ostream@DU?$char_traits@D@std@@@std@@QAE@AAV12@@Z$0 00416670 f   vacommon:VAString.obj
 0001:00015678       __ehhandler$??0sentry@?$basic_ostream@DU?$char_traits@D@std@@@std@@QAE@AAV12@@Z 00416678 f   vacommon:VAString.obj
 0001:00015678       __ehhandler$??1sentry@?$basic_ostream@DU?$char_traits@D@std@@@std@@QAE@XZ 00416678 f   vacommon:VAString.obj
 0001:000156a0       __ehhandler$??$_Uninit_fill_n@PAV?$basic_string@DU?$char_traits@D@std@@V?$allocator@D@2@@std@@IV12@V?$allocator@V?$basic_string@DU?$char_traits@D@std@@V?$allocator@D@2@@std@@@2@@std@@YAXPAV?$basic_string@DU?$char_traits@D@std@@V?$allocator@D@2@@0@IABV10@AAV?$allocator@V?$basic_string@DU?$char_traits@D@std@@V?$allocator@D@2@@std@@@0@U_Nonscalar_ptr_iterator_tag@0@U_Range_checked_iterator_tag@0@@Z 004166a0 f   vacommon:VAString.obj
 0001:000156c0       __ehhandler$??$_Uninit_copy@PBV?$basic_string@DU?$char_traits@D@std@@V?$allocator@D@2@@std@@PAV12@V?$allocator@V?$basic_string@DU?$char_traits@D@std@@V?$allocator@D@2@@std@@@2@@std@@YAPAV?$basic_string@DU?$char_traits@D@std@@V?$allocator@D@2@@0@PBV10@0PAV10@AAV?$allocator@V?$basic_string@DU?$char_traits@D@std@@V?$allocator@D@2@@std@@@0@U_Nonscalar_ptr_iterator_tag@0@U_Range_checked_iterator_tag@0@@Z 004166c0 f   vacommon:VAString.obj
 0001:000156e0       __unwindfunclet$??$_Uninit_move@PAV?$basic_string@DU?$char_traits@D@std@@V?$allocator@D@2@@std@@PAV12@V?$allocator@V?$basic_string@DU?$char_traits@D@std@@V?$allocator@D@2@@std@@@2@@std@@YAPAV?$basic_string@DU?$char_traits@D@std@@V?$allocator@D@2@@0@PAV10@00AAV?$allocator@V?$basic_string@DU?$char_traits@D@std@@V?$allocator@D@2@@std@@@0@U_Swap_move_tag@0@U_Range_checked_iterator_tag@0@@Z$2 004166e0 f   vacommon:VAString.obj
 0001:000156e9       __ehhandler$??$_Uninit_move@PAV?$basic_string@DU?$char_traits@D@std@@V?$allocator@D@2@@std@@PAV12@V?$allocator@V?$basic_string@DU?$char_traits@D@std@@V?$allocator@D@2@@std@@@2@@std@@YAPAV?$basic_string@DU?$char_traits@D@std@@V?$allocator@D@2@@0@PAV10@00AAV?$allocator@V?$basic_string@DU?$char_traits@D@std@@V?$allocator@D@2@@std@@@0@U_Swap_move_tag@0@U_Range_checked_iterator_tag@0@@Z 004166e9 f   vacommon:VAString.obj
 0001:00015710       __unwindfunclet$??$_Construct@V?$basic_string@DU?$char_traits@D@std@@V?$allocator@D@2@@std@@V12@@std@@YAXPAV?$basic_string@DU?$char_traits@D@std@@V?$allocator@D@2@@0@ABV10@@Z$0 00416710 f   vacommon:VAString.obj
 0001:00015721       __ehhandler$??$_Construct@V?$basic_string@DU?$char_traits@D@std@@V?$allocator@D@2@@std@@V12@@std@@YAXPAV?$basic_string@DU?$char_traits@D@std@@V?$allocator@D@2@@0@ABV10@@Z 00416721 f   vacommon:VAString.obj
 0001:00015740       __unwindfunclet$?CheckFolderExists@VA@@YA_NPBD@Z$0 00416740 f   vacommon:VAFileSystem.obj
 0001:0001574b       __unwindfunclet$?CheckFolderExists@VA@@YA_NPBD@Z$1 0041674b f   vacommon:VAFileSystem.obj
 0001:00015756       __unwindfunclet$?CheckFolderExists@VA@@YA_NPBD@Z$2 00416756 f   vacommon:VAFileSystem.obj
 0001:00015761       __ehhandler$?CheckFolderExists@VA@@YA_NPBD@Z 00416761 f   vacommon:VAFileSystem.obj
 0001:00015790       __unwindfunclet$?CheckFileExists@VA@@YA_NPBD@Z$0 00416790 f   vacommon:VAFileSystem.obj
 0001:0001579b       __ehhandler$?CheckFileExists@VA@@YA_NPBD@Z 0041679b f   vacommon:VAFileSystem.obj
 0001:000157d0       __unwindfunclet$?DeleteFolder@VA@@YA_NPBD@Z$0 004167d0 f   vacommon:VAFileSystem.obj
 0001:000157d8       __unwindfunclet$?DeleteFolder@VA@@YA_NPBD@Z$1 004167d8 f   vacommon:VAFileSystem.obj
 0001:000157e3       __unwindfunclet$?DeleteFolder@VA@@YA_NPBD@Z$2 004167e3 f   vacommon:VAFileSystem.obj
 0001:000157ee       __unwindfunclet$?DeleteFolder@VA@@YA_NPBD@Z$3 004167ee f   vacommon:VAFileSystem.obj
 0001:000157f9       __unwindfunclet$?DeleteFolder@VA@@YA_NPBD@Z$4 004167f9 f   vacommon:VAFileSystem.obj
 0001:00015804       __unwindfunclet$?DeleteFolder@VA@@YA_NPBD@Z$5 00416804 f   vacommon:VAFileSystem.obj
 0001:0001580f       __ehhandler$?DeleteFolder@VA@@YA_NPBD@Z 0041680f f   vacommon:VAFileSystem.obj
 0001:00015840       __unwindfunclet$?CopyFiles@VA@@YA_NPBD00@Z$0 00416840 f   vacommon:VAFileSystem.obj
 0001:00015848       __unwindfunclet$?CopyFiles@VA@@YA_NPBD00@Z$1 00416848 f   vacommon:VAFileSystem.obj
 0001:00015850       __unwindfunclet$?CopyFiles@VA@@YA_NPBD00@Z$2 00416850 f   vacommon:VAFileSystem.obj
 0001:00015858       __unwindfunclet$?CopyFiles@VA@@YA_NPBD00@Z$3 00416858 f   vacommon:VAFileSystem.obj
 0001:00015863       __unwindfunclet$?CopyFiles@VA@@YA_NPBD00@Z$4 00416863 f   vacommon:VAFileSystem.obj
 0001:0001586e       __unwindfunclet$?CopyFiles@VA@@YA_NPBD00@Z$5 0041686e f   vacommon:VAFileSystem.obj
 0001:00015879       __unwindfunclet$?CopyFiles@VA@@YA_NPBD00@Z$6 00416879 f   vacommon:VAFileSystem.obj
 0001:00015884       __unwindfunclet$?CopyFiles@VA@@YA_NPBD00@Z$7 00416884 f   vacommon:VAFileSystem.obj
 0001:0001588f       __unwindfunclet$?CopyFiles@VA@@YA_NPBD00@Z$8 0041688f f   vacommon:VAFileSystem.obj
 0001:0001589a       __ehhandler$?CopyFiles@VA@@YA_NPBD00@Z 0041689a f   vacommon:VAFileSystem.obj
 0001:000158d0       __unwindfunclet$?CheckFolderWritePrivilege@VA@@YA_NPBD@Z$0 004168d0 f   vacommon:VAFileSystem.obj
 0001:000158d8       __ehhandler$?CheckFolderWritePrivilege@VA@@YA_NPBD@Z 004168d8 f   vacommon:VAFileSystem.obj
 0001:00015900       __unwindfunclet$?MakeDir@VA@@YA_NPBD@Z$0 00416900 f   vacommon:VAFileSystem.obj
 0001:00015908       __unwindfunclet$?MakeDir@VA@@YA_NPBD@Z$1 00416908 f   vacommon:VAFileSystem.obj
 0001:00015910       __unwindfunclet$?MakeDir@VA@@YA_NPBD@Z$2 00416910 f   vacommon:VAFileSystem.obj
 0001:00015918       __unwindfunclet$?MakeDir@VA@@YA_NPBD@Z$3 00416918 f   vacommon:VAFileSystem.obj
 0001:00015931       __ehhandler$?MakeDir@VA@@YA_NPBD@Z 00416931 f   vacommon:VAFileSystem.obj
 0001:00015950       __unwindfunclet$?CopyDir@VA@@YA_NPBD0@Z$0 00416950 f   vacommon:VAFileSystem.obj
 0001:00015958       __unwindfunclet$?CopyDir@VA@@YA_NPBD0@Z$1 00416958 f   vacommon:VAFileSystem.obj
 0001:00015960       __unwindfunclet$?CopyDir@VA@@YA_NPBD0@Z$2 00416960 f   vacommon:VAFileSystem.obj
 0001:0001596b       __unwindfunclet$?CopyDir@VA@@YA_NPBD0@Z$3 0041696b f   vacommon:VAFileSystem.obj
 0001:00015976       __unwindfunclet$?CopyDir@VA@@YA_NPBD0@Z$4 00416976 f   vacommon:VAFileSystem.obj
 0001:00015981       __unwindfunclet$?CopyDir@VA@@YA_NPBD0@Z$5 00416981 f   vacommon:VAFileSystem.obj
 0001:0001598c       __unwindfunclet$?CopyDir@VA@@YA_NPBD0@Z$6 0041698c f   vacommon:VAFileSystem.obj
 0001:00015997       __ehhandler$?CopyDir@VA@@YA_NPBD0@Z 00416997 f   vacommon:VAFileSystem.obj
 0001:000159c0       __unwindfunclet$?NormalizePath@VA@@YA?AV?$basic_string@DU?$char_traits@D@std@@V?$allocator@D@2@@std@@PBD@Z$0 004169c0 f   vacommon:VAFileSystem.obj
 0001:000159c9       __unwindfunclet$?NormalizePath@VA@@YA?AV?$basic_string@DU?$char_traits@D@std@@V?$allocator@D@2@@std@@PBD@Z$1 004169c9 f   vacommon:VAFileSystem.obj
 0001:000159e3       __ehhandler$?NormalizePath@VA@@YA?AV?$basic_string@DU?$char_traits@D@std@@V?$allocator@D@2@@std@@PBD@Z 004169e3 f   vacommon:VAFileSystem.obj
 0001:00015a00       __unwindfunclet$?IsAbsolutePath@VA@@YAHPBD@Z$0 00416a00 f   vacommon:VAFileSystem.obj
 0001:00015a09       __ehhandler$?IsAbsolutePath@VA@@YAHPBD@Z 00416a09 f   vacommon:VAFileSystem.obj
 0001:00015a30       __unwindfunclet$?Pathname2Path@VA@@YA?AV?$basic_string@DU?$char_traits@D@std@@V?$allocator@D@2@@std@@PBD@Z$0 00416a30 f   vacommon:VAFileSystem.obj
 0001:00015a30       __unwindfunclet$?Pathname2Name@VA@@YA?AV?$basic_string@DU?$char_traits@D@std@@V?$allocator@D@2@@std@@PBD@Z$0 00416a30 f   vacommon:VAFileSystem.obj
 0001:00015a39       __unwindfunclet$?Pathname2Name@VA@@YA?AV?$basic_string@DU?$char_traits@D@std@@V?$allocator@D@2@@std@@PBD@Z$1 00416a39 f   vacommon:VAFileSystem.obj
 0001:00015a39       __unwindfunclet$?Pathname2Path@VA@@YA?AV?$basic_string@DU?$char_traits@D@std@@V?$allocator@D@2@@std@@PBD@Z$1 00416a39 f   vacommon:VAFileSystem.obj
 0001:00015a59       __unwindfunclet$?Pathname2Path@VA@@YA?AV?$basic_string@DU?$char_traits@D@std@@V?$allocator@D@2@@std@@PBD@Z$2 00416a59 f   vacommon:VAFileSystem.obj
 0001:00015a59       __unwindfunclet$?Pathname2Name@VA@@YA?AV?$basic_string@DU?$char_traits@D@std@@V?$allocator@D@2@@std@@PBD@Z$2 00416a59 f   vacommon:VAFileSystem.obj
 0001:00015a61       __ehhandler$?Pathname2Name@VA@@YA?AV?$basic_string@DU?$char_traits@D@std@@V?$allocator@D@2@@std@@PBD@Z 00416a61 f   vacommon:VAFileSystem.obj
 0001:00015a61       __ehhandler$?Pathname2Path@VA@@YA?AV?$basic_string@DU?$char_traits@D@std@@V?$allocator@D@2@@std@@PBD@Z 00416a61 f   vacommon:VAFileSystem.obj
 0001:00015a90       __unwindfunclet$?Pathname2Noextname@VA@@YA?AV?$basic_string@DU?$char_traits@D@std@@V?$allocator@D@2@@std@@PBD@Z$0 00416a90 f   vacommon:VAFileSystem.obj
 0001:00015a99       __unwindfunclet$?Pathname2Noextname@VA@@YA?AV?$basic_string@DU?$char_traits@D@std@@V?$allocator@D@2@@std@@PBD@Z$1 00416a99 f   vacommon:VAFileSystem.obj
 0001:00015ab3       __ehhandler$?Pathname2Noextname@VA@@YA?AV?$basic_string@DU?$char_traits@D@std@@V?$allocator@D@2@@std@@PBD@Z 00416ab3 f   vacommon:VAFileSystem.obj
 0001:00015ae0       __unwindfunclet$?FindFiles@VA@@YAHPBD0AAV?$vector@V?$basic_string@DU?$char_traits@D@std@@V?$allocator@D@2@@std@@V?$allocator@V?$basic_string@DU?$char_traits@D@std@@V?$allocator@D@2@@std@@@2@@std@@_N@Z$2 00416ae0 f   vacommon:VAFileSystem.obj
 0001:00015aec       __ehhandler$?FindFiles@VA@@YAHPBD0AAV?$vector@V?$basic_string@DU?$char_traits@D@std@@V?$allocator@D@2@@std@@V?$allocator@V?$basic_string@DU?$char_traits@D@std@@V?$allocator@D@2@@std@@@2@@std@@_N@Z 00416aec f   vacommon:VAFileSystem.obj
 0001:00015b20       __unwindfunclet$?PathtoDirTree@VA@@YAHPBDAAV?$vector@V?$basic_string@DU?$char_traits@D@std@@V?$allocator@D@2@@std@@V?$allocator@V?$basic_string@DU?$char_traits@D@std@@V?$allocator@D@2@@std@@@2@@std@@@Z$0 00416b20 f   vacommon:VAFileSystem.obj
 0001:00015b29       __unwindfunclet$?PathtoDirTree@VA@@YAHPBDAAV?$vector@V?$basic_string@DU?$char_traits@D@std@@V?$allocator@D@2@@std@@V?$allocator@V?$basic_string@DU?$char_traits@D@std@@V?$allocator@D@2@@std@@@2@@std@@@Z$1 00416b29 f   vacommon:VAFileSystem.obj
 0001:00015b35       __ehhandler$?PathtoDirTree@VA@@YAHPBDAAV?$vector@V?$basic_string@DU?$char_traits@D@std@@V?$allocator@D@2@@std@@V?$allocator@V?$basic_string@DU?$char_traits@D@std@@V?$allocator@D@2@@std@@@2@@std@@@Z 00416b35 f   vacommon:VAFileSystem.obj
 0001:00015b60       __unwindfunclet$??0Path@sys@@QAE@ABV01@V?$basic_string@DU?$char_traits@D@std@@V?$allocator@D@2@@std@@@Z$0 00416b60 f   vacommon:Path.obj
 0001:00015b69       __unwindfunclet$??0Path@sys@@QAE@ABV01@V?$basic_string@DU?$char_traits@D@std@@V?$allocator@D@2@@std@@@Z$1 00416b69 f   vacommon:Path.obj
 0001:00015b72       __unwindfunclet$??0Path@sys@@QAE@ABV01@V?$basic_string@DU?$char_traits@D@std@@V?$allocator@D@2@@std@@@Z$2 00416b72 f   vacommon:Path.obj
 0001:00015b7b       __ehhandler$??0Path@sys@@QAE@ABV01@V?$basic_string@DU?$char_traits@D@std@@V?$allocator@D@2@@std@@@Z 00416b7b f   vacommon:Path.obj
 0001:00015ba0       __unwindfunclet$??0Path@sys@@QAE@V?$basic_string@DU?$char_traits@D@std@@V?$allocator@D@2@@std@@0@Z$0 00416ba0 f   vacommon:Path.obj
 0001:00015ba9       __unwindfunclet$??0Path@sys@@QAE@V?$basic_string@DU?$char_traits@D@std@@V?$allocator@D@2@@std@@0@Z$1 00416ba9 f   vacommon:Path.obj
 0001:00015bb2       __unwindfunclet$??0Path@sys@@QAE@V?$basic_string@DU?$char_traits@D@std@@V?$allocator@D@2@@std@@0@Z$2 00416bb2 f   vacommon:Path.obj
 0001:00015bbb       __unwindfunclet$??0Path@sys@@QAE@V?$basic_string@DU?$char_traits@D@std@@V?$allocator@D@2@@std@@0@Z$3 00416bbb f   vacommon:Path.obj
 0001:00015bc4       __ehhandler$??0Path@sys@@QAE@V?$basic_string@DU?$char_traits@D@std@@V?$allocator@D@2@@std@@0@Z 00416bc4 f   vacommon:Path.obj
 0001:00015be0       __unwindfunclet$?normalizePath@Path@sys@@SA?AV?$basic_string@DU?$char_traits@D@std@@V?$allocator@D@2@@std@@ABV34@@Z$0 00416be0 f   vacommon:Path.obj
 0001:00015be9       __unwindfunclet$?normalizePath@Path@sys@@SA?AV?$basic_string@DU?$char_traits@D@std@@V?$allocator@D@2@@std@@ABV34@@Z$1 00416be9 f   vacommon:Path.obj
 0001:00015bf2       __unwindfunclet$?normalizePath@Path@sys@@SA?AV?$basic_string@DU?$char_traits@D@std@@V?$allocator@D@2@@std@@ABV34@@Z$2 00416bf2 f   vacommon:Path.obj
 0001:00015bfd       __unwindfunclet$?normalizePath@Path@sys@@SA?AV?$basic_string@DU?$char_traits@D@std@@V?$allocator@D@2@@std@@ABV34@@Z$3 00416bfd f   vacommon:Path.obj
 0001:00015c08       __unwindfunclet$?normalizePath@Path@sys@@SA?AV?$basic_string@DU?$char_traits@D@std@@V?$allocator@D@2@@std@@ABV34@@Z$4 00416c08 f   vacommon:Path.obj
 0001:00015c13       __unwindfunclet$?normalizePath@Path@sys@@SA?AV?$basic_string@DU?$char_traits@D@std@@V?$allocator@D@2@@std@@ABV34@@Z$5 00416c13 f   vacommon:Path.obj
 0001:00015c1e       __unwindfunclet$?normalizePath@Path@sys@@SA?AV?$basic_string@DU?$char_traits@D@std@@V?$allocator@D@2@@std@@ABV34@@Z$6 00416c1e f   vacommon:Path.obj
 0001:00015c3e       __unwindfunclet$?normalizePath@Path@sys@@SA?AV?$basic_string@DU?$char_traits@D@std@@V?$allocator@D@2@@std@@ABV34@@Z$7 00416c3e f   vacommon:Path.obj
 0001:00015c4a       __unwindfunclet$?normalizePath@Path@sys@@SA?AV?$basic_string@DU?$char_traits@D@std@@V?$allocator@D@2@@std@@ABV34@@Z$8 00416c4a f   vacommon:Path.obj
 0001:00015c6d       __ehhandler$?normalizePath@Path@sys@@SA?AV?$basic_string@DU?$char_traits@D@std@@V?$allocator@D@2@@std@@ABV34@@Z 00416c6d f   vacommon:Path.obj
 0001:00015ca0       __unwindfunclet$?joinPaths@Path@sys@@SA?AV?$basic_string@DU?$char_traits@D@std@@V?$allocator@D@2@@std@@ABV34@0@Z$0 00416ca0 f   vacommon:Path.obj
 0001:00015ca9       __unwindfunclet$?joinPaths@Path@sys@@SA?AV?$basic_string@DU?$char_traits@D@std@@V?$allocator@D@2@@std@@ABV34@0@Z$1 00416ca9 f   vacommon:Path.obj
 0001:00015ccc       __unwindfunclet$?joinPaths@Path@sys@@SA?AV?$basic_string@DU?$char_traits@D@std@@V?$allocator@D@2@@std@@ABV34@0@Z$2 00416ccc f   vacommon:Path.obj
 0001:00015cee       __unwindfunclet$?joinPaths@Path@sys@@SA?AV?$basic_string@DU?$char_traits@D@std@@V?$allocator@D@2@@std@@ABV34@0@Z$3 00416cee f   vacommon:Path.obj
 0001:00015d0e       __unwindfunclet$?joinPaths@Path@sys@@SA?AV?$basic_string@DU?$char_traits@D@std@@V?$allocator@D@2@@std@@ABV34@0@Z$4 00416d0e f   vacommon:Path.obj
 0001:00015d1a       __unwindfunclet$?joinPaths@Path@sys@@SA?AV?$basic_string@DU?$char_traits@D@std@@V?$allocator@D@2@@std@@ABV34@0@Z$5 00416d1a f   vacommon:Path.obj
 0001:00015d3d       __ehhandler$?joinPaths@Path@sys@@SA?AV?$basic_string@DU?$char_traits@D@std@@V?$allocator@D@2@@std@@ABV34@0@Z 00416d3d f   vacommon:Path.obj
 0001:00015d70       __unwindfunclet$?separate@Path@sys@@SA?AV?$vector@V?$basic_string@DU?$char_traits@D@std@@V?$allocator@D@2@@std@@V?$allocator@V?$basic_string@DU?$char_traits@D@std@@V?$allocator@D@2@@std@@@2@@std@@ABV?$basic_string@DU?$char_traits@D@std@@V?$allocator@D@2@@4@@Z$1 00416d70 f   vacommon:Path.obj
 0001:00015d78       __unwindfunclet$?separate@Path@sys@@SA?AV?$vector@V?$basic_string@DU?$char_traits@D@std@@V?$allocator@D@2@@std@@V?$allocator@V?$basic_string@DU?$char_traits@D@std@@V?$allocator@D@2@@std@@@2@@std@@ABV?$basic_string@DU?$char_traits@D@std@@V?$allocator@D@2@@4@@Z$2 00416d78 f   vacommon:Path.obj
 0001:00015d80       __unwindfunclet$?separate@Path@sys@@SA?AV?$vector@V?$basic_string@DU?$char_traits@D@std@@V?$allocator@D@2@@std@@V?$allocator@V?$basic_string@DU?$char_traits@D@std@@V?$allocator@D@2@@std@@@2@@std@@ABV?$basic_string@DU?$char_traits@D@std@@V?$allocator@D@2@@4@@Z$3 00416d80 f   vacommon:Path.obj
 0001:00015d88       __unwindfunclet$?separate@Path@sys@@SA?AV?$vector@V?$basic_string@DU?$char_traits@D@std@@V?$allocator@D@2@@std@@V?$allocator@V?$basic_string@DU?$char_traits@D@std@@V?$allocator@D@2@@std@@@2@@std@@ABV?$basic_string@DU?$char_traits@D@std@@V?$allocator@D@2@@4@@Z$4 00416d88 f   vacommon:Path.obj
 0001:00015d94       __unwindfunclet$?separate@Path@sys@@SA?AV?$vector@V?$basic_string@DU?$char_traits@D@std@@V?$allocator@D@2@@std@@V?$allocator@V?$basic_string@DU?$char_traits@D@std@@V?$allocator@D@2@@std@@@2@@std@@ABV?$basic_string@DU?$char_traits@D@std@@V?$allocator@D@2@@4@@Z$5 00416d94 f   vacommon:Path.obj
 0001:00015d9f       __unwindfunclet$?separate@Path@sys@@SA?AV?$vector@V?$basic_string@DU?$char_traits@D@std@@V?$allocator@D@2@@std@@V?$allocator@V?$basic_string@DU?$char_traits@D@std@@V?$allocator@D@2@@std@@@2@@std@@ABV?$basic_string@DU?$char_traits@D@std@@V?$allocator@D@2@@4@@Z$7 00416d9f f   vacommon:Path.obj
 0001:00015daa       __unwindfunclet$?separate@Path@sys@@SA?AV?$vector@V?$basic_string@DU?$char_traits@D@std@@V?$allocator@D@2@@std@@V?$allocator@V?$basic_string@DU?$char_traits@D@std@@V?$allocator@D@2@@std@@@2@@std@@ABV?$basic_string@DU?$char_traits@D@std@@V?$allocator@D@2@@4@@Z$8 00416daa f   vacommon:Path.obj
 0001:00015dc9       __ehhandler$?separate@Path@sys@@SA?AV?$vector@V?$basic_string@DU?$char_traits@D@std@@V?$allocator@D@2@@std@@V?$allocator@V?$basic_string@DU?$char_traits@D@std@@V?$allocator@D@2@@std@@@2@@std@@ABV?$basic_string@DU?$char_traits@D@std@@V?$allocator@D@2@@4@@Z 00416dc9 f   vacommon:Path.obj
 0001:00015e00       __unwindfunclet$?splitPath@Path@sys@@SA?AU?$pair@V?$basic_string@DU?$char_traits@D@std@@V?$allocator@D@2@@std@@V12@@std@@ABV?$basic_string@DU?$char_traits@D@std@@V?$allocator@D@2@@4@@Z$0 00416e00 f   vacommon:Path.obj
 0001:00015e09       __unwindfunclet$?splitPath@Path@sys@@SA?AU?$pair@V?$basic_string@DU?$char_traits@D@std@@V?$allocator@D@2@@std@@V12@@std@@ABV?$basic_string@DU?$char_traits@D@std@@V?$allocator@D@2@@4@@Z$1 00416e09 f   vacommon:Path.obj
 0001:00015e15       __unwindfunclet$?splitPath@Path@sys@@SA?AU?$pair@V?$basic_string@DU?$char_traits@D@std@@V?$allocator@D@2@@std@@V12@@std@@ABV?$basic_string@DU?$char_traits@D@std@@V?$allocator@D@2@@4@@Z$2 00416e15 f   vacommon:Path.obj
 0001:00015e34       __unwindfunclet$?splitPath@Path@sys@@SA?AU?$pair@V?$basic_string@DU?$char_traits@D@std@@V?$allocator@D@2@@std@@V12@@std@@ABV?$basic_string@DU?$char_traits@D@std@@V?$allocator@D@2@@4@@Z$3 00416e34 f   vacommon:Path.obj
 0001:00015e40       __unwindfunclet$?splitPath@Path@sys@@SA?AU?$pair@V?$basic_string@DU?$char_traits@D@std@@V?$allocator@D@2@@std@@V12@@std@@ABV?$basic_string@DU?$char_traits@D@std@@V?$allocator@D@2@@4@@Z$4 00416e40 f   vacommon:Path.obj
 0001:00015e49       __unwindfunclet$?splitPath@Path@sys@@SA?AU?$pair@V?$basic_string@DU?$char_traits@D@std@@V?$allocator@D@2@@std@@V12@@std@@ABV?$basic_string@DU?$char_traits@D@std@@V?$allocator@D@2@@4@@Z$5 00416e49 f   vacommon:Path.obj
 0001:00015e55       __unwindfunclet$?splitPath@Path@sys@@SA?AU?$pair@V?$basic_string@DU?$char_traits@D@std@@V?$allocator@D@2@@std@@V12@@std@@ABV?$basic_string@DU?$char_traits@D@std@@V?$allocator@D@2@@4@@Z$6 00416e55 f   vacommon:Path.obj
 0001:00015e61       __unwindfunclet$?splitPath@Path@sys@@SA?AU?$pair@V?$basic_string@DU?$char_traits@D@std@@V?$allocator@D@2@@std@@V12@@std@@ABV?$basic_string@DU?$char_traits@D@std@@V?$allocator@D@2@@4@@Z$7 00416e61 f   vacommon:Path.obj
 0001:00015e6a       __ehhandler$?splitPath@Path@sys@@SA?AU?$pair@V?$basic_string@DU?$char_traits@D@std@@V?$allocator@D@2@@std@@V12@@std@@ABV?$basic_string@DU?$char_traits@D@std@@V?$allocator@D@2@@4@@Z 00416e6a f   vacommon:Path.obj
 0001:00015ea0       __unwindfunclet$?splitDrive@Path@sys@@SA?AU?$pair@V?$basic_string@DU?$char_traits@D@std@@V?$allocator@D@2@@std@@V12@@std@@ABV?$basic_string@DU?$char_traits@D@std@@V?$allocator@D@2@@4@@Z$0 00416ea0 f   vacommon:Path.obj
 0001:00015ea0       __unwindfunclet$?splitExt@Path@sys@@SA?AU?$pair@V?$basic_string@DU?$char_traits@D@std@@V?$allocator@D@2@@std@@V12@@std@@ABV?$basic_string@DU?$char_traits@D@std@@V?$allocator@D@2@@4@@Z$0 00416ea0 f   vacommon:Path.obj
 0001:00015eac       __unwindfunclet$?splitDrive@Path@sys@@SA?AU?$pair@V?$basic_string@DU?$char_traits@D@std@@V?$allocator@D@2@@std@@V12@@std@@ABV?$basic_string@DU?$char_traits@D@std@@V?$allocator@D@2@@4@@Z$1 00416eac f   vacommon:Path.obj
 0001:00015eac       __unwindfunclet$?splitExt@Path@sys@@SA?AU?$pair@V?$basic_string@DU?$char_traits@D@std@@V?$allocator@D@2@@std@@V12@@std@@ABV?$basic_string@DU?$char_traits@D@std@@V?$allocator@D@2@@4@@Z$1 00416eac f   vacommon:Path.obj
 0001:00015ec5       __unwindfunclet$?splitExt@Path@sys@@SA?AU?$pair@V?$basic_string@DU?$char_traits@D@std@@V?$allocator@D@2@@std@@V12@@std@@ABV?$basic_string@DU?$char_traits@D@std@@V?$allocator@D@2@@4@@Z$2 00416ec5 f   vacommon:Path.obj
 0001:00015ec5       __unwindfunclet$?splitDrive@Path@sys@@SA?AU?$pair@V?$basic_string@DU?$char_traits@D@std@@V?$allocator@D@2@@std@@V12@@std@@ABV?$basic_string@DU?$char_traits@D@std@@V?$allocator@D@2@@4@@Z$2 00416ec5 f   vacommon:Path.obj
 0001:00015ed1       __unwindfunclet$?splitDrive@Path@sys@@SA?AU?$pair@V?$basic_string@DU?$char_traits@D@std@@V?$allocator@D@2@@std@@V12@@std@@ABV?$basic_string@DU?$char_traits@D@std@@V?$allocator@D@2@@4@@Z$3 00416ed1 f   vacommon:Path.obj
 0001:00015ed1       __unwindfunclet$?splitExt@Path@sys@@SA?AU?$pair@V?$basic_string@DU?$char_traits@D@std@@V?$allocator@D@2@@std@@V12@@std@@ABV?$basic_string@DU?$char_traits@D@std@@V?$allocator@D@2@@4@@Z$3 00416ed1 f   vacommon:Path.obj
 0001:00015eda       __ehhandler$?splitExt@Path@sys@@SA?AU?$pair@V?$basic_string@DU?$char_traits@D@std@@V?$allocator@D@2@@std@@V12@@std@@ABV?$basic_string@DU?$char_traits@D@std@@V?$allocator@D@2@@4@@Z 00416eda f   vacommon:Path.obj
 0001:00015eda       __ehhandler$?splitDrive@Path@sys@@SA?AU?$pair@V?$basic_string@DU?$char_traits@D@std@@V?$allocator@D@2@@std@@V12@@std@@ABV?$basic_string@DU?$char_traits@D@std@@V?$allocator@D@2@@4@@Z 00416eda f   vacommon:Path.obj
 0001:00015f00       __unwindfunclet$?basename@Path@sys@@SA?AV?$basic_string@DU?$char_traits@D@std@@V?$allocator@D@2@@std@@ABV34@_N@Z$0 00416f00 f   vacommon:Path.obj
 0001:00015f0b       __unwindfunclet$?basename@Path@sys@@SA?AV?$basic_string@DU?$char_traits@D@std@@V?$allocator@D@2@@std@@ABV34@_N@Z$1 00416f0b f   vacommon:Path.obj
 0001:00015f14       __unwindfunclet$?basename@Path@sys@@SA?AV?$basic_string@DU?$char_traits@D@std@@V?$allocator@D@2@@std@@ABV34@_N@Z$2 00416f14 f   vacommon:Path.obj
 0001:00015f1f       __unwindfunclet$?basename@Path@sys@@SA?AV?$basic_string@DU?$char_traits@D@std@@V?$allocator@D@2@@std@@ABV34@_N@Z$3 00416f1f f   vacommon:Path.obj
 0001:00015f39       __ehhandler$?basename@Path@sys@@SA?AV?$basic_string@DU?$char_traits@D@std@@V?$allocator@D@2@@std@@ABV34@_N@Z 00416f39 f   vacommon:Path.obj
 0001:00015f70       __unwindfunclet$??6@YAAAV?$basic_ostream@DU?$char_traits@D@std@@@std@@AAV01@ABVPath@sys@@@Z$0 00416f70 f   vacommon:Path.obj
 0001:00015f79       __ehhandler$??6@YAAAV?$basic_ostream@DU?$char_traits@D@std@@@std@@AAV01@ABVPath@sys@@@Z 00416f79 f   vacommon:Path.obj
 0001:00015fa0       __unwindfunclet$??5@YAAAV?$basic_istream@DU?$char_traits@D@std@@@std@@AAV01@AAVPath@sys@@@Z$0 00416fa0 f   vacommon:Path.obj
 0001:00015fa9       __ehhandler$??5@YAAAV?$basic_istream@DU?$char_traits@D@std@@@std@@AAV01@AAVPath@sys@@@Z 00416fa9 f   vacommon:Path.obj
 0001:00015fd0       __unwindfunclet$?reset@Path@sys@@QAEXV?$basic_string@DU?$char_traits@D@std@@V?$allocator@D@2@@std@@@Z$0 00416fd0 f   vacommon:Path.obj
 0001:00015fd0       __unwindfunclet$??0Path@sys@@QAE@V?$basic_string@DU?$char_traits@D@std@@V?$allocator@D@2@@std@@@Z$0 00416fd0 f   vacommon:Path.obj
 0001:00015fd9       __ehhandler$?reset@Path@sys@@QAEXV?$basic_string@DU?$char_traits@D@std@@V?$allocator@D@2@@std@@@Z 00416fd9 f   vacommon:Path.obj
 0001:00015fd9       __ehhandler$??0Path@sys@@QAE@V?$basic_string@DU?$char_traits@D@std@@V?$allocator@D@2@@std@@@Z 00416fd9 f   vacommon:Path.obj
 0001:00016000       __unwindfunclet$??0?$pair@V?$basic_string@DU?$char_traits@D@std@@V?$allocator@D@2@@std@@V12@@std@@QAE@ABV?$basic_string@DU?$char_traits@D@std@@V?$allocator@D@2@@1@0@Z$0 00417000 f   vacommon:Path.obj
 0001:00016000       __unwindfunclet$??0?$pair@V?$basic_string@DU?$char_traits@D@std@@V?$allocator@D@2@@std@@V12@@std@@QAE@XZ$0 00417000 f   vacommon:Path.obj
 0001:00016000       __unwindfunclet$??1?$pair@V?$basic_string@DU?$char_traits@D@std@@V?$allocator@D@2@@std@@V12@@std@@QAE@XZ$0 00417000 f   vacommon:Path.obj
 0001:00016000       __unwindfunclet$??0Path@sys@@QAE@ABV01@@Z$0 00417000 f   vacommon:Path.obj
 0001:00016009       __ehhandler$??0Path@sys@@QAE@ABV01@@Z 00417009 f   vacommon:Path.obj
 0001:00016009       __ehhandler$??1?$pair@V?$basic_string@DU?$char_traits@D@std@@V?$allocator@D@2@@std@@V12@@std@@QAE@XZ 00417009 f   vacommon:Path.obj
 0001:00016009       __ehhandler$??0?$pair@V?$basic_string@DU?$char_traits@D@std@@V?$allocator@D@2@@std@@V12@@std@@QAE@XZ 00417009 f   vacommon:Path.obj
 0001:00016009       __ehhandler$??0?$pair@V?$basic_string@DU?$char_traits@D@std@@V?$allocator@D@2@@std@@V12@@std@@QAE@ABV?$basic_string@DU?$char_traits@D@std@@V?$allocator@D@2@@1@0@Z 00417009 f   vacommon:Path.obj
 0001:00016030       __unwindfunclet$??1?$deque@V?$basic_string@DU?$char_traits@D@std@@V?$allocator@D@2@@std@@V?$allocator@V?$basic_string@DU?$char_traits@D@std@@V?$allocator@D@2@@std@@@2@@std@@QAE@XZ$0 00417030 f   vacommon:Path.obj
 0001:00016038       __ehhandler$??1?$deque@V?$basic_string@DU?$char_traits@D@std@@V?$allocator@D@2@@std@@V?$allocator@V?$basic_string@DU?$char_traits@D@std@@V?$allocator@D@2@@std@@@2@@std@@QAE@XZ 00417038 f   vacommon:Path.obj
 0001:00016060       __unwindfunclet$?_Xlen@?$vector@V?$basic_string@DU?$char_traits@D@std@@V?$allocator@D@2@@std@@V?$allocator@V?$basic_string@DU?$char_traits@D@std@@V?$allocator@D@2@@std@@@2@@std@@KAXXZ$0 00417060 f   vacommon:Path.obj
 0001:00016060       __unwindfunclet$?_Xlen@?$deque@V?$basic_string@DU?$char_traits@D@std@@V?$allocator@D@2@@std@@V?$allocator@V?$basic_string@DU?$char_traits@D@std@@V?$allocator@D@2@@std@@@2@@std@@KAXXZ$0 00417060 f   vacommon:Path.obj
 0001:00016060       __unwindfunclet$?_Xlen@?$vector@IV?$allocator@I@std@@@std@@KAXXZ$0 00417060 f   vacommon:Path.obj
 0001:00016069       __ehhandler$?_Xlen@?$deque@V?$basic_string@DU?$char_traits@D@std@@V?$allocator@D@2@@std@@V?$allocator@V?$basic_string@DU?$char_traits@D@std@@V?$allocator@D@2@@std@@@2@@std@@KAXXZ 00417069 f   vacommon:Path.obj
 0001:00016069       __ehhandler$?_Xlen@?$vector@IV?$allocator@I@std@@@std@@KAXXZ 00417069 f   vacommon:Path.obj
 0001:00016069       __ehhandler$?_Xlen@?$vector@V?$basic_string@DU?$char_traits@D@std@@V?$allocator@D@2@@std@@V?$allocator@V?$basic_string@DU?$char_traits@D@std@@V?$allocator@D@2@@std@@@2@@std@@KAXXZ 00417069 f   vacommon:Path.obj
 0001:00016090       __unwindfunclet$?containsOnly@str@@YA_NABV?$basic_string@DU?$char_traits@D@std@@V?$allocator@D@2@@std@@0@Z$0 00417090 f   vacommon:Manip.obj
 0001:00016098       __ehhandler$?containsOnly@str@@YA_NABV?$basic_string@DU?$char_traits@D@std@@V?$allocator@D@2@@std@@0@Z 00417098 f   vacommon:Manip.obj
 0001:000160c0       __unwindfunclet$?split@str@@YA?AV?$vector@V?$basic_string@DU?$char_traits@D@std@@V?$allocator@D@2@@std@@V?$allocator@V?$basic_string@DU?$char_traits@D@std@@V?$allocator@D@2@@std@@@2@@std@@ABV?$basic_string@DU?$char_traits@D@std@@V?$allocator@D@2@@3@0I@Z$0 004170c0 f   vacommon:Manip.obj
 0001:000160c8       __unwindfunclet$?split@str@@YA?AV?$vector@V?$basic_string@DU?$char_traits@D@std@@V?$allocator@D@2@@std@@V?$allocator@V?$basic_string@DU?$char_traits@D@std@@V?$allocator@D@2@@std@@@2@@std@@ABV?$basic_string@DU?$char_traits@D@std@@V?$allocator@D@2@@3@0I@Z$1 004170c8 f   vacommon:Manip.obj
 0001:000160d4       __unwindfunclet$?split@str@@YA?AV?$vector@V?$basic_string@DU?$char_traits@D@std@@V?$allocator@D@2@@std@@V?$allocator@V?$basic_string@DU?$char_traits@D@std@@V?$allocator@D@2@@std@@@2@@std@@ABV?$basic_string@DU?$char_traits@D@std@@V?$allocator@D@2@@3@0I@Z$2 004170d4 f   vacommon:Manip.obj
 0001:000160e0       __unwindfunclet$?split@str@@YA?AV?$vector@V?$basic_string@DU?$char_traits@D@std@@V?$allocator@D@2@@std@@V?$allocator@V?$basic_string@DU?$char_traits@D@std@@V?$allocator@D@2@@std@@@2@@std@@ABV?$basic_string@DU?$char_traits@D@std@@V?$allocator@D@2@@3@0I@Z$3 004170e0 f   vacommon:Manip.obj
 0001:000160f9       __ehhandler$?split@str@@YA?AV?$vector@V?$basic_string@DU?$char_traits@D@std@@V?$allocator@D@2@@std@@V?$allocator@V?$basic_string@DU?$char_traits@D@std@@V?$allocator@D@2@@std@@@2@@std@@ABV?$basic_string@DU?$char_traits@D@std@@V?$allocator@D@2@@3@0I@Z 004170f9 f   vacommon:Manip.obj
 0001:00016120       __unwindfunclet$??0?$vector@_NV?$allocator@_N@std@@@std@@QAE@I_N@Z$0 00417120 f   vacommon:Manip.obj
 0001:00016128       __unwindfunclet$??0?$vector@_NV?$allocator@_N@std@@@std@@QAE@I_N@Z$1 00417128 f   vacommon:Manip.obj
 0001:00016133       __ehhandler$??0?$vector@_NV?$allocator@_N@std@@@std@@QAE@I_N@Z 00417133 f   vacommon:Manip.obj
 0001:00016150       __unwindfunclet$??1?$vector@_NV?$allocator@_N@std@@@std@@QAE@XZ$0 00417150 f   vacommon:Manip.obj
 0001:00016158       __ehhandler$??1?$vector@_NV?$allocator@_N@std@@@std@@QAE@XZ 00417158 f   vacommon:Manip.obj
 0001:00016180       __unwindfunclet$??0?$_Container_base_aux_alloc_real@V?$allocator@I@std@@@std@@IAE@V?$allocator@I@1@@Z$0 00417180 f   vacommon:Manip.obj
 0001:00016180       __unwindfunclet$??0?$_Container_base_aux_alloc_real@V?$allocator@V?$basic_string@DU?$char_traits@D@std@@V?$allocator@D@2@@std@@@std@@@std@@IAE@V?$allocator@V?$basic_string@DU?$char_traits@D@std@@V?$allocator@D@2@@std@@@1@@Z$0 00417180 f   vacommon:Manip.obj
 0001:00016180       __unwindfunclet$??0?$_Container_base_aux_alloc_real@V?$allocator@_N@std@@@std@@IAE@V?$allocator@_N@1@@Z$0 00417180 f   vacommon:Manip.obj
 0001:00016188       __unwindfunclet$??0?$_Container_base_aux_alloc_real@V?$allocator@V?$basic_string@DU?$char_traits@D@std@@V?$allocator@D@2@@std@@@std@@@std@@IAE@V?$allocator@V?$basic_string@DU?$char_traits@D@std@@V?$allocator@D@2@@std@@@1@@Z$1 00417188 f   vacommon:Manip.obj
 0001:00016188       __unwindfunclet$??0?$_Container_base_aux_alloc_real@V?$allocator@_N@std@@@std@@IAE@V?$allocator@_N@1@@Z$1 00417188 f   vacommon:Manip.obj
 0001:00016188       __unwindfunclet$??0?$_Container_base_aux_alloc_real@V?$allocator@I@std@@@std@@IAE@V?$allocator@I@1@@Z$1 00417188 f   vacommon:Manip.obj
 0001:00016199       __ehhandler$??0?$_Container_base_aux_alloc_real@V?$allocator@V?$basic_string@DU?$char_traits@D@std@@V?$allocator@D@2@@std@@@std@@@std@@IAE@V?$allocator@V?$basic_string@DU?$char_traits@D@std@@V?$allocator@D@2@@std@@@1@@Z 00417199 f   vacommon:Manip.obj
 0001:00016199       __ehhandler$??0?$_Container_base_aux_alloc_real@V?$allocator@I@std@@@std@@IAE@V?$allocator@I@1@@Z 00417199 f   vacommon:Manip.obj
 0001:00016199       __ehhandler$??0?$_Container_base_aux_alloc_real@V?$allocator@_N@std@@@std@@IAE@V?$allocator@_N@1@@Z 00417199 f   vacommon:Manip.obj
 0001:000161c0       __unwindfunclet$??0?$vector@V?$basic_string@DU?$char_traits@D@std@@V?$allocator@D@2@@std@@V?$allocator@V?$basic_string@DU?$char_traits@D@std@@V?$allocator@D@2@@std@@@2@@std@@QAE@XZ$0 004171c0 f   vacommon:Manip.obj
 0001:000161c0       __unwindfunclet$??0?$vector@IV?$allocator@I@std@@@std@@QAE@IABI@Z$0 004171c0 f   vacommon:Manip.obj
 0001:000161c8       __ehhandler$??0?$vector@V?$basic_string@DU?$char_traits@D@std@@V?$allocator@D@2@@std@@V?$allocator@V?$basic_string@DU?$char_traits@D@std@@V?$allocator@D@2@@std@@@2@@std@@QAE@XZ 004171c8 f   vacommon:Manip.obj
 0001:000161c8       __ehhandler$??0?$vector@IV?$allocator@I@std@@@std@@QAE@IABI@Z 004171c8 f   vacommon:Manip.obj
 0001:000161f0       __unwindfunclet$?_Xlen@?$vector@_NV?$allocator@_N@std@@@std@@IBEXXZ$0 004171f0 f   vacommon:Manip.obj
 0001:000161f9       __ehhandler$?_Xlen@?$vector@_NV?$allocator@_N@std@@@std@@IBEXXZ 004171f9 f   vacommon:Manip.obj
 0001:00016220       __ehhandler$?_Construct_n@?$vector@IV?$allocator@I@std@@@std@@QAEXIABI@Z 00417220 f   vacommon:Manip.obj
 0001:00016240       __unwindfunclet$??0Tokenizer@str@@QAE@ABV?$basic_string@DU?$char_traits@D@std@@V?$allocator@D@2@@std@@0@Z$0 00417240 f   vacommon:Tokenizer.obj
 0001:00016248       __unwindfunclet$??0Tokenizer@str@@QAE@ABV?$basic_string@DU?$char_traits@D@std@@V?$allocator@D@2@@std@@0@Z$1 00417248 f   vacommon:Tokenizer.obj
 0001:00016251       __ehhandler$??0Tokenizer@str@@QAE@ABV?$basic_string@DU?$char_traits@D@std@@V?$allocator@D@2@@std@@0@Z 00417251 f   vacommon:Tokenizer.obj
